ccopy_reg
_reconstructor
p0
(cmodules.Objects
Board
p1
c__builtin__
object
p2
Ntp3
Rp4
(dp5
S'gates'
p6
(dp7
I0
g0
(cmodules.Objects
Gate
p8
g2
Ntp9
Rp10
(dp11
S'gate_id'
p12
I0
sS'x'
p13
I1
sS'z'
p14
I0
sS'y'
p15
I1
sbsI1
g0
(g8
g2
Ntp16
Rp17
(dp18
g12
I1
sg13
I6
sg14
I0
sg15
I1
sbsI2
g0
(g8
g2
Ntp19
Rp20
(dp21
g12
I2
sg13
I10
sg14
I0
sg15
I1
sbsI3
g0
(g8
g2
Ntp22
Rp23
(dp24
g12
I3
sg13
I15
sg14
I0
sg15
I1
sbsI4
g0
(g8
g2
Ntp25
Rp26
(dp27
g12
I4
sg13
I3
sg14
I0
sg15
I2
sbsI5
g0
(g8
g2
Ntp28
Rp29
(dp30
g12
I5
sg13
I12
sg14
I0
sg15
I2
sbsI6
g0
(g8
g2
Ntp31
Rp32
(dp33
g12
I6
sg13
I14
sg14
I0
sg15
I2
sbsI7
g0
(g8
g2
Ntp34
Rp35
(dp36
g12
I7
sg13
I12
sg14
I0
sg15
I3
sbsI8
g0
(g8
g2
Ntp37
Rp38
(dp39
g12
I8
sg13
I8
sg14
I0
sg15
I4
sbsI9
g0
(g8
g2
Ntp40
Rp41
(dp42
g12
I9
sg13
I1
sg14
I0
sg15
I5
sbsI10
g0
(g8
g2
Ntp43
Rp44
(dp45
g12
I10
sg13
I4
sg14
I0
sg15
I5
sbsI11
g0
(g8
g2
Ntp46
Rp47
(dp48
g12
I11
sg13
I11
sg14
I0
sg15
I5
sbsI12
g0
(g8
g2
Ntp49
Rp50
(dp51
g12
I12
sg13
I16
sg14
I0
sg15
I5
sbsI13
g0
(g8
g2
Ntp52
Rp53
(dp54
g12
I13
sg13
I13
sg14
I0
sg15
I7
sbsI14
g0
(g8
g2
Ntp55
Rp56
(dp57
g12
I14
sg13
I16
sg14
I0
sg15
I7
sbsI15
g0
(g8
g2
Ntp58
Rp59
(dp60
g12
I15
sg13
I2
sg14
I0
sg15
I8
sbsI16
g0
(g8
g2
Ntp61
Rp62
(dp63
g12
I16
sg13
I6
sg14
I0
sg15
I8
sbsI17
g0
(g8
g2
Ntp64
Rp65
(dp66
g12
I17
sg13
I9
sg14
I0
sg15
I8
sbsI18
g0
(g8
g2
Ntp67
Rp68
(dp69
g12
I18
sg13
I11
sg14
I0
sg15
I8
sbsI19
g0
(g8
g2
Ntp70
Rp71
(dp72
g12
I19
sg13
I15
sg14
I0
sg15
I8
sbsI20
g0
(g8
g2
Ntp73
Rp74
(dp75
g12
I20
sg13
I1
sg14
I0
sg15
I9
sbsI21
g0
(g8
g2
Ntp76
Rp77
(dp78
g12
I21
sg13
I2
sg14
I0
sg15
I10
sbsI22
g0
(g8
g2
Ntp79
Rp80
(dp81
g12
I22
sg13
I9
sg14
I0
sg15
I10
sbsI23
g0
(g8
g2
Ntp82
Rp83
(dp84
g12
I23
sg13
I1
sg14
I0
sg15
I11
sbsI24
g0
(g8
g2
Ntp85
Rp86
(dp87
g12
I24
sg13
I12
sg14
I0
sg15
I11
sbssS'y_dim'
p88
I13
sS'z_dim'
p89
I10
sS'board'
p90
cnumpy.core.multiarray
_reconstruct
p91
(cnumpy
ndarray
p92
(I0
tp93
S'b'
p94
tp95
Rp96
(I1
(I18
I13
I10
tp97
cnumpy
dtype
p98
(S'O8'
p99
I0
I1
tp100
Rp101
(I3
S'|'
p102
NNNI-1
I-1
I63
tp103
bI00
(lp104
I0
aI0
aI0
aI0
aI0
aI0
aI0
ag0
(cmodules.Objects
Net
p105
g2
Ntp106
Rp107
(dp108
S'start_gate'
p109
I3
sS'path'
p110
(lp111
(I15
I1
I0
tp112
a(I15
I0
I0
tp113
a(I15
I0
I1
tp114
a(I15
I0
I2
tp115
a(I15
I0
I3
tp116
a(I15
I0
I4
tp117
a(I14
I0
I4
tp118
a(I14
I0
I5
tp119
a(I14
I0
I6
tp120
a(I14
I0
I7
tp121
a(I13
I0
I7
tp122
a(I12
I0
I7
tp123
a(I11
I0
I7
tp124
a(I10
I0
I7
tp125
a(I9
I0
I7
tp126
a(I8
I0
I7
tp127
a(I7
I0
I7
tp128
a(I6
I0
I7
tp129
a(I5
I0
I7
tp130
a(I4
I0
I7
tp131
a(I3
I0
I7
tp132
a(I2
I0
I7
tp133
a(I1
I0
I7
tp134
a(I0
I0
I7
tp135
a(I0
I1
I7
tp136
a(I0
I2
I7
tp137
a(I0
I3
I7
tp138
a(I0
I4
I7
tp139
a(I0
I5
I7
tp140
a(I0
I6
I7
tp141
a(I0
I7
I7
tp142
a(I0
I8
I7
tp143
a(I0
I8
I6
tp144
a(I0
I8
I5
tp145
a(I0
I8
I4
tp146
a(I0
I8
I3
tp147
a(I0
I8
I2
tp148
a(I1
I8
I2
tp149
a(I1
I8
I1
tp150
a(I1
I8
I0
tp151
a(I2
I8
I0
tp152
asS'end_gate'
p153
I15
sS'net_id'
p154
I17
sbaI0
ag0
(g105
g2
Ntp155
Rp156
(dp157
g109
I3
sg110
(lp158
(I15
I1
I0
tp159
a(I15
I1
I1
tp160
a(I15
I1
I2
tp161
a(I15
I1
I3
tp162
a(I15
I1
I4
tp163
a(I15
I1
I5
tp164
a(I15
I0
I5
tp165
a(I15
I0
I6
tp166
a(I15
I0
I7
tp167
a(I15
I0
I8
tp168
a(I15
I0
I9
tp169
a(I14
I0
I9
tp170
a(I13
I0
I9
tp171
a(I12
I0
I9
tp172
a(I11
I0
I9
tp173
a(I10
I0
I9
tp174
a(I9
I0
I9
tp175
a(I8
I0
I9
tp176
a(I7
I0
I9
tp177
a(I6
I0
I9
tp178
a(I5
I0
I9
tp179
a(I4
I0
I9
tp180
a(I3
I0
I9
tp181
a(I2
I0
I9
tp182
a(I1
I0
I9
tp183
a(I0
I0
I9
tp184
a(I0
I1
I9
tp185
a(I0
I2
I9
tp186
a(I0
I3
I9
tp187
a(I0
I4
I9
tp188
a(I0
I5
I9
tp189
a(I0
I6
I9
tp190
a(I0
I7
I9
tp191
a(I0
I8
I9
tp192
a(I0
I9
I9
tp193
a(I0
I10
I9
tp194
a(I0
I11
I9
tp195
a(I0
I11
I8
tp196
a(I0
I11
I7
tp197
a(I0
I11
I6
tp198
a(I0
I11
I5
tp199
a(I0
I11
I4
tp200
a(I0
I11
I3
tp201
a(I0
I11
I2
tp202
a(I0
I11
I1
tp203
a(I0
I11
I0
tp204
a(I1
I11
I0
tp205
asg153
I23
sg154
I6
sbaI0
aI0
aI0
aI0
aI0
aI0
aI0
ag107
aI0
ag156
aI0
aI0
aI0
aI0
aI0
aI0
aI0
ag107
aI0
ag156
aI0
aI0
aI0
aI0
aI0
aI0
ag0
(g105
g2
Ntp206
Rp207
(dp208
g109
I7
sg110
(lp209
(I12
I3
I0
tp210
a(I12
I3
I1
tp211
a(I12
I3
I2
tp212
a(I11
I3
I2
tp213
a(I10
I3
I2
tp214
a(I10
I3
I3
tp215
a(I10
I3
I4
tp216
a(I9
I3
I4
tp217
a(I9
I3
I5
tp218
a(I9
I3
I6
tp219
a(I8
I3
I6
tp220
a(I7
I3
I6
tp221
a(I6
I3
I6
tp222
a(I5
I3
I6
tp223
a(I4
I3
I6
tp224
a(I3
I3
I6
tp225
a(I2
I3
I6
tp226
a(I1
I3
I6
tp227
a(I0
I3
I6
tp228
a(I0
I4
I6
tp229
a(I0
I5
I6
tp230
a(I0
I5
I5
tp231
a(I0
I5
I4
tp232
a(I0
I5
I3
tp233
a(I0
I5
I2
tp234
a(I0
I5
I1
tp235
a(I0
I5
I0
tp236
a(I1
I5
I0
tp237
asg153
I9
sg154
I26
sbag107
aI0
ag156
aI0
aI0
aI0
aI0
aI0
aI0
ag207
ag107
aI0
ag156
ag207
ag207
ag207
ag207
ag207
ag207
ag207
ag107
aI0
ag156
aI0
aI0
aI0
aI0
aI0
aI0
aI0
ag107
aI0
ag156
aI0
aI0
aI0
aI0
aI0
aI0
aI0
ag107
aI0
ag156
aI0
aI0
ag107
ag107
ag107
ag107
ag107
ag107
aI0
ag156
ag0
(g105
g2
Ntp238
Rp239
(dp240
g109
I2
sg110
(lp241
(I10
I1
I0
tp242
a(I10
I0
I0
tp243
a(I10
I0
I1
tp244
a(I10
I0
I2
tp245
a(I10
I0
I3
tp246
a(I10
I0
I4
tp247
a(I10
I0
I5
tp248
a(I10
I0
I6
tp249
a(I10
I1
I6
tp250
a(I10
I1
I7
tp251
a(I10
I1
I8
tp252
a(I10
I1
I9
tp253
a(I10
I2
I9
tp254
a(I9
I2
I9
tp255
a(I8
I2
I9
tp256
a(I7
I2
I9
tp257
a(I6
I2
I9
tp258
a(I5
I2
I9
tp259
a(I4
I2
I9
tp260
a(I3
I2
I9
tp261
a(I2
I2
I9
tp262
a(I2
I3
I9
tp263
a(I2
I4
I9
tp264
a(I2
I5
I9
tp265
a(I2
I6
I9
tp266
a(I2
I7
I9
tp267
a(I2
I8
I9
tp268
a(I2
I9
I9
tp269
a(I1
I9
I9
tp270
a(I1
I9
I8
tp271
a(I0
I9
I8
tp272
a(I0
I9
I7
tp273
a(I0
I9
I6
tp274
a(I0
I9
I5
tp275
a(I0
I9
I4
tp276
a(I0
I9
I3
tp277
a(I0
I9
I2
tp278
a(I0
I9
I1
tp279
a(I0
I9
I0
tp280
a(I1
I9
I0
tp281
asg153
I20
sg154
I18
sbag239
ag239
ag239
ag239
ag239
ag239
ag239
ag239
ag156
aI0
aI0
aI0
aI0
aI0
aI0
aI0
aI0
aI0
ag156
ag156
ag156
ag156
ag156
ag156
ag156
ag156
ag156
ag156
ag156
aI0
aI0
aI0
aI0
aI0
aI0
aI0
aI0
aI0
aI0
aI0
aI0
aI0
aI0
aI0
aI0
aI0
ag107
ag0
(g105
g2
Ntp282
Rp283
(dp284
g109
I3
sg110
(lp285
(I15
I1
I0
tp286
a(I16
I1
I0
tp287
a(I16
I1
I1
tp288
a(I16
I1
I2
tp289
a(I16
I1
I3
tp290
a(I16
I1
I4
tp291
a(I16
I1
I5
tp292
a(I16
I1
I6
tp293
a(I16
I1
I7
tp294
a(I16
I1
I8
tp295
a(I15
I1
I8
tp296
a(I14
I1
I8
tp297
a(I14
I0
I8
tp298
a(I13
I0
I8
tp299
a(I12
I0
I8
tp300
a(I11
I0
I8
tp301
a(I10
I0
I8
tp302
a(I9
I0
I8
tp303
a(I8
I0
I8
tp304
a(I7
I0
I8
tp305
a(I6
I0
I8
tp306
a(I5
I0
I8
tp307
a(I4
I0
I8
tp308
a(I3
I0
I8
tp309
a(I2
I0
I8
tp310
a(I1
I0
I8
tp311
a(I1
I1
I8
tp312
a(I1
I1
I7
tp313
a(I1
I1
I6
tp314
a(I1
I1
I5
tp315
a(I1
I1
I4
tp316
a(I1
I1
I3
tp317
a(I1
I1
I2
tp318
a(I1
I1
I1
tp319
a(I1
I1
I0
tp320
asg153
I0
sg154
I23
sbag156
ag10
ag283
ag283
ag283
ag283
ag283
ag283
ag283
ag283
aI0
aI0
aI0
aI0
aI0
aI0
aI0
aI0
aI0
aI0
aI0
aI0
aI0
aI0
aI0
aI0
aI0
ag207
aI0
aI0
aI0
ag0
(g105
g2
Ntp321
Rp322
(dp323
g109
I9
sg110
(lp324
(I1
I5
I0
tp325
a(I1
I4
I0
tp326
a(I1
I4
I1
tp327
a(I1
I4
I2
tp328
a(I1
I4
I3
tp329
a(I1
I4
I4
tp330
a(I1
I4
I5
tp331
a(I1
I4
I6
tp332
a(I1
I4
I7
tp333
a(I2
I4
I7
tp334
a(I3
I4
I7
tp335
a(I4
I4
I7
tp336
a(I5
I4
I7
tp337
a(I6
I4
I7
tp338
a(I6
I5
I7
tp339
a(I7
I5
I7
tp340
a(I7
I6
I7
tp341
a(I8
I6
I7
tp342
a(I8
I7
I7
tp343
a(I9
I7
I7
tp344
a(I10
I7
I7
tp345
a(I11
I7
I7
tp346
a(I12
I7
I7
tp347
a(I13
I7
I7
tp348
a(I14
I7
I7
tp349
a(I14
I7
I6
tp350
a(I14
I7
I5
tp351
a(I14
I7
I4
tp352
a(I14
I7
I3
tp353
a(I14
I7
I2
tp354
a(I14
I7
I1
tp355
a(I14
I7
I0
tp356
a(I13
I7
I0
tp357
asg153
I13
sg154
I27
sbag322
ag322
ag322
ag322
ag322
ag322
ag322
aI0
aI0
ag41
ag0
(g105
g2
Ntp358
Rp359
(dp360
g109
I16
sg110
(lp361
(I6
I8
I0
tp362
a(I6
I8
I1
tp363
a(I6
I8
I2
tp364
a(I5
I8
I2
tp365
a(I5
I7
I2
tp366
a(I5
I6
I2
tp367
a(I4
I6
I2
tp368
a(I3
I6
I2
tp369
a(I3
I5
I2
tp370
a(I2
I5
I2
tp371
a(I1
I5
I2
tp372
a(I1
I5
I1
tp373
a(I1
I5
I0
tp374
asg153
I9
sg154
I21
sbag359
aI0
aI0
aI0
aI0
aI0
aI0
aI0
aI0
aI0
aI0
ag0
(g105
g2
Ntp375
Rp376
(dp377
g109
I20
sg110
(lp378
(I1
I9
I0
tp379
a(I1
I9
I1
tp380
a(I1
I9
I2
tp381
a(I1
I9
I3
tp382
a(I1
I8
I3
tp383
a(I1
I7
I3
tp384
a(I1
I6
I3
tp385
a(I2
I6
I3
tp386
a(I3
I6
I3
tp387
a(I4
I6
I3
tp388
a(I4
I5
I3
tp389
a(I4
I5
I2
tp390
a(I4
I5
I1
tp391
a(I4
I5
I0
tp392
asg153
I10
sg154
I10
sbaI0
aI0
aI0
aI0
aI0
aI0
aI0
aI0
aI0
ag376
aI0
aI0
aI0
aI0
aI0
aI0
ag107
ag107
ag107
ag376
aI0
aI0
aI0
aI0
aI0
aI0
ag74
ag376
ag376
ag376
aI0
aI0
aI0
aI0
ag239
ag239
ag0
(g105
g2
Ntp393
Rp394
(dp395
g109
I20
sg110
(lp396
(I1
I9
I0
tp397
a(I1
I10
I0
tp398
a(I1
I10
I1
tp399
a(I1
I10
I2
tp400
a(I1
I10
I3
tp401
a(I1
I10
I4
tp402
a(I1
I10
I5
tp403
a(I1
I10
I6
tp404
a(I1
I10
I7
tp405
a(I2
I10
I7
tp406
a(I3
I10
I7
tp407
a(I4
I10
I7
tp408
a(I5
I10
I7
tp409
a(I6
I10
I7
tp410
a(I7
I10
I7
tp411
a(I8
I10
I7
tp412
a(I9
I10
I7
tp413
a(I10
I10
I7
tp414
a(I11
I10
I7
tp415
a(I12
I10
I7
tp416
a(I13
I10
I7
tp417
a(I14
I10
I7
tp418
a(I15
I10
I7
tp419
a(I15
I9
I7
tp420
a(I15
I9
I6
tp421
a(I15
I9
I5
tp422
a(I15
I9
I4
tp423
a(I15
I9
I3
tp424
a(I15
I9
I2
tp425
a(I15
I9
I1
tp426
a(I15
I9
I0
tp427
a(I15
I8
I0
tp428
asg153
I19
sg154
I20
sbag394
ag394
ag394
ag394
ag394
ag394
ag394
aI0
aI0
ag83
ag0
(g105
g2
Ntp429
Rp430
(dp431
g109
I23
sg110
(lp432
(I1
I11
I0
tp433
a(I1
I11
I1
tp434
a(I1
I11
I2
tp435
a(I1
I11
I3
tp436
a(I1
I11
I4
tp437
a(I1
I11
I5
tp438
a(I2
I11
I5
tp439
a(I3
I11
I5
tp440
a(I3
I10
I5
tp441
a(I3
I9
I5
tp442
a(I3
I8
I5
tp443
a(I3
I7
I5
tp444
a(I3
I6
I5
tp445
a(I3
I5
I5
tp446
a(I3
I4
I5
tp447
a(I3
I3
I5
tp448
a(I3
I2
I5
tp449
a(I3
I2
I4
tp450
a(I3
I2
I3
tp451
a(I3
I2
I2
tp452
a(I3
I2
I1
tp453
a(I3
I2
I0
tp454
asg153
I4
sg154
I0
sbag430
ag430
ag430
ag430
aI0
aI0
aI0
aI0
ag0
(g105
g2
Ntp455
Rp456
(dp457
g109
I23
sg110
(lp458
(I1
I11
I0
tp459
a(I1
I12
I0
tp460
a(I1
I12
I1
tp461
a(I1
I12
I2
tp462
a(I1
I12
I3
tp463
a(I1
I12
I4
tp464
a(I1
I12
I5
tp465
a(I1
I12
I6
tp466
a(I1
I12
I7
tp467
a(I1
I12
I8
tp468
a(I1
I12
I9
tp469
a(I2
I12
I9
tp470
a(I3
I12
I9
tp471
a(I4
I12
I9
tp472
a(I5
I12
I9
tp473
a(I6
I12
I9
tp474
a(I7
I12
I9
tp475
a(I8
I12
I9
tp476
a(I8
I11
I9
tp477
a(I8
I10
I9
tp478
a(I8
I9
I9
tp479
a(I8
I8
I9
tp480
a(I8
I7
I9
tp481
a(I8
I6
I9
tp482
a(I8
I5
I9
tp483
a(I8
I4
I9
tp484
a(I8
I4
I8
tp485
a(I8
I4
I7
tp486
a(I8
I4
I6
tp487
a(I8
I4
I5
tp488
a(I8
I4
I4
tp489
a(I8
I4
I3
tp490
a(I8
I4
I2
tp491
a(I8
I4
I1
tp492
a(I8
I4
I0
tp493
asg153
I8
sg154
I7
sbag456
ag456
ag456
ag456
ag456
ag456
ag456
ag456
ag456
aI0
aI0
aI0
aI0
aI0
aI0
aI0
ag107
ag283
ag156
ag0
(g105
g2
Ntp494
Rp495
(dp496
g109
I1
sg110
(lp497
(I6
I1
I0
tp498
a(I5
I1
I0
tp499
a(I4
I1
I0
tp500
a(I3
I1
I0
tp501
a(I2
I1
I0
tp502
a(I1
I1
I0
tp503
asg153
I0
sg154
I2
sbaI0
aI0
aI0
aI0
aI0
aI0
aI0
aI0
aI0
aI0
aI0
aI0
aI0
aI0
aI0
aI0
aI0
aI0
ag239
aI0
aI0
aI0
aI0
aI0
aI0
ag207
aI0
aI0
ag239
aI0
aI0
aI0
aI0
aI0
aI0
aI0
ag322
aI0
ag239
aI0
aI0
ag359
aI0
aI0
aI0
aI0
aI0
aI0
ag239
aI0
aI0
aI0
ag376
aI0
aI0
aI0
aI0
aI0
ag239
ag0
(g105
g2
Ntp504
Rp505
(dp506
g109
I15
sg110
(lp507
(I2
I8
I0
tp508
a(I2
I7
I0
tp509
a(I2
I7
I1
tp510
a(I2
I7
I2
tp511
a(I2
I7
I3
tp512
a(I3
I7
I3
tp513
a(I4
I7
I3
tp514
a(I5
I7
I3
tp515
a(I6
I7
I3
tp516
a(I6
I6
I3
tp517
a(I7
I6
I3
tp518
a(I8
I6
I3
tp519
a(I8
I5
I3
tp520
a(I8
I5
I2
tp521
a(I8
I5
I1
tp522
a(I8
I5
I0
tp523
a(I8
I4
I0
tp524
asg153
I8
sg154
I11
sbag505
ag505
ag505
aI0
aI0
aI0
aI0
aI0
ag239
ag59
ag0
(g105
g2
Ntp525
Rp526
(dp527
g109
I15
sg110
(lp528
(I2
I8
I0
tp529
a(I2
I8
I1
tp530
a(I2
I8
I2
tp531
a(I2
I8
I3
tp532
a(I3
I8
I3
tp533
a(I4
I8
I3
tp534
a(I5
I8
I3
tp535
a(I6
I8
I3
tp536
a(I7
I8
I3
tp537
a(I8
I8
I3
tp538
a(I9
I8
I3
tp539
a(I9
I8
I2
tp540
a(I9
I8
I1
tp541
a(I9
I8
I0
tp542
asg153
I17
sg154
I9
sbag526
ag526
aI0
aI0
aI0
aI0
aI0
ag239
ag0
(g105
g2
Ntp543
Rp544
(dp545
g109
I15
sg110
(lp546
(I2
I8
I0
tp547
a(I2
I9
I0
tp548
a(I2
I10
I0
tp549
asg153
I21
sg154
I3
sbaI0
aI0
aI0
aI0
aI0
aI0
aI0
aI0
ag239
ag77
aI0
aI0
aI0
aI0
aI0
aI0
ag394
aI0
aI0
aI0
aI0
aI0
aI0
aI0
ag430
aI0
aI0
aI0
aI0
aI0
aI0
aI0
aI0
aI0
aI0
aI0
aI0
aI0
ag456
aI0
aI0
aI0
aI0
aI0
aI0
aI0
ag107
ag283
ag156
ag495
aI0
aI0
aI0
aI0
aI0
aI0
aI0
aI0
aI0
ag26
ag430
ag430
ag430
ag430
ag430
aI0
aI0
aI0
ag239
ag0
(g105
g2
Ntp550
Rp551
(dp552
g109
I10
sg110
(lp553
(I4
I5
I0
tp554
a(I3
I5
I0
tp555
a(I3
I4
I0
tp556
a(I3
I3
I0
tp557
a(I3
I2
I0
tp558
asg153
I4
sg154
I15
sbaI0
aI0
aI0
aI0
ag430
ag207
aI0
aI0
aI0
ag551
aI0
aI0
aI0
aI0
ag430
aI0
ag322
aI0
aI0
ag551
aI0
ag359
aI0
aI0
ag430
aI0
aI0
aI0
aI0
aI0
aI0
ag359
ag376
aI0
ag430
aI0
aI0
aI0
aI0
aI0
aI0
aI0
ag505
aI0
ag430
aI0
aI0
aI0
aI0
ag0
(g105
g2
Ntp559
Rp560
(dp561
g109
I15
sg110
(lp562
(I2
I8
I0
tp563
a(I3
I8
I0
tp564
a(I3
I8
I1
tp565
a(I3
I8
I2
tp566
a(I3
I9
I2
tp567
a(I3
I9
I3
tp568
a(I3
I9
I4
tp569
a(I4
I9
I4
tp570
a(I4
I9
I5
tp571
a(I4
I9
I6
tp572
a(I5
I9
I6
tp573
a(I6
I9
I6
tp574
a(I7
I9
I6
tp575
a(I8
I9
I6
tp576
a(I9
I9
I6
tp577
a(I9
I8
I6
tp578
a(I9
I7
I6
tp579
a(I9
I6
I6
tp580
a(I9
I5
I6
tp581
a(I10
I5
I6
tp582
a(I11
I5
I6
tp583
a(I11
I4
I6
tp584
a(I11
I3
I6
tp585
a(I11
I3
I5
tp586
a(I11
I3
I4
tp587
a(I11
I3
I3
tp588
a(I11
I2
I3
tp589
a(I11
I2
I2
tp590
a(I11
I2
I1
tp591
a(I11
I2
I0
tp592
a(I12
I2
I0
tp593
asg153
I5
sg154
I24
sbag560
ag560
ag526
aI0
ag430
aI0
aI0
aI0
aI0
aI0
aI0
ag560
ag560
ag560
ag430
aI0
aI0
aI0
aI0
aI0
aI0
aI0
aI0
aI0
ag430
aI0
ag394
aI0
aI0
aI0
aI0
aI0
aI0
aI0
ag430
aI0
aI0
aI0
aI0
aI0
aI0
aI0
aI0
aI0
aI0
aI0
aI0
aI0
ag456
aI0
aI0
aI0
aI0
aI0
aI0
aI0
ag107
ag283
ag156
ag495
aI0
aI0
aI0
aI0
aI0
aI0
aI0
aI0
aI0
ag0
(g105
g2
Ntp594
Rp595
(dp596
g109
I3
sg110
(lp597
(I15
I1
I0
tp598
a(I15
I2
I0
tp599
a(I15
I2
I1
tp600
a(I15
I2
I2
tp601
a(I15
I2
I3
tp602
a(I15
I2
I4
tp603
a(I14
I2
I4
tp604
a(I13
I2
I4
tp605
a(I12
I2
I4
tp606
a(I11
I2
I4
tp607
a(I10
I2
I4
tp608
a(I9
I2
I4
tp609
a(I8
I2
I4
tp610
a(I7
I2
I4
tp611
a(I6
I2
I4
tp612
a(I5
I2
I4
tp613
a(I4
I2
I4
tp614
a(I4
I2
I3
tp615
a(I4
I2
I2
tp616
a(I4
I2
I1
tp617
a(I4
I2
I0
tp618
a(I3
I2
I0
tp619
asg153
I4
sg154
I19
sbag595
ag595
ag595
ag595
aI0
aI0
aI0
aI0
ag239
aI0
aI0
aI0
aI0
aI0
aI0
ag207
aI0
aI0
aI0
aI0
aI0
aI0
aI0
aI0
aI0
aI0
ag322
aI0
aI0
ag44
ag376
ag376
ag376
aI0
aI0
aI0
aI0
aI0
aI0
aI0
aI0
ag359
ag376
aI0
aI0
aI0
aI0
aI0
aI0
aI0
aI0
aI0
ag505
aI0
aI0
aI0
aI0
aI0
aI0
aI0
aI0
aI0
ag526
aI0
aI0
aI0
aI0
aI0
aI0
aI0
aI0
aI0
aI0
ag560
ag560
ag560
aI0
aI0
aI0
aI0
aI0
aI0
aI0
aI0
aI0
aI0
ag394
aI0
aI0
aI0
aI0
aI0
aI0
aI0
aI0
aI0
aI0
aI0
aI0
aI0
aI0
aI0
aI0
aI0
aI0
aI0
aI0
aI0
ag456
aI0
aI0
aI0
aI0
aI0
aI0
aI0
ag107
ag283
ag156
ag495
aI0
aI0
aI0
aI0
aI0
aI0
aI0
aI0
aI0
aI0
aI0
aI0
aI0
ag595
aI0
aI0
aI0
aI0
ag239
aI0
aI0
aI0
aI0
aI0
aI0
ag207
aI0
aI0
aI0
aI0
aI0
aI0
aI0
aI0
aI0
aI0
ag322
aI0
aI0
ag0
(g105
g2
Ntp620
Rp621
(dp622
g109
I10
sg110
(lp623
(I4
I5
I0
tp624
a(I5
I5
I0
tp625
a(I5
I5
I1
tp626
a(I5
I5
I2
tp627
a(I5
I5
I3
tp628
a(I5
I5
I4
tp629
a(I6
I5
I4
tp630
a(I7
I5
I4
tp631
a(I8
I5
I4
tp632
a(I9
I5
I4
tp633
a(I10
I5
I4
tp634
a(I11
I5
I4
tp635
a(I11
I4
I4
tp636
a(I11
I4
I3
tp637
a(I11
I4
I2
tp638
a(I12
I4
I2
tp639
a(I12
I4
I1
tp640
a(I12
I4
I0
tp641
a(I12
I3
I0
tp642
asg153
I7
sg154
I29
sbag621
ag621
ag621
ag621
aI0
aI0
aI0
aI0
aI0
aI0
aI0
ag359
aI0
aI0
aI0
aI0
aI0
aI0
aI0
aI0
aI0
ag359
ag505
aI0
aI0
aI0
aI0
aI0
aI0
aI0
aI0
ag359
ag526
aI0
aI0
aI0
aI0
aI0
aI0
aI0
aI0
aI0
aI0
aI0
aI0
ag560
aI0
aI0
aI0
aI0
aI0
aI0
aI0
aI0
aI0
aI0
ag394
aI0
aI0
aI0
aI0
aI0
aI0
aI0
aI0
aI0
aI0
aI0
aI0
aI0
aI0
aI0
aI0
aI0
aI0
aI0
aI0
aI0
ag456
aI0
aI0
aI0
aI0
aI0
aI0
aI0
ag107
ag283
ag156
ag17
aI0
aI0
aI0
aI0
aI0
aI0
aI0
aI0
aI0
aI0
aI0
aI0
aI0
ag595
aI0
aI0
aI0
aI0
ag239
aI0
aI0
aI0
aI0
aI0
aI0
ag207
aI0
aI0
aI0
aI0
aI0
aI0
aI0
aI0
aI0
aI0
ag322
aI0
aI0
aI0
aI0
aI0
aI0
ag621
aI0
aI0
ag322
aI0
aI0
aI0
aI0
aI0
ag505
aI0
aI0
aI0
aI0
aI0
aI0
aI0
aI0
aI0
ag505
aI0
aI0
aI0
aI0
aI0
aI0
ag62
ag359
ag359
ag526
aI0
aI0
aI0
aI0
aI0
aI0
ag0
(g105
g2
Ntp643
Rp644
(dp645
g109
I22
sg110
(lp646
(I9
I10
I0
tp647
a(I8
I10
I0
tp648
a(I7
I10
I0
tp649
a(I6
I10
I0
tp650
a(I6
I9
I0
tp651
a(I6
I8
I0
tp652
asg153
I16
sg154
I28
sbaI0
aI0
aI0
aI0
aI0
ag560
aI0
aI0
aI0
ag644
aI0
aI0
aI0
aI0
aI0
aI0
ag394
aI0
aI0
aI0
aI0
aI0
aI0
aI0
aI0
aI0
aI0
aI0
aI0
aI0
aI0
aI0
aI0
aI0
aI0
aI0
aI0
aI0
ag456
aI0
aI0
aI0
aI0
aI0
aI0
aI0
ag107
ag283
ag156
aI0
aI0
aI0
aI0
aI0
aI0
aI0
aI0
aI0
aI0
aI0
aI0
aI0
aI0
ag595
aI0
aI0
aI0
aI0
ag239
aI0
aI0
aI0
aI0
aI0
aI0
ag207
aI0
aI0
aI0
aI0
aI0
aI0
aI0
aI0
aI0
aI0
aI0
aI0
aI0
aI0
aI0
aI0
aI0
ag621
aI0
aI0
ag322
aI0
aI0
aI0
aI0
aI0
ag505
aI0
aI0
aI0
ag322
aI0
aI0
aI0
aI0
aI0
aI0
aI0
aI0
aI0
aI0
aI0
aI0
aI0
aI0
aI0
ag526
aI0
aI0
aI0
aI0
aI0
aI0
aI0
aI0
aI0
aI0
aI0
aI0
ag560
aI0
aI0
aI0
ag644
aI0
aI0
aI0
aI0
aI0
aI0
ag394
aI0
aI0
aI0
aI0
aI0
aI0
aI0
aI0
aI0
aI0
aI0
aI0
aI0
aI0
aI0
aI0
aI0
aI0
aI0
aI0
aI0
ag456
aI0
aI0
aI0
aI0
aI0
aI0
aI0
ag107
ag283
ag156
aI0
aI0
aI0
aI0
aI0
aI0
aI0
aI0
aI0
aI0
aI0
aI0
aI0
aI0
ag595
aI0
aI0
aI0
aI0
ag239
aI0
aI0
aI0
aI0
aI0
aI0
ag207
aI0
aI0
aI0
ag38
ag456
ag456
ag456
ag456
ag456
ag456
ag456
ag456
ag456
ag505
ag505
ag505
ag505
ag621
aI0
aI0
aI0
aI0
ag456
aI0
aI0
aI0
ag505
aI0
aI0
aI0
ag322
aI0
ag456
aI0
aI0
aI0
aI0
aI0
aI0
aI0
ag322
aI0
ag456
aI0
aI0
aI0
ag526
aI0
aI0
aI0
aI0
aI0
ag456
aI0
aI0
aI0
aI0
aI0
aI0
ag560
aI0
aI0
ag456
ag644
aI0
aI0
aI0
aI0
aI0
aI0
ag394
aI0
ag456
aI0
aI0
aI0
aI0
aI0
aI0
aI0
aI0
aI0
ag456
aI0
aI0
aI0
aI0
aI0
aI0
aI0
aI0
aI0
ag456
aI0
aI0
aI0
aI0
aI0
aI0
aI0
ag107
ag283
ag156
aI0
aI0
aI0
aI0
aI0
aI0
aI0
aI0
aI0
aI0
aI0
aI0
aI0
aI0
ag595
aI0
aI0
aI0
aI0
ag239
aI0
aI0
aI0
aI0
ag207
ag207
ag207
aI0
aI0
aI0
aI0
aI0
aI0
aI0
aI0
aI0
aI0
aI0
aI0
aI0
aI0
aI0
aI0
aI0
ag621
aI0
ag560
aI0
aI0
aI0
aI0
aI0
aI0
aI0
aI0
aI0
ag560
aI0
aI0
aI0
aI0
aI0
aI0
aI0
aI0
aI0
ag560
ag322
aI0
aI0
ag65
ag526
ag526
ag526
aI0
aI0
ag560
aI0
aI0
aI0
aI0
aI0
aI0
aI0
aI0
aI0
ag560
aI0
aI0
aI0
ag80
ag0
(g105
g2
Ntp653
Rp654
(dp655
g109
I22
sg110
(lp656
(I9
I10
I0
tp657
a(I9
I10
I1
tp658
a(I9
I10
I2
tp659
a(I9
I10
I3
tp660
a(I10
I10
I3
tp661
a(I11
I10
I3
tp662
a(I12
I10
I3
tp663
a(I13
I10
I3
tp664
a(I13
I9
I3
tp665
a(I13
I8
I3
tp666
a(I13
I7
I3
tp667
a(I13
I7
I2
tp668
a(I13
I7
I1
tp669
a(I13
I7
I0
tp670
asg153
I13
sg154
I8
sbag654
ag654
aI0
aI0
aI0
ag394
aI0
aI0
aI0
aI0
aI0
aI0
aI0
aI0
aI0
aI0
aI0
aI0
aI0
aI0
aI0
aI0
aI0
aI0
aI0
aI0
aI0
aI0
ag239
ag239
ag239
ag239
ag239
ag239
ag239
ag107
ag283
ag156
ag20
ag0
(g105
g2
Ntp671
Rp672
(dp673
g109
I19
sg110
(lp674
(I15
I8
I0
tp675
a(I15
I8
I1
tp676
a(I15
I8
I2
tp677
a(I15
I8
I3
tp678
a(I15
I8
I4
tp679
a(I15
I8
I5
tp680
a(I14
I8
I5
tp681
a(I13
I8
I5
tp682
a(I12
I8
I5
tp683
a(I11
I8
I5
tp684
a(I10
I8
I5
tp685
a(I10
I7
I5
tp686
a(I10
I6
I5
tp687
a(I10
I5
I5
tp688
a(I10
I4
I5
tp689
a(I10
I3
I5
tp690
a(I10
I2
I5
tp691
a(I10
I1
I5
tp692
a(I10
I1
I4
tp693
a(I10
I1
I3
tp694
a(I10
I1
I2
tp695
a(I10
I1
I1
tp696
a(I10
I1
I0
tp697
asg153
I2
sg154
I13
sbag672
ag672
ag672
ag672
ag239
ag239
ag239
ag239
aI0
aI0
aI0
aI0
ag595
ag672
aI0
aI0
aI0
ag239
aI0
aI0
ag207
ag207
ag207
ag672
aI0
aI0
aI0
aI0
aI0
aI0
aI0
aI0
aI0
ag672
aI0
aI0
aI0
aI0
aI0
aI0
aI0
aI0
ag621
ag672
ag560
aI0
aI0
aI0
aI0
aI0
aI0
aI0
aI0
ag672
aI0
aI0
aI0
aI0
aI0
aI0
aI0
aI0
aI0
ag672
aI0
ag322
aI0
aI0
aI0
aI0
aI0
aI0
aI0
ag672
aI0
aI0
aI0
aI0
aI0
aI0
ag0
(g105
g2
Ntp698
Rp699
(dp700
g109
I22
sg110
(lp701
(I9
I10
I0
tp702
a(I10
I10
I0
tp703
a(I10
I10
I1
tp704
a(I10
I10
I2
tp705
a(I10
I9
I2
tp706
a(I11
I9
I2
tp707
a(I11
I8
I2
tp708
a(I11
I7
I2
tp709
a(I11
I6
I2
tp710
a(I11
I5
I2
tp711
a(I11
I5
I1
tp712
a(I11
I5
I0
tp713
asg153
I11
sg154
I14
sbaI0
aI0
aI0
aI0
aI0
aI0
aI0
ag699
ag699
ag699
ag654
aI0
aI0
aI0
ag394
aI0
aI0
aI0
aI0
aI0
aI0
aI0
aI0
aI0
aI0
aI0
aI0
aI0
aI0
aI0
aI0
aI0
aI0
aI0
aI0
aI0
aI0
aI0
aI0
aI0
aI0
aI0
aI0
aI0
ag107
ag283
ag156
aI0
aI0
aI0
aI0
aI0
aI0
aI0
aI0
aI0
aI0
ag560
ag560
ag560
ag560
ag595
aI0
aI0
aI0
aI0
aI0
aI0
aI0
ag207
ag560
ag560
ag560
ag560
aI0
aI0
aI0
aI0
aI0
ag621
ag621
ag621
aI0
ag560
aI0
aI0
aI0
ag47
ag699
ag699
aI0
ag621
aI0
ag560
aI0
aI0
aI0
aI0
aI0
ag699
aI0
aI0
aI0
aI0
aI0
aI0
aI0
ag0
(g105
g2
Ntp714
Rp715
(dp716
g109
I13
sg110
(lp717
(I13
I7
I0
tp718
a(I12
I7
I0
tp719
a(I11
I7
I0
tp720
a(I11
I8
I0
tp721
asg153
I18
sg154
I12
sbaI0
ag699
aI0
aI0
aI0
aI0
ag322
aI0
aI0
ag68
aI0
ag699
aI0
aI0
ag672
aI0
aI0
aI0
aI0
aI0
aI0
ag699
aI0
aI0
aI0
aI0
aI0
aI0
aI0
aI0
aI0
aI0
ag654
aI0
aI0
aI0
ag394
aI0
aI0
aI0
aI0
aI0
aI0
aI0
aI0
aI0
aI0
aI0
aI0
aI0
aI0
aI0
aI0
aI0
aI0
aI0
aI0
aI0
aI0
aI0
aI0
aI0
aI0
aI0
aI0
aI0
ag107
ag283
ag156
ag0
(g105
g2
Ntp722
Rp723
(dp724
g109
I3
sg110
(lp725
(I15
I1
I0
tp726
a(I14
I1
I0
tp727
a(I13
I1
I0
tp728
a(I12
I1
I0
tp729
a(I12
I2
I0
tp730
asg153
I5
sg154
I4
sbaI0
aI0
aI0
aI0
aI0
aI0
aI0
aI0
aI0
ag29
ag0
(g105
g2
Ntp731
Rp732
(dp733
g109
I19
sg110
(lp734
(I15
I8
I0
tp735
a(I15
I7
I0
tp736
a(I15
I7
I1
tp737
a(I15
I7
I2
tp738
a(I15
I7
I3
tp739
a(I15
I6
I3
tp740
a(I14
I6
I3
tp741
a(I14
I5
I3
tp742
a(I13
I5
I3
tp743
a(I13
I4
I3
tp744
a(I12
I4
I3
tp745
a(I12
I3
I3
tp746
a(I12
I2
I3
tp747
a(I12
I2
I2
tp748
a(I12
I2
I1
tp749
a(I12
I2
I0
tp750
asg153
I5
sg154
I22
sbag732
ag732
ag595
aI0
aI0
aI0
aI0
aI0
ag35
ag207
ag207
ag732
aI0
aI0
aI0
aI0
aI0
aI0
ag621
ag621
ag621
ag732
aI0
aI0
aI0
aI0
aI0
aI0
ag0
(g105
g2
Ntp751
Rp752
(dp753
g109
I11
sg110
(lp754
(I11
I5
I0
tp755
a(I12
I5
I0
tp756
a(I12
I5
I1
tp757
a(I12
I5
I2
tp758
a(I12
I6
I2
tp759
a(I12
I7
I2
tp760
a(I12
I8
I2
tp761
a(I12
I9
I2
tp762
a(I12
I10
I2
tp763
a(I12
I11
I2
tp764
a(I12
I11
I1
tp765
a(I12
I11
I0
tp766
asg153
I24
sg154
I16
sbag752
ag752
aI0
aI0
aI0
aI0
aI0
aI0
aI0
aI0
aI0
ag752
aI0
aI0
aI0
aI0
aI0
aI0
aI0
ag715
aI0
ag752
aI0
aI0
aI0
aI0
ag322
aI0
aI0
aI0
aI0
ag752
aI0
aI0
ag672
aI0
aI0
aI0
aI0
aI0
aI0
ag752
aI0
aI0
aI0
aI0
aI0
aI0
aI0
aI0
aI0
ag752
ag654
aI0
aI0
aI0
ag394
aI0
aI0
ag86
ag752
ag752
aI0
aI0
aI0
aI0
aI0
aI0
aI0
aI0
aI0
aI0
aI0
aI0
aI0
aI0
aI0
aI0
aI0
aI0
aI0
aI0
aI0
aI0
aI0
aI0
ag107
ag283
ag156
ag723
aI0
aI0
aI0
aI0
aI0
aI0
aI0
aI0
aI0
aI0
aI0
aI0
aI0
ag595
aI0
aI0
aI0
aI0
aI0
ag0
(g105
g2
Ntp767
Rp768
(dp769
g109
I7
sg110
(lp770
(I12
I3
I0
tp771
a(I13
I3
I0
tp772
a(I13
I4
I0
tp773
a(I13
I5
I0
tp774
a(I13
I6
I0
tp775
a(I13
I7
I0
tp776
asg153
I13
sg154
I5
sbaI0
aI0
aI0
aI0
aI0
aI0
aI0
aI0
aI0
ag768
aI0
aI0
ag732
aI0
aI0
aI0
aI0
aI0
aI0
ag768
aI0
aI0
ag732
aI0
aI0
aI0
aI0
aI0
aI0
ag768
aI0
aI0
aI0
aI0
aI0
aI0
aI0
aI0
aI0
ag53
ag654
ag654
ag654
aI0
aI0
aI0
ag322
aI0
aI0
aI0
aI0
aI0
ag654
aI0
ag672
aI0
aI0
aI0
aI0
aI0
aI0
aI0
ag654
aI0
aI0
aI0
aI0
aI0
aI0
aI0
aI0
aI0
ag654
aI0
aI0
aI0
ag394
aI0
aI0
aI0
aI0
aI0
aI0
aI0
aI0
aI0
aI0
aI0
aI0
aI0
aI0
aI0
aI0
aI0
aI0
aI0
aI0
aI0
aI0
aI0
aI0
aI0
aI0
ag107
ag107
ag107
ag107
ag283
ag156
ag723
aI0
aI0
aI0
aI0
aI0
aI0
aI0
ag283
aI0
ag32
ag0
(g105
g2
Ntp777
Rp778
(dp779
g109
I6
sg110
(lp780
(I14
I2
I0
tp781
a(I14
I2
I1
tp782
a(I14
I2
I2
tp783
a(I14
I2
I3
tp784
a(I14
I3
I3
tp785
a(I15
I3
I3
tp786
a(I16
I3
I3
tp787
a(I16
I4
I3
tp788
a(I16
I5
I3
tp789
a(I16
I6
I3
tp790
a(I16
I7
I3
tp791
a(I16
I7
I2
tp792
a(I16
I7
I1
tp793
a(I16
I7
I0
tp794
asg153
I14
sg154
I25
sbag778
ag778
ag595
aI0
aI0
aI0
aI0
aI0
aI0
aI0
aI0
ag778
aI0
aI0
aI0
aI0
aI0
aI0
aI0
aI0
aI0
aI0
aI0
aI0
aI0
aI0
aI0
aI0
aI0
aI0
aI0
ag732
aI0
aI0
aI0
aI0
aI0
aI0
aI0
aI0
aI0
ag732
aI0
aI0
aI0
aI0
aI0
aI0
ag322
ag322
ag322
ag322
ag322
ag322
ag322
ag322
aI0
aI0
aI0
aI0
aI0
aI0
aI0
ag672
aI0
aI0
aI0
aI0
aI0
aI0
aI0
aI0
aI0
aI0
aI0
aI0
aI0
aI0
aI0
aI0
aI0
aI0
aI0
aI0
aI0
ag394
aI0
aI0
aI0
aI0
aI0
aI0
aI0
aI0
aI0
aI0
aI0
aI0
aI0
aI0
aI0
aI0
aI0
aI0
aI0
aI0
aI0
aI0
ag107
ag107
ag107
ag107
ag107
ag156
ag156
ag156
ag156
ag156
ag23
ag156
ag156
ag156
ag156
ag156
aI0
aI0
ag283
aI0
ag595
ag595
ag595
ag595
ag595
aI0
aI0
aI0
aI0
aI0
aI0
aI0
aI0
ag778
aI0
aI0
aI0
aI0
aI0
aI0
aI0
aI0
aI0
aI0
aI0
aI0
aI0
aI0
aI0
aI0
aI0
aI0
aI0
aI0
aI0
aI0
aI0
aI0
aI0
aI0
aI0
aI0
aI0
ag732
aI0
aI0
aI0
aI0
aI0
aI0
ag732
ag732
ag732
ag732
aI0
aI0
aI0
aI0
aI0
aI0
ag71
ag672
ag672
ag672
ag672
ag672
aI0
aI0
aI0
aI0
ag394
ag394
ag394
ag394
ag394
ag394
ag394
ag394
aI0
aI0
aI0
aI0
aI0
aI0
aI0
aI0
aI0
ag394
aI0
aI0
aI0
aI0
aI0
aI0
aI0
aI0
aI0
aI0
aI0
aI0
aI0
aI0
aI0
aI0
aI0
aI0
aI0
aI0
aI0
aI0
aI0
aI0
aI0
aI0
aI0
aI0
aI0
aI0
aI0
aI0
ag283
ag283
ag283
ag283
ag283
ag283
ag283
ag283
ag283
aI0
aI0
aI0
aI0
aI0
aI0
aI0
aI0
aI0
aI0
aI0
aI0
aI0
aI0
ag778
aI0
aI0
aI0
aI0
aI0
aI0
aI0
aI0
aI0
ag778
aI0
aI0
aI0
aI0
aI0
aI0
ag50
aI0
aI0
ag778
aI0
aI0
aI0
aI0
aI0
aI0
aI0
aI0
aI0
ag778
aI0
aI0
aI0
aI0
aI0
aI0
ag56
ag778
ag778
ag778
aI0
aI0
aI0
aI0
aI0
aI0
aI0
aI0
aI0
aI0
aI0
aI0
aI0
aI0
aI0
aI0
aI0
aI0
aI0
aI0
aI0
aI0
aI0
aI0
aI0
aI0
aI0
aI0
aI0
aI0
aI0
aI0
aI0
aI0
aI0
aI0
aI0
aI0
aI0
aI0
aI0
aI0
aI0
aI0
aI0
aI0
aI0
aI0
aI0
aI0
aI0
aI0
aI0
aI0
aI0
aI0
aI0
aI0
aI0
aI0
aI0
aI0
aI0
aI0
aI0
aI0
aI0
aI0
aI0
aI0
aI0
aI0
aI0
aI0
aI0
aI0
aI0
aI0
aI0
aI0
aI0
aI0
aI0
aI0
aI0
aI0
aI0
aI0
aI0
aI0
aI0
aI0
aI0
aI0
aI0
aI0
aI0
aI0
aI0
aI0
aI0
aI0
aI0
aI0
aI0
aI0
aI0
aI0
aI0
aI0
aI0
aI0
aI0
aI0
aI0
aI0
aI0
aI0
aI0
aI0
aI0
aI0
aI0
aI0
aI0
aI0
aI0
aI0
aI0
aI0
aI0
aI0
aI0
aI0
aI0
aI0
aI0
aI0
aI0
aI0
aI0
aI0
aI0
aI0
aI0
aI0
aI0
aI0
aI0
aI0
aI0
aI0
aI0
aI0
aI0
aI0
aI0
aI0
aI0
aI0
aI0
aI0
aI0
aI0
aI0
aI0
aI0
aI0
aI0
aI0
aI0
aI0
aI0
aI0
aI0
aI0
aI0
aI0
aI0
aI0
aI0
aI0
aI0
aI0
aI0
aI0
atp795
bsS'x_dim'
p796
I18
sS'nets'
p797
(dp798
I0
g430
sI1
g0
(g105
g2
Ntp799
Rp800
(dp801
g109
I5
sg110
(lp802
(I12
I2
I0
tp803
a(I12
I3
I0
tp804
asg153
I7
sg154
I1
sbsI2
g495
sI3
g544
sI4
g723
sI5
g768
sI6
g156
sI7
g456
sI8
g654
sI9
g526
sI10
g376
sI11
g505
sI12
g715
sI13
g672
sI14
g699
sI15
g551
sI16
g752
sI17
g107
sI18
g239
sI19
g595
sI20
g394
sI21
g359
sI22
g732
sI23
g283
sI24
g560
sI25
g778
sI26
g207
sI27
g322
sI28
g644
sI29
g621
ssb.