ccopy_reg
_reconstructor
p0
(cmodules.Objects
Board
p1
c__builtin__
object
p2
Ntp3
Rp4
(dp5
S'gates'
p6
(dp7
I0
(I1
I1
I0
tp8
sI1
(I6
I1
I0
tp9
sI2
(I10
I1
I0
tp10
sI3
(I15
I1
I0
tp11
sI4
(I3
I2
I0
tp12
sI5
(I12
I2
I0
tp13
sI6
(I14
I2
I0
tp14
sI7
(I1
I3
I0
tp15
sI8
(I6
I3
I0
tp16
sI9
(I12
I3
I0
tp17
sI10
(I15
I3
I0
tp18
sI11
(I2
I4
I0
tp19
sI12
(I8
I4
I0
tp20
sI13
(I1
I5
I0
tp21
sI14
(I4
I5
I0
tp22
sI15
(I10
I5
I0
tp23
sI16
(I11
I5
I0
tp24
sI17
(I16
I5
I0
tp25
sI18
(I2
I6
I0
tp26
sI19
(I7
I6
I0
tp27
sI20
(I10
I6
I0
tp28
sI21
(I12
I6
I0
tp29
sI22
(I15
I6
I0
tp30
sI23
(I6
I7
I0
tp31
sI24
(I13
I7
I0
tp32
sI25
(I16
I7
I0
tp33
sI26
(I6
I8
I0
tp34
sI27
(I7
I8
I0
tp35
sI28
(I9
I8
I0
tp36
sI29
(I11
I8
I0
tp37
sI30
(I15
I8
I0
tp38
sI31
(I1
I9
I0
tp39
sI32
(I6
I9
I0
tp40
sI33
(I9
I10
I0
tp41
sI34
(I12
I11
I0
tp42
sI35
(I2
I12
I0
tp43
sI36
(I4
I12
I0
tp44
sI37
(I7
I12
I0
tp45
sI38
(I10
I12
I0
tp46
sI39
(I15
I12
I0
tp47
sI40
(I9
I13
I0
tp48
sI41
(I13
I13
I0
tp49
sI42
(I4
I14
I0
tp50
sI43
(I6
I14
I0
tp51
sI44
(I1
I15
I0
tp52
sI45
(I6
I15
I0
tp53
sI46
(I8
I15
I0
tp54
sI47
(I11
I15
I0
tp55
sI48
(I13
I15
I0
tp56
sI49
(I16
I15
I0
tp57
ssS'y_dim'
p58
I17
sS'z_dim'
p59
I10
sS'board'
p60
cnumpy.core.multiarray
_reconstruct
p61
(cnumpy
ndarray
p62
(I0
tp63
S'b'
p64
tp65
Rp66
(I1
(I18
I17
I10
tp67
cnumpy
dtype
p68
(S'O8'
p69
I0
I1
tp70
Rp71
(I3
S'|'
p72
NNNI-1
I-1
I63
tp73
bI00
(lp74
I0
aI0
aI0
aI0
aI0
aI0
aI0
aI0
aI0
aI0
ag0
(cmodules.Objects
Net
p75
g2
Ntp76
Rp77
(dp78
S'start_gate'
p79
g54
sS'path'
p80
(lp81
(I8
I15
I0
tp82
a(I8
I15
I1
tp83
a(I8
I15
I2
tp84
a(I8
I15
I3
tp85
a(I8
I15
I4
tp86
a(I8
I15
I5
tp87
a(I8
I15
I6
tp88
a(I8
I15
I7
tp89
a(I8
I15
I8
tp90
a(I7
I15
I8
tp91
a(I6
I15
I8
tp92
a(I5
I15
I8
tp93
a(I4
I15
I8
tp94
a(I3
I15
I8
tp95
a(I3
I14
I8
tp96
a(I3
I14
I9
tp97
a(I2
I14
I9
tp98
a(I1
I14
I9
tp99
a(I0
I14
I9
tp100
a(I0
I13
I9
tp101
a(I0
I12
I9
tp102
a(I0
I11
I9
tp103
a(I0
I10
I9
tp104
a(I0
I9
I9
tp105
a(I0
I8
I9
tp106
a(I0
I7
I9
tp107
a(I0
I6
I9
tp108
a(I0
I5
I9
tp109
a(I0
I4
I9
tp110
a(I0
I3
I9
tp111
a(I0
I2
I9
tp112
a(I0
I1
I9
tp113
a(I0
I1
I8
tp114
a(I0
I1
I7
tp115
a(I0
I1
I6
tp116
a(I0
I1
I5
tp117
a(I0
I1
I4
tp118
a(I0
I1
I3
tp119
a(I0
I1
I2
tp120
a(I0
I1
I1
tp121
a(I0
I1
I0
tp122
ag8
asS'end_gate'
p123
g8
sS'net_id'
p124
I41
sbag77
ag77
ag77
ag77
ag77
ag77
ag77
ag77
ag77
aI0
aI0
aI0
aI0
aI0
aI0
aI0
aI0
aI0
ag77
ag0
(g75
g2
Ntp125
Rp126
(dp127
g79
g38
sg80
(lp128
(I15
I8
I0
tp129
a(I14
I8
I0
tp130
a(I14
I8
I1
tp131
a(I14
I8
I2
tp132
a(I14
I8
I3
tp133
a(I14
I8
I4
tp134
a(I14
I7
I4
tp135
a(I14
I7
I5
tp136
a(I14
I7
I6
tp137
a(I13
I7
I6
tp138
a(I13
I7
I7
tp139
a(I13
I7
I8
tp140
a(I13
I6
I8
tp141
a(I13
I5
I8
tp142
a(I12
I5
I8
tp143
a(I11
I5
I8
tp144
a(I10
I5
I8
tp145
a(I9
I5
I8
tp146
a(I8
I5
I8
tp147
a(I7
I5
I8
tp148
a(I6
I5
I8
tp149
a(I6
I4
I8
tp150
a(I5
I4
I8
tp151
a(I4
I4
I8
tp152
a(I3
I4
I8
tp153
a(I2
I4
I8
tp154
a(I1
I4
I8
tp155
a(I0
I4
I8
tp156
a(I0
I3
I8
tp157
a(I0
I3
I7
tp158
a(I0
I3
I6
tp159
a(I0
I3
I5
tp160
a(I0
I3
I4
tp161
a(I0
I3
I3
tp162
a(I0
I3
I2
tp163
a(I0
I3
I1
tp164
a(I0
I3
I0
tp165
ag15
asg123
g15
sg124
I39
sbag126
ag126
ag126
ag126
ag126
ag126
ag126
ag126
ag77
aI0
aI0
aI0
ag0
(g75
g2
Ntp166
Rp167
(dp168
g79
g46
sg80
(lp169
(I10
I12
I0
tp170
a(I10
I11
I0
tp171
a(I10
I11
I1
tp172
a(I10
I11
I2
tp173
a(I10
I11
I3
tp174
a(I10
I11
I4
tp175
a(I10
I11
I5
tp176
a(I10
I12
I5
tp177
a(I10
I13
I5
tp178
a(I10
I13
I6
tp179
a(I10
I13
I7
tp180
a(I10
I13
I8
tp181
a(I9
I13
I8
tp182
a(I8
I13
I8
tp183
a(I7
I13
I8
tp184
a(I6
I13
I8
tp185
a(I5
I13
I8
tp186
a(I4
I13
I8
tp187
a(I3
I13
I8
tp188
a(I2
I13
I8
tp189
a(I1
I13
I8
tp190
a(I0
I13
I8
tp191
a(I0
I12
I8
tp192
a(I0
I11
I8
tp193
a(I0
I10
I8
tp194
a(I0
I9
I8
tp195
a(I0
I8
I8
tp196
a(I0
I7
I8
tp197
a(I0
I6
I8
tp198
a(I0
I5
I8
tp199
a(I0
I5
I7
tp200
a(I0
I4
I7
tp201
a(I0
I4
I6
tp202
a(I0
I4
I5
tp203
a(I0
I4
I4
tp204
a(I0
I4
I3
tp205
a(I1
I4
I3
tp206
a(I1
I4
I2
tp207
a(I1
I4
I1
tp208
a(I1
I4
I0
tp209
ag15
asg123
g15
sg124
I56
sbag167
ag167
ag167
ag167
ag126
ag77
ag0
(g75
g2
Ntp210
Rp211
(dp212
g79
g21
sg80
(lp213
(I1
I5
I0
tp214
a(I0
I5
I0
tp215
a(I0
I5
I1
tp216
a(I0
I5
I2
tp217
a(I0
I5
I3
tp218
a(I0
I5
I4
tp219
a(I0
I5
I5
tp220
a(I0
I5
I6
tp221
a(I0
I6
I6
tp222
a(I0
I7
I6
tp223
a(I0
I8
I6
tp224
a(I0
I9
I6
tp225
a(I0
I10
I6
tp226
a(I0
I11
I6
tp227
a(I0
I12
I6
tp228
a(I0
I13
I6
tp229
a(I0
I14
I6
tp230
a(I1
I14
I6
tp231
a(I2
I14
I6
tp232
a(I3
I14
I6
tp233
a(I3
I15
I6
tp234
a(I4
I15
I6
tp235
a(I5
I15
I6
tp236
a(I5
I15
I5
tp237
a(I5
I15
I4
tp238
a(I5
I15
I3
tp239
a(I5
I15
I2
tp240
a(I5
I15
I1
tp241
a(I5
I15
I0
tp242
ag53
asg123
g53
sg124
I58
sbag211
ag211
ag211
ag211
ag211
ag211
ag167
ag167
ag77
aI0
aI0
aI0
aI0
aI0
aI0
ag211
aI0
ag167
ag77
aI0
aI0
aI0
aI0
aI0
aI0
ag211
aI0
ag167
ag77
aI0
aI0
aI0
aI0
aI0
aI0
ag211
aI0
ag167
ag77
ag0
(g75
g2
Ntp243
Rp244
(dp245
g79
g51
sg80
(lp246
(I6
I14
I0
tp247
a(I6
I13
I0
tp248
a(I6
I13
I1
tp249
a(I6
I13
I2
tp250
a(I6
I13
I3
tp251
a(I6
I13
I4
tp252
a(I5
I13
I4
tp253
a(I4
I13
I4
tp254
a(I3
I13
I4
tp255
a(I2
I13
I4
tp256
a(I1
I13
I4
tp257
a(I0
I13
I4
tp258
a(I0
I12
I4
tp259
a(I0
I11
I4
tp260
a(I0
I10
I4
tp261
a(I0
I9
I4
tp262
a(I0
I9
I3
tp263
a(I0
I9
I2
tp264
a(I0
I9
I1
tp265
a(I0
I9
I0
tp266
ag39
asg123
g39
sg124
I63
sbag244
ag244
ag244
ag244
aI0
ag211
aI0
ag167
ag77
aI0
aI0
aI0
aI0
ag244
aI0
ag211
aI0
ag167
ag77
aI0
aI0
aI0
aI0
ag244
aI0
ag211
ag0
(g75
g2
Ntp267
Rp268
(dp269
g79
g30
sg80
(lp270
(I15
I6
I0
tp271
a(I15
I7
I0
tp272
a(I15
I7
I1
tp273
a(I15
I7
I2
tp274
a(I14
I7
I2
tp275
a(I14
I7
I3
tp276
a(I14
I6
I3
tp277
a(I14
I6
I4
tp278
a(I14
I6
I5
tp279
a(I13
I6
I5
tp280
a(I12
I6
I5
tp281
a(I12
I7
I5
tp282
a(I11
I7
I5
tp283
a(I11
I7
I6
tp284
a(I11
I7
I7
tp285
a(I11
I8
I7
tp286
a(I11
I9
I7
tp287
a(I11
I10
I7
tp288
a(I11
I10
I8
tp289
a(I11
I11
I8
tp290
a(I10
I11
I8
tp291
a(I9
I11
I8
tp292
a(I8
I11
I8
tp293
a(I7
I11
I8
tp294
a(I6
I11
I8
tp295
a(I5
I11
I8
tp296
a(I4
I11
I8
tp297
a(I3
I11
I8
tp298
a(I2
I11
I8
tp299
a(I1
I11
I8
tp300
a(I1
I11
I7
tp301
a(I0
I11
I7
tp302
a(I0
I12
I7
tp303
a(I0
I13
I7
tp304
a(I0
I14
I7
tp305
a(I0
I15
I7
tp306
a(I0
I15
I6
tp307
a(I0
I15
I5
tp308
a(I0
I15
I4
tp309
a(I0
I15
I3
tp310
a(I0
I15
I2
tp311
a(I0
I15
I1
tp312
a(I0
I15
I0
tp313
ag52
asg123
g52
sg124
I62
sbag167
ag77
aI0
aI0
aI0
aI0
ag244
aI0
ag211
ag268
ag167
ag77
aI0
aI0
aI0
aI0
ag244
aI0
ag211
ag268
ag167
ag77
aI0
aI0
aI0
aI0
aI0
aI0
ag211
ag268
aI0
ag77
ag268
ag268
ag268
ag268
ag268
ag268
ag268
ag268
aI0
aI0
aI0
aI0
aI0
aI0
aI0
aI0
aI0
aI0
aI0
aI0
ag0
(g75
g2
Ntp314
Rp315
(dp316
g79
g8
sg80
(lp317
(I1
I1
I0
tp318
a(I1
I0
I0
tp319
a(I1
I0
I1
tp320
a(I1
I0
I2
tp321
a(I1
I0
I3
tp322
a(I1
I0
I4
tp323
a(I2
I0
I4
tp324
a(I2
I0
I5
tp325
a(I2
I0
I6
tp326
a(I2
I0
I7
tp327
a(I2
I0
I8
tp328
a(I3
I0
I8
tp329
a(I4
I0
I8
tp330
a(I5
I0
I8
tp331
a(I6
I0
I8
tp332
a(I7
I0
I8
tp333
a(I8
I0
I8
tp334
a(I9
I0
I8
tp335
a(I10
I0
I8
tp336
a(I10
I1
I8
tp337
a(I10
I2
I8
tp338
a(I10
I3
I8
tp339
a(I10
I4
I8
tp340
a(I10
I4
I7
tp341
a(I10
I5
I7
tp342
a(I10
I6
I7
tp343
a(I10
I7
I7
tp344
a(I10
I8
I7
tp345
a(I10
I9
I7
tp346
a(I10
I10
I7
tp347
a(I10
I11
I7
tp348
a(I11
I11
I7
tp349
a(I11
I12
I7
tp350
a(I11
I13
I7
tp351
a(I11
I13
I8
tp352
a(I12
I13
I8
tp353
a(I13
I13
I8
tp354
a(I14
I13
I8
tp355
a(I15
I13
I8
tp356
a(I16
I13
I8
tp357
a(I16
I13
I7
tp358
a(I17
I13
I7
tp359
a(I17
I12
I7
tp360
a(I17
I12
I6
tp361
a(I17
I11
I6
tp362
a(I17
I11
I5
tp363
a(I16
I11
I5
tp364
a(I15
I11
I5
tp365
a(I15
I11
I4
tp366
a(I15
I11
I3
tp367
a(I15
I11
I2
tp368
a(I15
I11
I1
tp369
a(I15
I11
I0
tp370
ag47
asg123
g47
sg124
I69
sbag315
ag315
ag315
ag315
ag0
(g75
g2
Ntp371
Rp372
(dp373
g79
g8
sg80
(lp374
(I1
I1
I0
tp375
a(I1
I1
I1
tp376
a(I1
I1
I2
tp377
a(I1
I1
I3
tp378
a(I1
I1
I4
tp379
a(I1
I1
I5
tp380
a(I1
I0
I5
tp381
a(I1
I0
I6
tp382
a(I1
I0
I7
tp383
a(I1
I0
I8
tp384
a(I1
I0
I9
tp385
a(I2
I0
I9
tp386
a(I3
I0
I9
tp387
a(I4
I0
I9
tp388
a(I5
I0
I9
tp389
a(I6
I0
I9
tp390
a(I7
I0
I9
tp391
a(I8
I0
I9
tp392
a(I9
I0
I9
tp393
a(I10
I0
I9
tp394
a(I11
I0
I9
tp395
a(I12
I0
I9
tp396
a(I13
I0
I9
tp397
a(I14
I0
I9
tp398
a(I15
I0
I9
tp399
a(I15
I0
I8
tp400
a(I15
I0
I7
tp401
a(I15
I0
I6
tp402
a(I15
I0
I5
tp403
a(I15
I0
I4
tp404
a(I15
I0
I3
tp405
a(I15
I0
I2
tp406
a(I15
I0
I1
tp407
a(I15
I0
I0
tp408
ag11
asg123
g11
sg124
I1
sbag372
ag372
ag372
ag372
ag0
(cmodules.Objects
Gate
p409
g2
Ntp410
Rp411
(dp412
S'gate_id'
p413
I0
sS'x'
p414
I1
sS'z'
p415
I0
sS'y'
p416
I1
sbag372
ag372
ag372
ag372
ag372
aI0
aI0
aI0
aI0
aI0
aI0
aI0
aI0
aI0
aI0
aI0
aI0
aI0
aI0
ag0
(g409
g2
Ntp417
Rp418
(dp419
g413
I7
sg414
I1
sg415
I0
sg416
I3
sbag0
(g75
g2
Ntp420
Rp421
(dp422
g79
g41
sg80
(lp423
(I9
I10
I0
tp424
a(I9
I11
I0
tp425
a(I9
I11
I1
tp426
a(I9
I11
I2
tp427
a(I9
I11
I3
tp428
a(I9
I11
I4
tp429
a(I8
I11
I4
tp430
a(I8
I11
I5
tp431
a(I8
I11
I6
tp432
a(I8
I11
I7
tp433
a(I7
I11
I7
tp434
a(I6
I11
I7
tp435
a(I5
I11
I7
tp436
a(I4
I11
I7
tp437
a(I3
I11
I7
tp438
a(I3
I10
I7
tp439
a(I2
I10
I7
tp440
a(I1
I10
I7
tp441
a(I1
I9
I7
tp442
a(I1
I8
I7
tp443
a(I1
I7
I7
tp444
a(I1
I6
I7
tp445
a(I1
I5
I7
tp446
a(I1
I4
I7
tp447
a(I1
I3
I7
tp448
a(I1
I3
I6
tp449
a(I1
I3
I5
tp450
a(I1
I3
I4
tp451
a(I1
I3
I3
tp452
a(I1
I3
I2
tp453
a(I1
I3
I1
tp454
ag15
asg123
g15
sg124
I21
sbag421
ag421
ag421
ag421
ag421
ag421
aI0
aI0
ag167
ag167
ag167
ag167
ag0
(g75
g2
Ntp455
Rp456
(dp457
g79
g9
sg80
(lp458
(I6
I1
I0
tp459
a(I6
I2
I0
tp460
a(I6
I2
I1
tp461
a(I6
I2
I2
tp462
a(I6
I2
I3
tp463
a(I6
I2
I4
tp464
a(I5
I2
I4
tp465
a(I4
I2
I4
tp466
a(I4
I3
I4
tp467
a(I4
I4
I4
tp468
a(I3
I4
I4
tp469
a(I2
I4
I4
tp470
a(I1
I4
I4
tp471
a(I1
I5
I4
tp472
a(I1
I5
I3
tp473
a(I1
I5
I2
tp474
a(I1
I5
I1
tp475
ag21
asg123
g21
sg124
I44
sbaI0
aI0
ag421
ag126
aI0
ag0
(g409
g2
Ntp476
Rp477
(dp478
g413
I13
sg414
I1
sg415
I0
sg416
I5
sbag456
ag456
ag456
ag456
aI0
aI0
ag421
aI0
aI0
aI0
aI0
aI0
aI0
aI0
aI0
aI0
ag421
aI0
aI0
aI0
aI0
aI0
aI0
aI0
aI0
aI0
ag421
aI0
aI0
aI0
aI0
aI0
aI0
aI0
aI0
aI0
ag421
aI0
aI0
ag0
(g409
g2
Ntp479
Rp480
(dp481
g413
I31
sg414
I1
sg415
I0
sg416
I9
sbag0
(g75
g2
Ntp482
Rp483
(dp484
g79
g41
sg80
(lp485
(I9
I10
I0
tp486
a(I8
I10
I0
tp487
a(I8
I10
I1
tp488
a(I8
I10
I2
tp489
a(I8
I10
I3
tp490
a(I8
I10
I4
tp491
a(I7
I10
I4
tp492
a(I6
I10
I4
tp493
a(I5
I10
I4
tp494
a(I5
I9
I4
tp495
a(I4
I9
I4
tp496
a(I3
I9
I4
tp497
a(I2
I9
I4
tp498
a(I1
I9
I4
tp499
a(I1
I9
I3
tp500
a(I1
I9
I2
tp501
a(I1
I9
I1
tp502
ag39
asg123
g39
sg124
I8
sbag483
ag483
ag483
aI0
aI0
ag421
aI0
aI0
aI0
aI0
aI0
aI0
aI0
aI0
aI0
ag421
aI0
aI0
aI0
aI0
aI0
aI0
aI0
aI0
aI0
ag268
ag268
aI0
aI0
aI0
aI0
aI0
aI0
aI0
aI0
aI0
aI0
aI0
aI0
aI0
aI0
aI0
ag244
aI0
aI0
aI0
ag167
aI0
aI0
aI0
aI0
aI0
aI0
aI0
ag211
aI0
aI0
ag77
ag0
(g409
g2
Ntp503
Rp504
(dp505
g413
I44
sg414
I1
sg415
I0
sg416
I15
sbag0
(g75
g2
Ntp506
Rp507
(dp508
g79
g52
sg80
(lp509
(I1
I15
I0
tp510
a(I1
I15
I1
tp511
a(I1
I15
I2
tp512
a(I1
I15
I3
tp513
a(I1
I15
I4
tp514
a(I1
I15
I5
tp515
a(I1
I15
I6
tp516
a(I1
I15
I7
tp517
a(I1
I15
I8
tp518
a(I1
I15
I9
tp519
a(I2
I15
I9
tp520
a(I3
I15
I9
tp521
a(I4
I15
I9
tp522
a(I5
I15
I9
tp523
a(I6
I15
I9
tp524
a(I7
I15
I9
tp525
a(I8
I15
I9
tp526
a(I8
I14
I9
tp527
a(I8
I13
I9
tp528
a(I8
I12
I9
tp529
a(I8
I11
I9
tp530
a(I8
I10
I9
tp531
a(I8
I9
I9
tp532
a(I8
I8
I9
tp533
a(I8
I8
I8
tp534
a(I8
I8
I7
tp535
a(I8
I8
I6
tp536
a(I8
I8
I5
tp537
a(I8
I8
I4
tp538
a(I8
I8
I3
tp539
a(I8
I8
I2
tp540
a(I8
I8
I1
tp541
a(I9
I8
I1
tp542
ag36
asg123
g36
sg124
I6
sbag507
ag507
ag507
ag507
ag507
ag507
ag507
ag507
ag0
(g75
g2
Ntp543
Rp544
(dp545
g79
g52
sg80
(lp546
(I1
I15
I0
tp547
a(I1
I16
I0
tp548
a(I1
I16
I1
tp549
a(I1
I16
I2
tp550
a(I1
I16
I3
tp551
a(I1
I16
I4
tp552
a(I1
I16
I5
tp553
a(I1
I16
I6
tp554
a(I1
I16
I7
tp555
a(I1
I16
I8
tp556
a(I1
I16
I9
tp557
a(I2
I16
I9
tp558
a(I3
I16
I9
tp559
a(I4
I16
I9
tp560
a(I5
I16
I9
tp561
a(I6
I16
I9
tp562
a(I7
I16
I9
tp563
a(I8
I16
I9
tp564
a(I9
I16
I9
tp565
a(I10
I16
I9
tp566
a(I11
I16
I9
tp567
a(I12
I16
I9
tp568
a(I12
I15
I9
tp569
a(I12
I14
I9
tp570
a(I12
I13
I9
tp571
a(I12
I12
I9
tp572
a(I12
I11
I9
tp573
a(I12
I11
I8
tp574
a(I12
I11
I7
tp575
a(I12
I11
I6
tp576
a(I12
I11
I5
tp577
a(I12
I11
I4
tp578
a(I12
I11
I3
tp579
a(I12
I11
I2
tp580
a(I12
I11
I1
tp581
ag42
asg123
g42
sg124
I16
sbag544
ag544
ag544
ag544
ag544
ag544
ag544
ag544
ag544
aI0
aI0
aI0
aI0
ag315
ag315
ag315
ag315
ag315
ag372
aI0
aI0
aI0
aI0
aI0
aI0
aI0
aI0
aI0
aI0
aI0
aI0
aI0
aI0
aI0
aI0
aI0
aI0
aI0
ag0
(g75
g2
Ntp582
Rp583
(dp584
g79
g45
sg80
(lp585
(I7
I12
I0
tp586
a(I6
I12
I0
tp587
a(I6
I11
I0
tp588
a(I5
I11
I0
tp589
a(I5
I10
I0
tp590
a(I5
I9
I0
tp591
a(I5
I9
I1
tp592
a(I4
I9
I1
tp593
a(I4
I9
I2
tp594
a(I3
I9
I2
tp595
a(I3
I9
I3
tp596
a(I2
I9
I3
tp597
a(I2
I8
I3
tp598
a(I2
I7
I3
tp599
a(I2
I7
I4
tp600
a(I2
I7
I5
tp601
a(I2
I7
I6
tp602
a(I2
I7
I7
tp603
a(I2
I7
I8
tp604
a(I2
I6
I8
tp605
a(I2
I5
I8
tp606
a(I2
I5
I9
tp607
a(I2
I4
I9
tp608
a(I2
I3
I9
tp609
a(I2
I2
I9
tp610
a(I3
I2
I9
tp611
a(I3
I1
I9
tp612
a(I4
I1
I9
tp613
a(I5
I1
I9
tp614
a(I6
I1
I9
tp615
a(I7
I1
I9
tp616
a(I8
I1
I9
tp617
a(I8
I1
I8
tp618
a(I8
I1
I7
tp619
a(I8
I1
I6
tp620
a(I8
I1
I5
tp621
a(I8
I1
I4
tp622
a(I8
I1
I3
tp623
a(I9
I1
I3
tp624
a(I9
I1
I2
tp625
a(I9
I1
I1
tp626
a(I9
I1
I0
tp627
ag10
asg123
g10
sg124
I65
sbag0
(g75
g2
Ntp628
Rp629
(dp630
g79
g19
sg80
(lp631
(I2
I4
I0
tp632
a(I2
I3
I0
tp633
a(I2
I3
I1
tp634
a(I2
I3
I2
tp635
a(I2
I3
I3
tp636
a(I2
I3
I4
tp637
a(I2
I3
I5
tp638
a(I2
I3
I6
tp639
a(I2
I3
I7
tp640
a(I2
I3
I8
tp641
a(I3
I3
I8
tp642
a(I4
I3
I8
tp643
a(I5
I3
I8
tp644
a(I5
I3
I9
tp645
a(I6
I3
I9
tp646
a(I7
I3
I9
tp647
a(I8
I3
I9
tp648
a(I9
I3
I9
tp649
a(I10
I3
I9
tp650
a(I11
I3
I9
tp651
a(I12
I3
I9
tp652
a(I13
I3
I9
tp653
a(I14
I3
I9
tp654
a(I15
I3
I9
tp655
a(I16
I3
I9
tp656
a(I17
I3
I9
tp657
a(I17
I3
I8
tp658
a(I17
I3
I7
tp659
a(I17
I3
I6
tp660
a(I17
I3
I5
tp661
a(I17
I3
I4
tp662
a(I17
I3
I3
tp663
a(I17
I3
I2
tp664
a(I17
I3
I1
tp665
a(I16
I3
I1
tp666
a(I15
I3
I1
tp667
ag18
asg123
g18
sg124
I29
sbag629
ag629
ag629
ag629
ag629
ag629
ag629
ag629
ag583
ag0
(g409
g2
Ntp668
Rp669
(dp670
g413
I11
sg414
I2
sg415
I0
sg416
I4
sbag0
(g75
g2
Ntp671
Rp672
(dp673
g79
g9
sg80
(lp674
(I6
I1
I0
tp675
a(I6
I1
I1
tp676
a(I6
I1
I2
tp677
a(I6
I1
I3
tp678
a(I5
I1
I3
tp679
a(I4
I1
I3
tp680
a(I3
I1
I3
tp681
a(I3
I2
I3
tp682
a(I3
I3
I3
tp683
a(I3
I4
I3
tp684
a(I2
I4
I3
tp685
a(I2
I4
I2
tp686
a(I2
I4
I1
tp687
ag19
asg123
g19
sg124
I24
sbag672
ag672
ag456
aI0
aI0
aI0
ag126
ag583
ag0
(g75
g2
Ntp688
Rp689
(dp690
g79
g19
sg80
(lp691
(I2
I4
I0
tp692
a(I2
I5
I0
tp693
a(I2
I5
I1
tp694
a(I2
I5
I2
tp695
a(I2
I5
I3
tp696
a(I2
I5
I4
tp697
a(I2
I5
I5
tp698
a(I2
I5
I6
tp699
a(I2
I6
I6
tp700
a(I3
I6
I6
tp701
a(I3
I7
I6
tp702
a(I4
I7
I6
tp703
a(I4
I8
I6
tp704
a(I4
I9
I6
tp705
a(I4
I10
I6
tp706
a(I4
I11
I6
tp707
a(I4
I12
I6
tp708
a(I4
I13
I6
tp709
a(I5
I13
I6
tp710
a(I6
I13
I6
tp711
a(I6
I14
I6
tp712
a(I6
I15
I6
tp713
a(I6
I15
I5
tp714
a(I6
I15
I4
tp715
a(I6
I15
I3
tp716
a(I6
I15
I2
tp717
a(I6
I15
I1
tp718
ag53
asg123
g53
sg124
I30
sbag689
ag689
ag689
ag689
ag689
ag689
aI0
ag583
ag583
ag0
(g409
g2
Ntp719
Rp720
(dp721
g413
I18
sg414
I2
sg415
I0
sg416
I6
sbag0
(g75
g2
Ntp722
Rp723
(dp724
g79
g26
sg80
(lp725
(I2
I6
I0
tp726
a(I2
I6
I1
tp727
a(I2
I6
I2
tp728
a(I2
I7
I2
tp729
a(I2
I8
I2
tp730
a(I2
I9
I2
tp731
a(I2
I10
I2
tp732
a(I2
I11
I2
tp733
a(I3
I11
I2
tp734
a(I3
I12
I2
tp735
a(I3
I13
I2
tp736
a(I3
I14
I2
tp737
a(I3
I14
I1
tp738
a(I3
I14
I0
tp739
ag50
asg123
g50
sg124
I66
sbag723
aI0
aI0
aI0
ag689
aI0
ag583
ag0
(g75
g2
Ntp740
Rp741
(dp742
g79
g25
sg80
(lp743
(I16
I5
I0
tp744
a(I17
I5
I0
tp745
a(I17
I5
I1
tp746
a(I17
I5
I2
tp747
a(I17
I5
I3
tp748
a(I17
I5
I4
tp749
a(I17
I5
I5
tp750
a(I17
I5
I6
tp751
a(I17
I5
I7
tp752
a(I17
I5
I8
tp753
a(I16
I5
I8
tp754
a(I16
I5
I9
tp755
a(I16
I6
I9
tp756
a(I15
I6
I9
tp757
a(I14
I6
I9
tp758
a(I13
I6
I9
tp759
a(I12
I6
I9
tp760
a(I11
I6
I9
tp761
a(I10
I6
I9
tp762
a(I9
I6
I9
tp763
a(I8
I6
I9
tp764
a(I7
I6
I9
tp765
a(I6
I6
I9
tp766
a(I5
I6
I9
tp767
a(I4
I6
I9
tp768
a(I3
I6
I9
tp769
a(I2
I6
I9
tp770
a(I2
I7
I9
tp771
a(I2
I8
I9
tp772
a(I2
I9
I9
tp773
a(I2
I10
I9
tp774
a(I2
I11
I9
tp775
a(I2
I12
I9
tp776
a(I2
I12
I8
tp777
a(I2
I12
I7
tp778
a(I2
I12
I6
tp779
a(I2
I12
I5
tp780
a(I2
I12
I4
tp781
a(I2
I12
I3
tp782
a(I2
I12
I2
tp783
a(I2
I12
I1
tp784
ag43
asg123
g43
sg124
I10
sbaI0
aI0
ag723
ag583
ag583
ag583
ag583
ag583
ag583
ag741
aI0
aI0
ag723
ag583
ag0
(g75
g2
Ntp785
Rp786
(dp787
g79
g34
sg80
(lp788
(I6
I8
I0
tp789
a(I5
I8
I0
tp790
a(I5
I8
I1
tp791
a(I4
I8
I1
tp792
a(I4
I8
I2
tp793
a(I3
I8
I2
tp794
a(I3
I8
I3
tp795
a(I3
I8
I4
tp796
a(I2
I8
I4
tp797
a(I2
I8
I5
tp798
a(I2
I8
I6
tp799
a(I2
I8
I7
tp800
a(I2
I8
I8
tp801
a(I3
I8
I8
tp802
a(I3
I9
I8
tp803
a(I4
I9
I8
tp804
a(I5
I9
I8
tp805
a(I5
I10
I8
tp806
a(I6
I10
I8
tp807
a(I7
I10
I8
tp808
a(I8
I10
I8
tp809
a(I9
I10
I8
tp810
a(I9
I10
I9
tp811
a(I10
I10
I9
tp812
a(I11
I10
I9
tp813
a(I12
I10
I9
tp814
a(I13
I10
I9
tp815
a(I14
I10
I9
tp816
a(I15
I10
I9
tp817
a(I15
I11
I9
tp818
a(I15
I12
I9
tp819
a(I16
I12
I9
tp820
a(I16
I12
I8
tp821
a(I16
I12
I7
tp822
a(I16
I12
I6
tp823
a(I16
I12
I5
tp824
a(I16
I12
I4
tp825
a(I16
I12
I3
tp826
a(I16
I12
I2
tp827
a(I16
I12
I1
tp828
a(I16
I12
I0
tp829
ag47
asg123
g47
sg124
I52
sbag786
ag786
ag786
ag786
ag741
aI0
aI0
ag723
ag583
ag483
aI0
ag0
(g75
g2
Ntp830
Rp831
(dp832
g79
g9
sg80
(lp833
(I6
I1
I0
tp834
a(I5
I1
I0
tp835
a(I5
I1
I1
tp836
a(I5
I1
I2
tp837
a(I5
I0
I2
tp838
a(I5
I0
I3
tp839
a(I5
I0
I4
tp840
a(I5
I0
I5
tp841
a(I5
I0
I6
tp842
a(I5
I0
I7
tp843
a(I4
I0
I7
tp844
a(I3
I0
I7
tp845
a(I3
I1
I7
tp846
a(I3
I2
I7
tp847
a(I3
I3
I7
tp848
a(I3
I4
I7
tp849
a(I3
I5
I7
tp850
a(I3
I6
I7
tp851
a(I3
I7
I7
tp852
a(I3
I8
I7
tp853
a(I3
I9
I7
tp854
a(I2
I9
I7
tp855
a(I2
I9
I6
tp856
a(I2
I10
I6
tp857
a(I2
I10
I5
tp858
a(I2
I10
I4
tp859
a(I3
I10
I4
tp860
a(I3
I10
I3
tp861
a(I3
I10
I2
tp862
a(I4
I10
I2
tp863
a(I4
I10
I1
tp864
a(I5
I10
I1
tp865
a(I5
I11
I1
tp866
a(I6
I11
I1
tp867
a(I7
I11
I1
tp868
a(I7
I11
I0
tp869
ag45
asg123
g45
sg124
I64
sbag831
aI0
ag741
aI0
aI0
ag723
aI0
ag831
ag831
ag831
ag421
aI0
ag741
aI0
aI0
ag723
aI0
aI0
aI0
aI0
aI0
ag268
ag741
ag0
(g409
g2
Ntp870
Rp871
(dp872
g413
I35
sg414
I2
sg415
I0
sg416
I12
sbag741
ag741
ag741
ag741
ag741
ag741
ag741
ag741
ag741
aI0
aI0
aI0
aI0
ag244
aI0
aI0
aI0
ag167
aI0
aI0
aI0
aI0
aI0
aI0
aI0
ag211
aI0
aI0
ag77
ag0
(g75
g2
Ntp873
Rp874
(dp875
g79
g55
sg80
(lp876
(I11
I15
I0
tp877
a(I11
I16
I0
tp878
a(I11
I16
I1
tp879
a(I11
I16
I2
tp880
a(I10
I16
I2
tp881
a(I9
I16
I2
tp882
a(I9
I16
I3
tp883
a(I9
I16
I4
tp884
a(I9
I16
I5
tp885
a(I9
I16
I6
tp886
a(I8
I16
I6
tp887
a(I7
I16
I6
tp888
a(I6
I16
I6
tp889
a(I5
I16
I6
tp890
a(I4
I16
I6
tp891
a(I3
I16
I6
tp892
a(I2
I16
I6
tp893
a(I2
I15
I6
tp894
a(I2
I15
I5
tp895
a(I2
I15
I4
tp896
a(I2
I15
I3
tp897
a(I2
I15
I2
tp898
a(I2
I15
I1
tp899
a(I2
I15
I0
tp900
ag52
asg123
g52
sg124
I53
sbag874
ag874
ag874
ag874
ag874
ag874
aI0
aI0
ag507
aI0
aI0
aI0
aI0
aI0
aI0
ag874
aI0
aI0
ag544
aI0
aI0
aI0
aI0
aI0
aI0
aI0
ag831
ag315
ag372
aI0
aI0
aI0
ag672
aI0
aI0
aI0
ag831
aI0
ag583
ag0
(g409
g2
Ntp901
Rp902
(dp903
g413
I4
sg414
I3
sg415
I0
sg416
I2
sbaI0
aI0
ag672
aI0
aI0
aI0
ag831
aI0
ag583
aI0
aI0
aI0
ag672
aI0
aI0
aI0
ag831
ag629
aI0
aI0
aI0
aI0
ag672
ag456
aI0
aI0
ag831
ag126
aI0
ag0
(g75
g2
Ntp904
Rp905
(dp906
g79
g22
sg80
(lp907
(I4
I5
I0
tp908
a(I3
I5
I0
tp909
a(I3
I5
I1
tp910
a(I3
I5
I2
tp911
a(I3
I5
I3
tp912
a(I3
I5
I4
tp913
a(I3
I5
I5
tp914
a(I3
I6
I5
tp915
a(I3
I7
I5
tp916
a(I3
I8
I5
tp917
a(I3
I9
I5
tp918
a(I3
I10
I5
tp919
a(I3
I11
I5
tp920
a(I3
I12
I5
tp921
a(I3
I13
I5
tp922
a(I3
I14
I5
tp923
a(I3
I15
I5
tp924
a(I3
I16
I5
tp925
a(I4
I16
I5
tp926
a(I5
I16
I5
tp927
a(I6
I16
I5
tp928
a(I7
I16
I5
tp929
a(I8
I16
I5
tp930
a(I8
I16
I4
tp931
a(I8
I16
I3
tp932
a(I8
I16
I2
tp933
a(I8
I16
I1
tp934
a(I8
I16
I0
tp935
ag54
asg123
g54
sg124
I49
sbag905
ag905
ag905
ag905
ag905
aI0
ag831
aI0
aI0
aI0
aI0
aI0
aI0
aI0
ag905
ag689
ag831
aI0
ag741
aI0
aI0
aI0
aI0
aI0
ag905
ag689
ag831
aI0
aI0
aI0
aI0
ag786
ag786
ag786
ag905
aI0
ag831
ag786
aI0
aI0
aI0
ag583
ag583
ag483
ag905
aI0
ag831
ag786
aI0
aI0
aI0
ag831
ag831
ag831
ag905
aI0
ag421
aI0
aI0
aI0
aI0
ag723
aI0
aI0
ag905
aI0
ag421
ag268
aI0
aI0
aI0
ag723
aI0
aI0
ag905
aI0
aI0
aI0
aI0
aI0
aI0
ag723
aI0
ag244
ag905
aI0
aI0
ag167
aI0
ag723
ag723
ag723
aI0
aI0
ag905
ag211
aI0
ag77
ag77
aI0
aI0
aI0
aI0
aI0
ag905
ag211
aI0
ag77
ag507
aI0
aI0
aI0
aI0
aI0
ag905
ag874
aI0
aI0
ag544
aI0
aI0
aI0
aI0
aI0
aI0
aI0
ag831
ag315
ag372
aI0
aI0
aI0
ag672
aI0
aI0
aI0
aI0
aI0
ag583
ag0
(g75
g2
Ntp936
Rp937
(dp938
g79
g16
sg80
(lp939
(I6
I3
I0
tp940
a(I5
I3
I0
tp941
a(I4
I3
I0
tp942
a(I4
I2
I0
tp943
ag12
asg123
g12
sg124
I68
sbaI0
aI0
aI0
ag456
aI0
aI0
aI0
aI0
ag0
(g75
g2
Ntp944
Rp945
(dp946
g79
g11
sg80
(lp947
(I15
I1
I0
tp948
a(I16
I1
I0
tp949
a(I16
I1
I1
tp950
a(I16
I1
I2
tp951
a(I16
I1
I3
tp952
a(I16
I1
I4
tp953
a(I16
I1
I5
tp954
a(I16
I1
I6
tp955
a(I16
I1
I7
tp956
a(I16
I1
I8
tp957
a(I16
I1
I9
tp958
a(I16
I2
I9
tp959
a(I15
I2
I9
tp960
a(I14
I2
I9
tp961
a(I13
I2
I9
tp962
a(I12
I2
I9
tp963
a(I11
I2
I9
tp964
a(I10
I2
I9
tp965
a(I9
I2
I9
tp966
a(I8
I2
I9
tp967
a(I7
I2
I9
tp968
a(I6
I2
I9
tp969
a(I5
I2
I9
tp970
a(I4
I2
I9
tp971
a(I4
I3
I9
tp972
a(I4
I4
I9
tp973
a(I4
I5
I9
tp974
a(I4
I5
I8
tp975
a(I4
I5
I7
tp976
a(I4
I5
I6
tp977
a(I4
I5
I5
tp978
a(I4
I5
I4
tp979
a(I4
I5
I3
tp980
a(I4
I5
I2
tp981
a(I4
I5
I1
tp982
ag22
asg123
g22
sg124
I11
sbag937
aI0
aI0
aI0
ag456
aI0
aI0
aI0
ag629
ag945
ag0
(g75
g2
Ntp983
Rp984
(dp985
g79
g22
sg80
(lp986
(I4
I5
I0
tp987
a(I4
I4
I0
tp988
a(I4
I4
I1
tp989
a(I4
I4
I2
tp990
a(I4
I4
I3
tp991
a(I5
I4
I3
tp992
a(I5
I4
I4
tp993
a(I5
I3
I4
tp994
a(I5
I3
I5
tp995
a(I5
I3
I6
tp996
a(I5
I3
I7
tp997
a(I5
I4
I7
tp998
a(I5
I5
I7
tp999
a(I5
I5
I8
tp1000
a(I5
I6
I8
tp1001
a(I5
I7
I8
tp1002
a(I6
I7
I8
tp1003
a(I7
I7
I8
tp1004
a(I8
I7
I8
tp1005
a(I9
I7
I8
tp1006
a(I10
I7
I8
tp1007
a(I10
I8
I8
tp1008
a(I11
I8
I8
tp1009
a(I12
I8
I8
tp1010
a(I13
I8
I8
tp1011
a(I13
I8
I7
tp1012
a(I13
I9
I7
tp1013
a(I13
I9
I6
tp1014
a(I13
I10
I6
tp1015
a(I13
I11
I6
tp1016
a(I13
I11
I5
tp1017
a(I13
I11
I4
tp1018
a(I13
I11
I3
tp1019
a(I13
I11
I2
tp1020
a(I13
I11
I1
tp1021
a(I13
I11
I0
tp1022
ag42
asg123
g42
sg124
I51
sbag984
ag984
ag984
ag456
aI0
aI0
aI0
ag126
ag945
ag0
(g409
g2
Ntp1023
Rp1024
(dp1025
g413
I14
sg414
I4
sg415
I0
sg416
I5
sbag945
ag945
ag945
ag945
ag945
ag945
ag945
ag945
ag945
ag0
(g75
g2
Ntp1026
Rp1027
(dp1028
g79
g22
sg80
(lp1029
(I4
I5
I0
tp1030
a(I4
I6
I0
tp1031
a(I4
I6
I1
tp1032
a(I4
I6
I2
tp1033
a(I4
I6
I3
tp1034
a(I4
I6
I4
tp1035
a(I4
I6
I5
tp1036
a(I4
I7
I5
tp1037
a(I4
I8
I5
tp1038
a(I4
I9
I5
tp1039
a(I4
I10
I5
tp1040
a(I4
I11
I5
tp1041
a(I4
I12
I5
tp1042
a(I4
I13
I5
tp1043
a(I5
I13
I5
tp1044
a(I6
I13
I5
tp1045
a(I6
I14
I5
tp1046
a(I6
I14
I4
tp1047
a(I6
I14
I3
tp1048
a(I6
I14
I2
tp1049
a(I6
I14
I1
tp1050
ag51
asg123
g51
sg124
I48
sbag1027
ag1027
ag1027
ag1027
ag1027
aI0
aI0
aI0
ag741
aI0
aI0
aI0
aI0
aI0
ag1027
ag689
aI0
aI0
aI0
aI0
ag786
ag786
ag0
(g75
g2
Ntp1051
Rp1052
(dp1053
g79
g35
sg80
(lp1054
(I7
I8
I0
tp1055
a(I7
I8
I1
tp1056
a(I7
I8
I2
tp1057
a(I7
I8
I3
tp1058
a(I6
I8
I3
tp1059
a(I5
I8
I3
tp1060
a(I4
I8
I3
tp1061
a(I4
I9
I3
tp1062
a(I4
I10
I3
tp1063
a(I4
I11
I3
tp1064
a(I4
I12
I3
tp1065
a(I4
I12
I2
tp1066
a(I4
I12
I1
tp1067
ag44
asg123
g44
sg124
I7
sbaI0
ag1027
ag689
aI0
aI0
ag0
(g75
g2
Ntp1068
Rp1069
(dp1070
g79
g29
sg80
(lp1071
(I12
I6
I0
tp1072
a(I11
I6
I0
tp1073
a(I11
I6
I1
tp1074
a(I11
I6
I2
tp1075
a(I11
I6
I3
tp1076
a(I11
I6
I4
tp1077
a(I11
I6
I5
tp1078
a(I11
I6
I6
tp1079
a(I11
I6
I7
tp1080
a(I11
I6
I8
tp1081
a(I11
I7
I8
tp1082
a(I11
I7
I9
tp1083
a(I10
I7
I9
tp1084
a(I9
I7
I9
tp1085
a(I8
I7
I9
tp1086
a(I7
I7
I9
tp1087
a(I6
I7
I9
tp1088
a(I6
I8
I9
tp1089
a(I5
I8
I9
tp1090
a(I4
I8
I9
tp1091
a(I4
I9
I9
tp1092
a(I4
I10
I9
tp1093
a(I4
I11
I9
tp1094
a(I4
I12
I9
tp1095
a(I4
I13
I9
tp1096
a(I4
I14
I9
tp1097
a(I4
I14
I8
tp1098
a(I4
I14
I7
tp1099
a(I4
I14
I6
tp1100
a(I4
I14
I5
tp1101
a(I4
I14
I4
tp1102
a(I4
I14
I3
tp1103
a(I4
I14
I2
tp1104
a(I4
I14
I1
tp1105
ag50
asg123
g50
sg124
I31
sbaI0
ag583
ag583
ag1052
ag483
ag1027
ag689
aI0
ag786
ag1069
aI0
ag831
ag831
ag1052
aI0
ag1027
ag689
aI0
aI0
ag1069
ag0
(g75
g2
Ntp1106
Rp1107
(dp1108
g79
g44
sg80
(lp1109
(I4
I12
I0
tp1110
a(I4
I11
I0
tp1111
a(I4
I11
I1
tp1112
a(I4
I11
I2
tp1113
a(I5
I11
I2
tp1114
a(I5
I10
I2
tp1115
a(I5
I9
I2
tp1116
a(I5
I8
I2
tp1117
a(I5
I7
I2
tp1118
a(I6
I7
I2
tp1119
a(I7
I7
I2
tp1120
a(I8
I7
I2
tp1121
a(I8
I6
I2
tp1122
a(I9
I6
I2
tp1123
a(I9
I6
I1
tp1124
a(I9
I6
I0
tp1125
ag28
asg123
g28
sg124
I32
sbag1107
ag1107
ag1052
aI0
ag1027
ag689
ag421
ag268
ag1069
ag0
(g409
g2
Ntp1126
Rp1127
(dp1128
g413
I36
sg414
I4
sg415
I0
sg416
I12
sbag1052
ag1052
ag1052
aI0
ag1027
ag689
aI0
aI0
ag1069
aI0
aI0
aI0
aI0
ag244
ag1027
ag689
aI0
ag167
ag1069
ag0
(g409
g2
Ntp1129
Rp1130
(dp1131
g413
I42
sg414
I4
sg415
I0
sg416
I14
sbag1069
ag1069
ag1069
ag1069
ag1069
ag1069
ag1069
ag1069
ag1069
aI0
aI0
aI0
aI0
aI0
aI0
ag211
aI0
ag77
ag507
aI0
aI0
aI0
aI0
aI0
ag905
ag874
aI0
aI0
ag544
aI0
aI0
ag831
ag831
ag831
ag831
ag831
ag831
ag315
ag372
ag831
ag831
ag831
ag672
aI0
aI0
aI0
aI0
aI0
ag583
aI0
aI0
aI0
aI0
ag456
aI0
aI0
aI0
aI0
ag945
ag937
aI0
aI0
aI0
ag984
ag984
ag984
ag984
ag629
ag629
aI0
aI0
aI0
ag984
ag984
ag0
(g75
g2
Ntp1132
Rp1133
(dp1134
g79
g20
sg80
(lp1135
(I8
I4
I0
tp1136
a(I7
I4
I0
tp1137
a(I7
I4
I1
tp1138
a(I7
I4
I2
tp1139
a(I7
I4
I3
tp1140
a(I7
I4
I4
tp1141
a(I7
I4
I5
tp1142
a(I6
I4
I5
tp1143
a(I5
I4
I5
tp1144
a(I5
I5
I5
tp1145
a(I5
I6
I5
tp1146
a(I5
I7
I5
tp1147
a(I5
I8
I5
tp1148
a(I5
I9
I5
tp1149
a(I5
I10
I5
tp1150
a(I5
I11
I5
tp1151
a(I5
I12
I5
tp1152
a(I5
I12
I4
tp1153
a(I5
I12
I3
tp1154
a(I5
I12
I2
tp1155
a(I5
I12
I1
tp1156
a(I5
I12
I0
tp1157
ag44
asg123
g44
sg124
I27
sbaI0
ag984
ag126
aI0
ag0
(g75
g2
Ntp1158
Rp1159
(dp1160
g79
g22
sg80
(lp1161
(I4
I5
I0
tp1162
a(I5
I5
I0
tp1163
a(I5
I5
I1
tp1164
a(I5
I5
I2
tp1165
a(I5
I5
I3
tp1166
a(I6
I5
I3
tp1167
a(I7
I5
I3
tp1168
a(I8
I5
I3
tp1169
a(I9
I5
I3
tp1170
a(I9
I4
I3
tp1171
a(I10
I4
I3
tp1172
a(I11
I4
I3
tp1173
a(I11
I4
I2
tp1174
a(I11
I4
I1
tp1175
a(I11
I5
I1
tp1176
ag24
asg123
g24
sg124
I38
sbag1159
ag1159
ag1159
aI0
ag1133
aI0
ag984
ag984
aI0
aI0
aI0
aI0
aI0
aI0
ag1133
aI0
aI0
ag984
ag741
aI0
aI0
ag1107
aI0
aI0
ag1133
aI0
aI0
ag984
aI0
ag786
ag786
ag1107
ag1052
aI0
ag1133
aI0
aI0
aI0
ag1069
ag583
ag583
ag1107
aI0
ag483
ag1133
aI0
aI0
ag786
aI0
ag583
ag831
ag1107
aI0
ag483
ag1133
aI0
aI0
ag786
aI0
ag583
ag831
ag1107
aI0
aI0
ag1133
aI0
ag421
ag268
aI0
ag1133
ag1133
ag1133
ag1133
ag1133
ag1133
aI0
aI0
aI0
aI0
aI0
aI0
aI0
aI0
ag244
ag1027
ag689
aI0
ag167
aI0
aI0
aI0
aI0
aI0
aI0
aI0
aI0
aI0
aI0
aI0
ag211
ag211
ag211
ag211
ag211
ag211
ag211
aI0
ag77
ag507
aI0
aI0
aI0
aI0
aI0
ag905
ag874
aI0
aI0
ag544
ag0
(g75
g2
Ntp1177
Rp1178
(dp1179
g79
g9
sg80
(lp1180
(I6
I1
I0
tp1181
a(I6
I0
I0
tp1182
a(I6
I0
I1
tp1183
a(I6
I0
I2
tp1184
a(I6
I0
I3
tp1185
a(I6
I0
I4
tp1186
a(I7
I0
I4
tp1187
a(I8
I0
I4
tp1188
a(I9
I0
I4
tp1189
a(I9
I1
I4
tp1190
a(I9
I2
I4
tp1191
a(I9
I3
I4
tp1192
a(I9
I4
I4
tp1193
a(I9
I5
I4
tp1194
a(I10
I5
I4
tp1195
a(I10
I6
I4
tp1196
a(I10
I6
I3
tp1197
a(I10
I6
I2
tp1198
a(I10
I6
I1
tp1199
ag28
asg123
g28
sg124
I26
sbag1178
ag1178
ag1178
ag1178
aI0
aI0
aI0
ag315
ag372
ag0
(g409
g2
Ntp1200
Rp1201
(dp1202
g413
I1
sg414
I6
sg415
I0
sg416
I1
sbag672
ag672
ag672
aI0
aI0
aI0
aI0
aI0
ag583
ag456
ag456
ag456
ag456
ag456
aI0
aI0
aI0
aI0
ag945
ag0
(g409
g2
Ntp1203
Rp1204
(dp1205
g413
I8
sg414
I6
sg415
I0
sg416
I3
sbag0
(g75
g2
Ntp1206
Rp1207
(dp1208
g79
g24
sg80
(lp1209
(I11
I5
I0
tp1210
a(I11
I4
I0
tp1211
a(I10
I4
I0
tp1212
a(I10
I4
I1
tp1213
a(I10
I4
I2
tp1214
a(I10
I3
I2
tp1215
a(I9
I3
I2
tp1216
a(I8
I3
I2
tp1217
a(I7
I3
I2
tp1218
a(I6
I3
I2
tp1219
a(I6
I3
I1
tp1220
ag16
asg123
g16
sg124
I40
sbag1207
aI0
aI0
aI0
aI0
aI0
aI0
ag629
aI0
aI0
ag0
(g75
g2
Ntp1221
Rp1222
(dp1223
g79
g35
sg80
(lp1224
(I7
I8
I0
tp1225
a(I7
I7
I0
tp1226
a(I7
I7
I1
tp1227
a(I8
I7
I1
tp1228
a(I8
I6
I1
tp1229
a(I8
I5
I1
tp1230
a(I8
I5
I2
tp1231
a(I7
I5
I2
tp1232
a(I6
I5
I2
tp1233
a(I6
I4
I2
tp1234
a(I6
I4
I3
tp1235
a(I6
I4
I4
tp1236
a(I6
I5
I4
tp1237
a(I6
I5
I5
tp1238
a(I6
I5
I6
tp1239
a(I6
I5
I7
tp1240
a(I6
I6
I7
tp1241
a(I6
I7
I7
tp1242
a(I6
I8
I7
tp1243
a(I6
I9
I7
tp1244
a(I6
I10
I7
tp1245
a(I6
I10
I6
tp1246
a(I6
I11
I6
tp1247
a(I6
I12
I6
tp1248
a(I7
I12
I6
tp1249
a(I8
I12
I6
tp1250
a(I8
I12
I5
tp1251
a(I8
I12
I4
tp1252
a(I9
I12
I4
tp1253
a(I9
I12
I3
tp1254
a(I9
I12
I2
tp1255
a(I9
I12
I1
tp1256
a(I9
I12
I0
tp1257
ag46
asg123
g46
sg124
I50
sbag1222
ag1222
ag1133
aI0
aI0
ag126
aI0
aI0
aI0
ag1222
ag1159
ag1222
ag1222
ag1222
ag1222
ag126
aI0
aI0
ag0
(g75
g2
Ntp1258
Rp1259
(dp1260
g79
g34
sg80
(lp1261
(I6
I8
I0
tp1262
a(I6
I8
I1
tp1263
a(I6
I7
I1
tp1264
a(I6
I6
I1
tp1265
a(I6
I6
I2
tp1266
a(I6
I6
I3
tp1267
a(I6
I6
I4
tp1268
a(I6
I6
I5
tp1269
a(I6
I6
I6
tp1270
a(I7
I6
I6
tp1271
a(I8
I6
I6
tp1272
a(I9
I6
I6
tp1273
a(I9
I7
I6
tp1274
a(I10
I7
I6
tp1275
a(I10
I8
I6
tp1276
a(I10
I9
I6
tp1277
a(I10
I10
I6
tp1278
a(I10
I11
I6
tp1279
a(I10
I12
I6
tp1280
a(I11
I12
I6
tp1281
a(I12
I12
I6
tp1282
a(I13
I12
I6
tp1283
a(I13
I12
I5
tp1284
a(I13
I12
I4
tp1285
a(I13
I12
I3
tp1286
a(I13
I12
I2
tp1287
a(I13
I12
I1
tp1288
a(I13
I13
I1
tp1289
ag49
asg123
g49
sg124
I42
sbag1259
ag1259
ag1259
ag1259
ag1259
ag1222
aI0
ag741
ag0
(g409
g2
Ntp1290
Rp1291
(dp1292
g413
I23
sg414
I6
sg415
I0
sg416
I7
sbag1259
ag1107
aI0
aI0
ag0
(g75
g2
Ntp1293
Rp1294
(dp1295
g79
g40
sg80
(lp1296
(I6
I9
I0
tp1297
a(I6
I9
I1
tp1298
a(I6
I9
I2
tp1299
a(I6
I9
I3
tp1300
a(I6
I9
I4
tp1301
a(I6
I9
I5
tp1302
a(I6
I8
I5
tp1303
a(I6
I7
I5
tp1304
a(I7
I7
I5
tp1305
a(I7
I6
I5
tp1306
a(I8
I6
I5
tp1307
a(I9
I6
I5
tp1308
a(I10
I6
I5
tp1309
a(I10
I5
I5
tp1310
a(I10
I4
I5
tp1311
a(I10
I3
I5
tp1312
a(I10
I2
I5
tp1313
a(I10
I1
I5
tp1314
a(I10
I1
I4
tp1315
a(I10
I1
I3
tp1316
a(I10
I1
I2
tp1317
a(I10
I1
I1
tp1318
ag10
asg123
g10
sg124
I25
sbaI0
ag1222
ag984
ag1069
ag0
(g409
g2
Ntp1319
Rp1320
(dp1321
g413
I26
sg414
I6
sg415
I0
sg416
I8
sbag1259
aI0
ag1052
aI0
ag1294
aI0
ag1222
aI0
ag1069
ag0
(g409
g2
Ntp1322
Rp1323
(dp1324
g413
I32
sg414
I6
sg415
I0
sg416
I9
sbag1294
ag1294
ag1294
ag1294
ag1294
aI0
ag1222
aI0
aI0
ag0
(g75
g2
Ntp1325
Rp1326
(dp1327
g79
g38
sg80
(lp1328
(I15
I8
I0
tp1329
a(I16
I8
I0
tp1330
a(I16
I8
I1
tp1331
a(I16
I8
I2
tp1332
a(I16
I8
I3
tp1333
a(I16
I8
I4
tp1334
a(I16
I8
I5
tp1335
a(I16
I8
I6
tp1336
a(I16
I8
I7
tp1337
a(I16
I9
I7
tp1338
a(I16
I10
I7
tp1339
a(I16
I10
I8
tp1340
a(I16
I11
I8
tp1341
a(I15
I11
I8
tp1342
a(I14
I11
I8
tp1343
a(I14
I12
I8
tp1344
a(I13
I12
I8
tp1345
a(I12
I12
I8
tp1346
a(I11
I12
I8
tp1347
a(I10
I12
I8
tp1348
a(I9
I12
I8
tp1349
a(I8
I12
I8
tp1350
a(I7
I12
I8
tp1351
a(I7
I12
I7
tp1352
a(I7
I13
I7
tp1353
a(I7
I13
I6
tp1354
a(I7
I13
I5
tp1355
a(I7
I12
I5
tp1356
a(I7
I11
I5
tp1357
a(I6
I11
I5
tp1358
a(I6
I11
I4
tp1359
a(I6
I11
I3
tp1360
a(I6
I10
I3
tp1361
a(I6
I10
I2
tp1362
a(I6
I10
I1
tp1363
a(I6
I10
I0
tp1364
ag40
asg123
g40
sg124
I57
sbag1326
ag1326
ag1326
ag483
aI0
ag1222
ag1222
ag786
aI0
ag583
ag831
aI0
ag1326
ag1326
ag1326
ag1222
ag421
ag268
aI0
ag583
aI0
aI0
aI0
aI0
aI0
ag1222
aI0
aI0
aI0
ag244
ag244
ag244
ag244
ag244
ag1027
ag689
aI0
ag167
aI0
ag0
(g409
g2
Ntp1365
Rp1366
(dp1367
g413
I43
sg414
I6
sg415
I0
sg416
I14
sbag1027
ag1027
ag1027
ag1027
ag1027
ag689
aI0
aI0
aI0
ag0
(g409
g2
Ntp1368
Rp1369
(dp1370
g413
I45
sg414
I6
sg415
I0
sg416
I15
sbag689
ag689
ag689
ag689
ag689
ag689
aI0
ag77
ag507
ag0
(g75
g2
Ntp1371
Rp1372
(dp1373
g79
g53
sg80
(lp1374
(I6
I15
I0
tp1375
a(I6
I16
I0
tp1376
a(I6
I16
I1
tp1377
a(I6
I16
I2
tp1378
a(I6
I16
I3
tp1379
a(I6
I16
I4
tp1380
a(I7
I16
I4
tp1381
a(I7
I15
I4
tp1382
a(I7
I15
I5
tp1383
a(I7
I15
I6
tp1384
a(I7
I15
I7
tp1385
a(I7
I16
I7
tp1386
a(I8
I16
I7
tp1387
a(I9
I16
I7
tp1388
a(I10
I16
I7
tp1389
a(I11
I16
I7
tp1390
a(I12
I16
I7
tp1391
a(I12
I15
I7
tp1392
a(I12
I14
I7
tp1393
a(I12
I13
I7
tp1394
a(I12
I13
I6
tp1395
a(I12
I13
I5
tp1396
a(I12
I12
I5
tp1397
a(I12
I12
I4
tp1398
a(I12
I12
I3
tp1399
a(I12
I12
I2
tp1400
a(I12
I12
I1
tp1401
a(I11
I12
I1
tp1402
a(I11
I12
I0
tp1403
ag46
asg123
g46
sg124
I61
sbag1372
ag1372
ag1372
ag1372
ag905
ag874
aI0
aI0
ag544
aI0
aI0
aI0
aI0
ag1178
aI0
aI0
aI0
ag315
ag372
aI0
aI0
aI0
aI0
aI0
aI0
aI0
aI0
aI0
ag583
aI0
aI0
aI0
aI0
aI0
aI0
aI0
aI0
aI0
ag945
aI0
aI0
ag1207
aI0
aI0
aI0
aI0
aI0
aI0
ag629
ag1133
ag1133
ag1133
ag1133
ag1133
ag1133
aI0
aI0
aI0
aI0
aI0
aI0
ag1222
ag1159
aI0
aI0
aI0
aI0
ag126
aI0
ag0
(g409
g2
Ntp1404
Rp1405
(dp1406
g413
I19
sg414
I7
sg415
I0
sg416
I6
sbag0
(g75
g2
Ntp1407
Rp1408
(dp1409
g79
g42
sg80
(lp1410
(I12
I11
I0
tp1411
a(I12
I10
I0
tp1412
a(I12
I10
I1
tp1413
a(I12
I10
I2
tp1414
a(I12
I10
I3
tp1415
a(I12
I9
I3
tp1416
a(I12
I8
I3
tp1417
a(I11
I8
I3
tp1418
a(I10
I8
I3
tp1419
a(I9
I8
I3
tp1420
a(I9
I7
I3
tp1421
a(I8
I7
I3
tp1422
a(I8
I6
I3
tp1423
a(I7
I6
I3
tp1424
a(I7
I6
I2
tp1425
a(I7
I6
I1
tp1426
ag27
asg123
g27
sg124
I28
sbag1408
ag1408
aI0
ag1294
ag1259
aI0
aI0
ag741
ag1222
ag1222
ag1107
aI0
aI0
ag1294
aI0
aI0
ag984
ag1069
ag0
(g409
g2
Ntp1427
Rp1428
(dp1429
g413
I27
sg414
I7
sg415
I0
sg416
I8
sbag1052
ag1052
ag1052
aI0
aI0
aI0
aI0
aI0
aI0
ag0
(g75
g2
Ntp1430
Rp1431
(dp1432
g79
g40
sg80
(lp1433
(I6
I9
I0
tp1434
a(I7
I9
I0
tp1435
a(I7
I9
I1
tp1436
a(I7
I9
I2
tp1437
a(I7
I9
I3
tp1438
a(I7
I9
I4
tp1439
a(I7
I9
I5
tp1440
a(I7
I9
I6
tp1441
a(I7
I9
I7
tp1442
a(I7
I9
I8
tp1443
a(I8
I9
I8
tp1444
a(I9
I9
I8
tp1445
a(I10
I9
I8
tp1446
a(I11
I9
I8
tp1447
a(I12
I9
I8
tp1448
a(I13
I9
I8
tp1449
a(I14
I9
I8
tp1450
a(I15
I9
I8
tp1451
a(I16
I9
I8
tp1452
a(I17
I9
I8
tp1453
a(I17
I8
I8
tp1454
a(I17
I7
I8
tp1455
a(I17
I7
I7
tp1456
a(I17
I7
I6
tp1457
a(I17
I7
I5
tp1458
a(I17
I7
I4
tp1459
a(I17
I7
I3
tp1460
a(I17
I7
I2
tp1461
a(I17
I7
I1
tp1462
a(I17
I7
I0
tp1463
ag33
asg123
g33
sg124
I35
sbag1431
ag1431
ag1431
ag1431
ag1431
ag1431
ag1431
ag1431
aI0
aI0
aI0
aI0
aI0
ag483
aI0
aI0
aI0
ag786
aI0
ag831
ag831
aI0
aI0
aI0
ag1326
aI0
ag421
ag268
aI0
ag0
(g409
g2
Ntp1464
Rp1465
(dp1466
g413
I37
sg414
I7
sg415
I0
sg416
I12
sbag0
(g75
g2
Ntp1467
Rp1468
(dp1469
g79
g37
sg80
(lp1470
(I11
I8
I0
tp1471
a(I11
I9
I0
tp1472
a(I12
I9
I0
tp1473
a(I12
I9
I1
tp1474
a(I12
I9
I2
tp1475
a(I13
I9
I2
tp1476
a(I13
I9
I3
tp1477
a(I13
I10
I3
tp1478
a(I13
I10
I4
tp1479
a(I13
I10
I5
tp1480
a(I14
I10
I5
tp1481
a(I15
I10
I5
tp1482
a(I16
I10
I5
tp1483
a(I17
I10
I5
tp1484
a(I17
I10
I6
tp1485
a(I17
I10
I7
tp1486
a(I17
I11
I7
tp1487
a(I17
I11
I8
tp1488
a(I17
I12
I8
tp1489
a(I17
I13
I8
tp1490
a(I17
I14
I8
tp1491
a(I16
I14
I8
tp1492
a(I15
I14
I8
tp1493
a(I14
I14
I8
tp1494
a(I13
I14
I8
tp1495
a(I12
I14
I8
tp1496
a(I11
I14
I8
tp1497
a(I10
I14
I8
tp1498
a(I9
I14
I8
tp1499
a(I8
I14
I8
tp1500
a(I7
I14
I8
tp1501
a(I7
I14
I7
tp1502
a(I7
I14
I6
tp1503
a(I7
I14
I5
tp1504
a(I7
I14
I4
tp1505
a(I7
I13
I4
tp1506
a(I7
I12
I4
tp1507
a(I7
I12
I3
tp1508
a(I7
I12
I2
tp1509
a(I7
I12
I1
tp1510
ag45
asg123
g45
sg124
I60
sbag1468
ag1468
ag1468
ag1326
ag1222
ag1326
ag1326
aI0
ag0
(g75
g2
Ntp1511
Rp1512
(dp1513
g79
g45
sg80
(lp1514
(I7
I12
I0
tp1515
a(I7
I13
I0
tp1516
a(I7
I14
I0
tp1517
ag51
asg123
g51
sg124
I67
sbaI0
aI0
aI0
ag1468
ag1326
ag1326
ag1326
ag167
aI0
ag1512
aI0
aI0
aI0
ag1468
ag1468
ag1468
ag1468
ag1468
aI0
aI0
aI0
aI0
aI0
ag1372
ag1372
ag1372
ag1372
ag77
ag507
aI0
aI0
aI0
aI0
ag1372
ag905
ag874
ag1372
aI0
ag544
aI0
aI0
aI0
aI0
ag1178
aI0
aI0
aI0
ag315
ag372
aI0
aI0
aI0
ag583
ag583
ag583
ag583
ag583
ag583
ag583
aI0
aI0
aI0
aI0
aI0
aI0
aI0
aI0
aI0
ag945
ag0
(g75
g2
Ntp1518
Rp1519
(dp1520
g79
g20
sg80
(lp1521
(I8
I4
I0
tp1522
a(I8
I3
I0
tp1523
a(I8
I3
I1
tp1524
a(I9
I3
I1
tp1525
a(I10
I3
I1
tp1526
a(I11
I3
I1
tp1527
a(I12
I3
I1
tp1528
ag17
asg123
g17
sg124
I55
sbag1519
ag1207
aI0
aI0
aI0
aI0
aI0
aI0
ag629
ag0
(g409
g2
Ntp1529
Rp1530
(dp1531
g413
I12
sg414
I8
sg415
I0
sg416
I4
sbag0
(g75
g2
Ntp1532
Rp1533
(dp1534
g79
g57
sg80
(lp1535
(I16
I15
I0
tp1536
a(I16
I15
I1
tp1537
a(I16
I15
I2
tp1538
a(I16
I15
I3
tp1539
a(I16
I15
I4
tp1540
a(I16
I15
I5
tp1541
a(I17
I15
I5
tp1542
a(I17
I15
I6
tp1543
a(I17
I15
I7
tp1544
a(I17
I15
I8
tp1545
a(I17
I15
I9
tp1546
a(I17
I14
I9
tp1547
a(I17
I13
I9
tp1548
a(I17
I12
I9
tp1549
a(I17
I11
I9
tp1550
a(I17
I10
I9
tp1551
a(I17
I9
I9
tp1552
a(I17
I8
I9
tp1553
a(I17
I7
I9
tp1554
a(I17
I6
I9
tp1555
a(I17
I5
I9
tp1556
a(I17
I4
I9
tp1557
a(I16
I4
I9
tp1558
a(I15
I4
I9
tp1559
a(I14
I4
I9
tp1560
a(I13
I4
I9
tp1561
a(I12
I4
I9
tp1562
a(I11
I4
I9
tp1563
a(I10
I4
I9
tp1564
a(I9
I4
I9
tp1565
a(I8
I4
I9
tp1566
a(I8
I4
I8
tp1567
a(I8
I4
I7
tp1568
a(I8
I4
I6
tp1569
a(I8
I4
I5
tp1570
a(I8
I4
I4
tp1571
a(I8
I4
I3
tp1572
a(I8
I4
I2
tp1573
a(I8
I4
I1
tp1574
ag20
asg123
g20
sg124
I4
sbag1533
ag1533
ag1533
ag1533
ag1533
ag1533
ag1533
ag1533
aI0
ag1222
ag1222
ag1159
aI0
aI0
aI0
aI0
ag126
aI0
aI0
ag1222
ag1107
ag1408
aI0
ag1294
ag1259
aI0
aI0
ag741
aI0
ag1222
ag1107
ag1408
aI0
aI0
aI0
aI0
ag984
ag1069
ag0
(g75
g2
Ntp1575
Rp1576
(dp1577
g79
g35
sg80
(lp1578
(I7
I8
I0
tp1579
a(I8
I8
I0
tp1580
a(I8
I9
I0
tp1581
a(I8
I9
I1
tp1582
a(I8
I9
I2
tp1583
a(I8
I9
I3
tp1584
a(I8
I9
I4
tp1585
a(I8
I9
I5
tp1586
a(I8
I9
I6
tp1587
a(I8
I10
I6
tp1588
a(I9
I10
I6
tp1589
a(I9
I11
I6
tp1590
a(I9
I12
I6
tp1591
a(I9
I13
I6
tp1592
a(I9
I14
I6
tp1593
a(I10
I14
I6
tp1594
a(I11
I14
I6
tp1595
a(I11
I15
I6
tp1596
a(I11
I15
I5
tp1597
a(I11
I15
I4
tp1598
a(I11
I15
I3
tp1599
a(I11
I15
I2
tp1600
a(I11
I15
I1
tp1601
ag55
asg123
g55
sg124
I46
sbag507
ag507
ag507
ag507
ag507
ag507
ag507
ag507
ag507
ag1576
ag1576
ag1576
ag1576
ag1576
ag1576
ag1576
aI0
ag1431
ag507
ag483
ag483
ag483
ag483
ag483
aI0
ag1576
aI0
ag786
ag507
aI0
aI0
aI0
aI0
ag421
ag421
ag421
ag421
ag268
ag507
ag0
(g75
g2
Ntp1602
Rp1603
(dp1604
g79
g45
sg80
(lp1605
(I7
I12
I0
tp1606
a(I8
I12
I0
tp1607
a(I8
I13
I0
tp1608
ag48
asg123
g48
sg124
I15
sbaI0
aI0
aI0
ag1222
ag1222
ag1222
aI0
ag1326
ag507
ag1603
aI0
aI0
aI0
aI0
aI0
aI0
ag0
(g75
g2
Ntp1609
Rp1610
(dp1611
g79
g54
sg80
(lp1612
(I8
I15
I0
tp1613
a(I8
I14
I0
tp1614
a(I8
I14
I1
tp1615
a(I8
I14
I2
tp1616
a(I8
I14
I3
tp1617
a(I8
I14
I4
tp1618
a(I8
I14
I5
tp1619
a(I8
I14
I6
tp1620
a(I8
I14
I7
tp1621
a(I8
I13
I7
tp1622
a(I9
I13
I7
tp1623
a(I9
I12
I7
tp1624
a(I9
I11
I7
tp1625
a(I9
I10
I7
tp1626
a(I9
I9
I7
tp1627
a(I9
I8
I7
tp1628
a(I9
I8
I6
tp1629
a(I9
I8
I5
tp1630
a(I9
I8
I4
tp1631
a(I9
I9
I4
tp1632
a(I10
I9
I4
tp1633
a(I10
I9
I3
tp1634
a(I11
I9
I3
tp1635
a(I11
I9
I2
tp1636
a(I11
I9
I1
tp1637
a(I11
I8
I1
tp1638
ag37
asg123
g37
sg124
I54
sbag167
ag507
ag1610
ag1610
ag1610
ag1610
ag1610
ag1610
ag1610
ag1610
ag1468
ag507
ag0
(g409
g2
Ntp1639
Rp1640
(dp1641
g413
I46
sg414
I8
sg415
I0
sg416
I15
sbag77
ag77
ag77
ag77
ag77
ag77
ag77
ag77
ag507
ag905
ag905
ag905
ag905
ag905
ag905
ag874
ag1372
aI0
ag544
aI0
aI0
aI0
aI0
ag1178
aI0
aI0
aI0
ag315
ag372
ag583
ag583
ag583
ag583
ag1178
aI0
aI0
aI0
aI0
aI0
aI0
aI0
aI0
aI0
ag1178
aI0
aI0
aI0
aI0
ag945
ag0
(g75
g2
Ntp1642
Rp1643
(dp1644
g79
g20
sg80
(lp1645
(I8
I4
I0
tp1646
a(I9
I4
I0
tp1647
a(I9
I3
I0
tp1648
a(I10
I3
I0
tp1649
a(I11
I3
I0
tp1650
a(I11
I2
I0
tp1651
ag13
asg123
g13
sg124
I12
sbag1519
ag1207
aI0
ag1178
aI0
aI0
aI0
aI0
ag629
ag1643
aI0
aI0
ag1159
ag1178
aI0
aI0
aI0
aI0
ag1533
aI0
aI0
aI0
ag1159
ag1178
aI0
aI0
aI0
ag126
aI0
ag1107
ag1107
ag1107
aI0
aI0
ag1294
ag1259
aI0
aI0
ag741
aI0
aI0
ag0
(g75
g2
Ntp1652
Rp1653
(dp1654
g79
g29
sg80
(lp1655
(I12
I6
I0
tp1656
a(I12
I7
I0
tp1657
a(I12
I7
I1
tp1658
a(I12
I7
I2
tp1659
a(I11
I7
I2
tp1660
a(I10
I7
I2
tp1661
a(I9
I7
I2
tp1662
a(I9
I8
I2
tp1663
a(I9
I9
I2
tp1664
a(I9
I10
I2
tp1665
a(I9
I10
I1
tp1666
ag41
asg123
g41
sg124
I5
sbag1408
aI0
aI0
ag1259
aI0
ag984
ag1069
ag0
(g409
g2
Ntp1667
Rp1668
(dp1669
g413
I28
sg414
I9
sg415
I0
sg416
I8
sbag507
ag1653
ag1408
ag1610
ag1610
ag1610
ag1610
aI0
aI0
aI0
aI0
ag1653
aI0
ag1610
ag0
(g75
g2
Ntp1670
Rp1671
(dp1672
g79
g38
sg80
(lp1673
(I15
I8
I0
tp1674
a(I15
I8
I1
tp1675
a(I15
I8
I2
tp1676
a(I15
I8
I3
tp1677
a(I15
I8
I4
tp1678
a(I15
I8
I5
tp1679
a(I14
I8
I5
tp1680
a(I13
I8
I5
tp1681
a(I12
I8
I5
tp1682
a(I11
I8
I5
tp1683
a(I10
I8
I5
tp1684
a(I10
I9
I5
tp1685
a(I9
I9
I5
tp1686
a(I9
I10
I5
tp1687
a(I9
I11
I5
tp1688
a(I9
I12
I5
tp1689
a(I9
I13
I5
tp1690
a(I9
I13
I4
tp1691
a(I9
I13
I3
tp1692
a(I9
I13
I2
tp1693
a(I9
I13
I1
tp1694
ag48
asg123
g48
sg124
I13
sbaI0
ag1610
ag1431
aI0
ag0
(g409
g2
Ntp1695
Rp1696
(dp1697
g413
I33
sg414
I9
sg415
I0
sg416
I10
sbag1653
ag1653
aI0
aI0
ag1671
ag1576
ag1610
ag786
ag786
ag421
ag421
ag421
ag421
ag421
ag1671
ag1576
ag1610
ag268
aI0
ag1222
ag1222
ag1222
ag1222
ag1222
ag1671
ag1576
ag1610
ag1326
aI0
ag0
(g409
g2
Ntp1698
Rp1699
(dp1700
g413
I40
sg414
I9
sg415
I0
sg416
I13
sbag1671
ag1671
ag1671
ag1671
ag1671
ag1576
ag1610
ag167
aI0
ag0
(g75
g2
Ntp1701
Rp1702
(dp1703
g79
g48
sg80
(lp1704
(I9
I13
I0
tp1705
a(I9
I14
I0
tp1706
a(I10
I14
I0
tp1707
a(I10
I15
I0
tp1708
ag55
asg123
g55
sg124
I47
sbaI0
aI0
aI0
aI0
aI0
ag1576
aI0
ag1468
aI0
aI0
aI0
aI0
aI0
aI0
aI0
aI0
aI0
aI0
aI0
aI0
aI0
ag874
ag874
ag874
ag874
ag874
ag1372
aI0
ag544
ag0
(g75
g2
Ntp1709
Rp1710
(dp1711
g79
g56
sg80
(lp1712
(I13
I15
I0
tp1713
a(I13
I15
I1
tp1714
a(I13
I15
I2
tp1715
a(I13
I15
I3
tp1716
a(I13
I15
I4
tp1717
a(I13
I15
I5
tp1718
a(I13
I15
I6
tp1719
a(I13
I15
I7
tp1720
a(I13
I14
I7
tp1721
a(I13
I13
I7
tp1722
a(I13
I12
I7
tp1723
a(I13
I11
I7
tp1724
a(I13
I10
I7
tp1725
a(I12
I10
I7
tp1726
a(I12
I9
I7
tp1727
a(I12
I8
I7
tp1728
a(I12
I7
I7
tp1729
a(I12
I6
I7
tp1730
a(I12
I5
I7
tp1731
a(I12
I4
I7
tp1732
a(I12
I3
I7
tp1733
a(I12
I2
I7
tp1734
a(I12
I1
I7
tp1735
a(I12
I0
I7
tp1736
a(I11
I0
I7
tp1737
a(I10
I0
I7
tp1738
a(I10
I0
I6
tp1739
a(I10
I0
I5
tp1740
a(I10
I0
I4
tp1741
a(I10
I0
I3
tp1742
a(I10
I0
I2
tp1743
a(I10
I0
I1
tp1744
a(I10
I0
I0
tp1745
ag10
asg123
g10
sg124
I34
sbag1710
ag1710
ag1710
ag1710
ag1710
ag1710
ag1710
ag315
ag372
ag0
(g409
g2
Ntp1746
Rp1747
(dp1748
g413
I2
sg414
I10
sg415
I0
sg416
I1
sbag1294
ag1294
ag1294
ag1294
ag1294
aI0
aI0
ag315
aI0
aI0
aI0
aI0
aI0
aI0
ag1294
aI0
aI0
ag315
ag945
ag1643
ag1519
ag1207
aI0
aI0
ag1294
aI0
aI0
ag315
ag629
ag1207
ag1207
ag1207
ag1159
aI0
ag1294
aI0
ag315
ag315
ag1533
ag0
(g409
g2
Ntp1749
Rp1750
(dp1751
g413
I15
sg414
I10
sg415
I0
sg416
I5
sbag0
(g75
g2
Ntp1752
Rp1753
(dp1754
g79
g23
sg80
(lp1755
(I10
I5
I0
tp1756
a(I10
I5
I1
tp1757
a(I10
I5
I2
tp1758
a(I11
I5
I2
tp1759
a(I12
I5
I2
tp1760
a(I13
I5
I2
tp1761
a(I14
I5
I2
tp1762
a(I14
I6
I2
tp1763
a(I15
I6
I2
tp1764
a(I15
I6
I1
tp1765
ag30
asg123
g30
sg124
I33
sbag1753
aI0
ag1178
ag1294
aI0
ag315
ag126
aI0
ag0
(g409
g2
Ntp1766
Rp1767
(dp1768
g413
I20
sg414
I10
sg415
I0
sg416
I6
sbag1178
ag1178
ag1178
ag1178
ag1294
aI0
ag315
aI0
ag741
aI0
aI0
ag1653
aI0
aI0
aI0
ag1259
ag315
ag984
ag1069
ag0
(g75
g2
Ntp1769
Rp1770
(dp1771
g79
g57
sg80
(lp1772
(I16
I15
I0
tp1773
a(I17
I15
I0
tp1774
a(I17
I15
I1
tp1775
a(I17
I15
I2
tp1776
a(I17
I15
I3
tp1777
a(I17
I15
I4
tp1778
a(I17
I14
I4
tp1779
a(I17
I13
I4
tp1780
a(I17
I12
I4
tp1781
a(I17
I11
I4
tp1782
a(I17
I10
I4
tp1783
a(I17
I9
I4
tp1784
a(I16
I9
I4
tp1785
a(I15
I9
I4
tp1786
a(I14
I9
I4
tp1787
a(I13
I9
I4
tp1788
a(I13
I8
I4
tp1789
a(I13
I8
I3
tp1790
a(I13
I8
I2
tp1791
a(I12
I8
I2
tp1792
a(I11
I8
I2
tp1793
a(I10
I8
I2
tp1794
a(I10
I8
I1
tp1795
a(I10
I8
I0
tp1796
ag36
asg123
g36
sg124
I45
sbag1770
ag1770
ag1408
aI0
ag1671
ag1259
ag315
ag984
aI0
aI0
aI0
aI0
ag1610
ag1610
ag1671
ag1259
ag315
ag1431
aI0
ag0
(g75
g2
Ntp1797
Rp1798
(dp1799
g79
g14
sg80
(lp1800
(I14
I2
I0
tp1801
a(I14
I3
I0
tp1802
a(I14
I3
I1
tp1803
a(I14
I4
I1
tp1804
a(I14
I4
I2
tp1805
a(I14
I4
I3
tp1806
a(I14
I4
I4
tp1807
a(I14
I5
I4
tp1808
a(I13
I5
I4
tp1809
a(I13
I6
I4
tp1810
a(I13
I7
I4
tp1811
a(I12
I7
I4
tp1812
a(I11
I7
I4
tp1813
a(I11
I8
I4
tp1814
a(I11
I9
I4
tp1815
a(I11
I10
I4
tp1816
a(I10
I10
I4
tp1817
a(I10
I10
I3
tp1818
a(I10
I10
I2
tp1819
a(I10
I10
I1
tp1820
a(I10
I10
I0
tp1821
ag41
asg123
g41
sg124
I20
sbag1798
ag1798
ag1798
ag1798
aI0
ag1259
ag315
aI0
ag786
ag167
ag167
ag167
ag167
ag167
ag167
ag1259
ag315
ag268
aI0
ag0
(g409
g2
Ntp1822
Rp1823
(dp1824
g413
I38
sg414
I10
sg415
I0
sg416
I12
sbag0
(g75
g2
Ntp1825
Rp1826
(dp1827
g79
g47
sg80
(lp1828
(I15
I12
I0
tp1829
a(I15
I13
I0
tp1830
a(I15
I13
I1
tp1831
a(I15
I13
I2
tp1832
a(I14
I13
I2
tp1833
a(I13
I13
I2
tp1834
a(I12
I13
I2
tp1835
a(I11
I13
I2
tp1836
a(I11
I12
I2
tp1837
a(I10
I12
I2
tp1838
a(I10
I12
I1
tp1839
ag46
asg123
g46
sg124
I19
sbag1826
aI0
aI0
ag167
ag1259
aI0
ag1326
aI0
ag0
(g75
g2
Ntp1840
Rp1841
(dp1842
g79
g46
sg80
(lp1843
(I10
I12
I0
tp1844
a(I10
I13
I0
tp1845
a(I10
I13
I1
tp1846
a(I10
I13
I2
tp1847
a(I10
I13
I3
tp1848
a(I10
I14
I3
tp1849
a(I10
I15
I3
tp1850
a(I10
I16
I3
tp1851
a(I11
I16
I3
tp1852
a(I12
I16
I3
tp1853
a(I13
I16
I3
tp1854
a(I14
I16
I3
tp1855
a(I15
I16
I3
tp1856
a(I16
I16
I3
tp1857
a(I16
I16
I2
tp1858
a(I16
I16
I1
tp1859
a(I16
I16
I0
tp1860
ag57
asg123
g57
sg124
I36
sbag1841
ag1841
ag1841
aI0
ag167
ag167
ag167
ag167
aI0
ag1702
aI0
aI0
ag1841
aI0
aI0
ag1576
aI0
ag1468
aI0
ag1702
aI0
aI0
ag1841
aI0
aI0
aI0
aI0
aI0
aI0
aI0
aI0
ag874
ag1841
aI0
aI0
aI0
ag1372
aI0
ag544
aI0
aI0
aI0
aI0
aI0
aI0
aI0
ag1710
aI0
ag372
ag0
(g75
g2
Ntp1861
Rp1862
(dp1863
g79
g42
sg80
(lp1864
(I12
I11
I0
tp1865
a(I11
I11
I0
tp1866
a(I11
I11
I1
tp1867
a(I11
I11
I2
tp1868
a(I11
I11
I3
tp1869
a(I11
I11
I4
tp1870
a(I11
I11
I5
tp1871
a(I11
I11
I6
tp1872
a(I11
I10
I6
tp1873
a(I11
I9
I6
tp1874
a(I12
I9
I6
tp1875
a(I12
I8
I6
tp1876
a(I12
I7
I6
tp1877
a(I12
I6
I6
tp1878
a(I12
I5
I6
tp1879
a(I11
I5
I6
tp1880
a(I11
I4
I6
tp1881
a(I11
I3
I6
tp1882
a(I11
I2
I6
tp1883
a(I11
I1
I6
tp1884
a(I11
I1
I5
tp1885
a(I11
I1
I4
tp1886
a(I11
I1
I3
tp1887
a(I11
I1
I2
tp1888
a(I11
I1
I1
tp1889
a(I11
I1
I0
tp1890
ag10
asg123
g10
sg124
I43
sbag1862
ag1862
ag1862
ag1862
ag1862
ag1862
aI0
aI0
aI0
ag1643
aI0
aI0
aI0
aI0
aI0
ag1862
aI0
aI0
ag945
ag1643
ag1519
aI0
aI0
aI0
aI0
ag1862
aI0
aI0
ag629
ag1207
ag1159
ag1159
ag1159
aI0
aI0
ag1862
aI0
aI0
ag1533
ag0
(g409
g2
Ntp1891
Rp1892
(dp1893
g413
I16
sg414
I11
sg415
I0
sg416
I5
sbag1159
ag1753
aI0
aI0
aI0
ag1862
aI0
ag126
aI0
ag1069
ag1069
ag1069
ag1069
ag1069
ag1069
ag1069
ag1069
ag1069
ag741
aI0
aI0
ag1653
aI0
ag1798
ag268
ag268
ag268
ag1069
ag1069
ag0
(g409
g2
Ntp1894
Rp1895
(dp1896
g413
I29
sg414
I11
sg415
I0
sg416
I8
sbag1610
ag1770
ag1408
ag1798
ag1671
aI0
ag268
ag984
aI0
ag1468
ag1610
ag1610
ag1610
ag1798
aI0
ag1862
ag268
ag1431
aI0
aI0
aI0
aI0
aI0
ag1798
aI0
ag1862
ag268
ag268
ag786
ag1862
ag1862
ag1862
ag1862
ag1862
ag1862
ag1862
ag315
ag268
aI0
ag1372
ag1372
ag1826
aI0
aI0
aI0
ag1259
ag315
ag1326
aI0
aI0
aI0
ag1826
aI0
aI0
aI0
aI0
ag315
ag315
aI0
aI0
aI0
aI0
aI0
aI0
aI0
ag1576
aI0
ag1468
aI0
ag0
(g409
g2
Ntp1897
Rp1898
(dp1899
g413
I47
sg414
I11
sg415
I0
sg416
I15
sbag1576
ag1576
ag1576
ag1576
ag1576
ag1576
aI0
aI0
aI0
ag874
ag874
ag874
ag1841
aI0
aI0
aI0
ag1372
aI0
ag544
aI0
aI0
ag0
(g75
g2
Ntp1900
Rp1901
(dp1902
g79
g13
sg80
(lp1903
(I12
I2
I0
tp1904
a(I12
I1
I0
tp1905
a(I12
I1
I1
tp1906
a(I12
I1
I2
tp1907
a(I12
I0
I2
tp1908
a(I12
I0
I3
tp1909
a(I12
I0
I4
tp1910
a(I12
I0
I5
tp1911
a(I12
I0
I6
tp1912
a(I13
I0
I6
tp1913
a(I13
I0
I7
tp1914
a(I13
I0
I8
tp1915
a(I14
I0
I8
tp1916
a(I14
I1
I8
tp1917
a(I14
I2
I8
tp1918
a(I15
I2
I8
tp1919
a(I15
I3
I8
tp1920
a(I15
I4
I8
tp1921
a(I15
I5
I8
tp1922
a(I15
I6
I8
tp1923
a(I15
I7
I8
tp1924
a(I15
I8
I8
tp1925
a(I15
I8
I7
tp1926
a(I15
I9
I7
tp1927
a(I15
I10
I7
tp1928
a(I15
I11
I7
tp1929
a(I15
I12
I7
tp1930
a(I15
I13
I7
tp1931
a(I15
I14
I7
tp1932
a(I14
I14
I7
tp1933
a(I14
I14
I6
tp1934
a(I13
I14
I6
tp1935
a(I13
I14
I5
tp1936
a(I13
I14
I4
tp1937
a(I13
I14
I3
tp1938
a(I13
I14
I2
tp1939
a(I13
I14
I1
tp1940
a(I13
I14
I0
tp1941
ag49
asg123
g49
sg124
I59
sbag1901
ag1901
ag1901
ag1901
ag1710
aI0
ag372
ag1901
ag1901
ag1901
ag0
(g75
g2
Ntp1942
Rp1943
(dp1944
g79
g11
sg80
(lp1945
(I15
I1
I0
tp1946
a(I15
I1
I1
tp1947
a(I15
I1
I2
tp1948
a(I15
I1
I3
tp1949
a(I14
I1
I3
tp1950
a(I13
I1
I3
tp1951
a(I12
I1
I3
tp1952
a(I12
I2
I3
tp1953
a(I12
I3
I3
tp1954
a(I12
I4
I3
tp1955
a(I12
I5
I3
tp1956
a(I12
I6
I3
tp1957
a(I12
I6
I2
tp1958
a(I12
I6
I1
tp1959
ag29
asg123
g29
sg124
I0
sbaI0
aI0
aI0
ag1710
aI0
aI0
ag0
(g409
g2
Ntp1960
Rp1961
(dp1962
g413
I5
sg414
I12
sg415
I0
sg416
I2
sbag0
(g75
g2
Ntp1963
Rp1964
(dp1965
g79
g13
sg80
(lp1966
(I12
I2
I0
tp1967
a(I12
I2
I1
tp1968
a(I12
I2
I2
tp1969
a(I13
I2
I2
tp1970
a(I14
I2
I2
tp1971
a(I14
I3
I2
tp1972
a(I15
I3
I2
tp1973
a(I16
I3
I2
tp1974
a(I16
I4
I2
tp1975
a(I16
I5
I2
tp1976
a(I16
I5
I1
tp1977
ag25
asg123
g25
sg124
I3
sbag1964
ag1943
aI0
aI0
aI0
ag1710
aI0
ag945
ag0
(g409
g2
Ntp1978
Rp1979
(dp1980
g413
I9
sg414
I12
sg415
I0
sg416
I3
sbag1519
aI0
ag1943
aI0
aI0
aI0
ag1710
aI0
ag629
aI0
aI0
aI0
ag1943
aI0
aI0
aI0
ag1710
aI0
ag1533
ag0
(g75
g2
Ntp1981
Rp1982
(dp1983
g79
g24
sg80
(lp1984
(I11
I5
I0
tp1985
a(I12
I5
I0
tp1986
a(I13
I5
I0
tp1987
a(I14
I5
I0
tp1988
a(I14
I4
I0
tp1989
a(I15
I4
I0
tp1990
ag18
asg123
g18
sg124
I22
sbaI0
ag1753
ag1943
aI0
aI0
ag1862
ag1710
ag126
aI0
ag0
(g409
g2
Ntp1991
Rp1992
(dp1993
g413
I21
sg414
I12
sg415
I0
sg416
I6
sbag1943
ag1943
ag1943
aI0
ag268
ag1862
ag1710
aI0
ag741
ag1653
ag1653
ag1653
aI0
ag1798
ag268
ag1862
ag1710
aI0
aI0
ag0
(g75
g2
Ntp1994
Rp1995
(dp1996
g79
g32
sg80
(lp1997
(I13
I7
I0
tp1998
a(I13
I8
I0
tp1999
a(I12
I8
I0
tp2000
ag37
asg123
g37
sg124
I37
sbaI0
ag1770
ag1408
aI0
ag1671
ag1862
ag1710
ag984
aI0
ag1468
ag1468
ag1468
ag1408
aI0
aI0
ag1862
ag1710
ag1431
aI0
ag1408
ag1408
ag1408
ag1408
aI0
aI0
aI0
ag1710
aI0
ag786
ag0
(g409
g2
Ntp2001
Rp2002
(dp2003
g413
I34
sg414
I12
sg415
I0
sg416
I11
sbag544
ag544
ag544
ag544
ag544
ag544
ag544
ag544
ag544
ag0
(g75
g2
Ntp2004
Rp2005
(dp2006
g79
g56
sg80
(lp2007
(I13
I15
I0
tp2008
a(I12
I15
I0
tp2009
a(I12
I14
I0
tp2010
a(I12
I13
I0
tp2011
a(I12
I12
I0
tp2012
ag42
asg123
g42
sg124
I18
sbag1372
ag1372
ag1372
ag1372
ag1372
ag1259
aI0
ag1326
ag544
ag2005
aI0
ag1826
aI0
aI0
ag1372
ag1372
ag1372
ag315
ag544
ag2005
aI0
aI0
aI0
aI0
aI0
aI0
ag1372
ag1468
ag544
ag2005
aI0
aI0
aI0
aI0
aI0
aI0
ag1372
aI0
ag544
aI0
aI0
aI0
ag1841
aI0
aI0
aI0
ag1372
aI0
ag544
aI0
aI0
aI0
aI0
aI0
aI0
ag1901
ag1901
ag1901
ag372
aI0
aI0
aI0
ag1943
aI0
aI0
aI0
aI0
aI0
aI0
ag0
(g75
g2
Ntp2013
Rp2014
(dp2015
g79
g13
sg80
(lp2016
(I12
I2
I0
tp2017
a(I13
I2
I0
tp2018
a(I13
I2
I1
tp2019
a(I13
I3
I1
tp2020
a(I13
I3
I2
tp2021
a(I13
I3
I3
tp2022
a(I13
I3
I4
tp2023
a(I13
I3
I5
tp2024
a(I13
I3
I6
tp2025
a(I14
I3
I6
tp2026
a(I15
I3
I6
tp2027
a(I15
I4
I6
tp2028
a(I15
I5
I6
tp2029
a(I15
I6
I6
tp2030
a(I15
I7
I6
tp2031
a(I15
I8
I6
tp2032
a(I15
I9
I6
tp2033
a(I15
I10
I6
tp2034
a(I15
I11
I6
tp2035
a(I15
I12
I6
tp2036
a(I15
I12
I5
tp2037
a(I15
I12
I4
tp2038
a(I15
I12
I3
tp2039
a(I15
I12
I2
tp2040
a(I15
I12
I1
tp2041
ag47
asg123
g47
sg124
I14
sbag2014
ag1964
aI0
aI0
aI0
aI0
aI0
aI0
ag945
aI0
ag2014
ag2014
ag2014
ag2014
ag2014
ag2014
aI0
aI0
ag629
aI0
aI0
aI0
aI0
aI0
aI0
aI0
aI0
aI0
ag1533
ag1982
aI0
ag1753
aI0
ag1798
aI0
aI0
aI0
ag126
aI0
aI0
aI0
aI0
aI0
ag1798
ag268
aI0
aI0
ag126
ag741
ag0
(g409
g2
Ntp2042
Rp2043
(dp2044
g413
I24
sg414
I13
sg415
I0
sg416
I7
sbaI0
aI0
aI0
ag1798
aI0
ag126
ag126
ag126
aI0
ag1995
aI0
ag1770
ag1770
ag1770
ag1671
aI0
ag984
ag984
aI0
aI0
aI0
ag1468
ag1468
ag1770
aI0
ag984
ag984
ag1431
aI0
aI0
aI0
aI0
ag1468
ag1468
ag1468
ag984
ag1710
aI0
ag786
ag984
ag984
ag984
ag984
ag984
ag984
ag984
ag1710
aI0
aI0
aI0
ag1259
ag1259
ag1259
ag1259
ag1259
ag1259
ag1710
ag1326
aI0
ag0
(g409
g2
Ntp2045
Rp2046
(dp2047
g413
I41
sg414
I13
sg415
I0
sg416
I13
sbag1259
ag1826
aI0
aI0
aI0
aI0
ag1710
ag315
aI0
ag1901
ag1901
ag1901
ag1901
ag1901
ag1901
ag1901
ag1710
ag1468
aI0
ag0
(g409
g2
Ntp2048
Rp2049
(dp2050
g413
I48
sg414
I13
sg415
I0
sg416
I15
sbag1710
ag1710
ag1710
ag1710
ag1710
ag1710
ag1710
aI0
aI0
aI0
aI0
aI0
ag1841
aI0
aI0
aI0
aI0
aI0
aI0
aI0
aI0
ag0
(g75
g2
Ntp2051
Rp2052
(dp2053
g79
g47
sg80
(lp2054
(I15
I12
I0
tp2055
a(I14
I12
I0
tp2056
a(I14
I12
I1
tp2057
a(I14
I12
I2
tp2058
a(I14
I12
I3
tp2059
a(I14
I12
I4
tp2060
a(I14
I12
I5
tp2061
a(I14
I12
I6
tp2062
a(I14
I12
I7
tp2063
a(I14
I11
I7
tp2064
a(I14
I10
I7
tp2065
a(I14
I9
I7
tp2066
a(I14
I8
I7
tp2067
a(I14
I7
I7
tp2068
a(I14
I6
I7
tp2069
a(I14
I5
I7
tp2070
a(I14
I4
I7
tp2071
a(I14
I3
I7
tp2072
a(I14
I2
I7
tp2073
a(I14
I1
I7
tp2074
a(I14
I0
I7
tp2075
a(I14
I0
I6
tp2076
a(I14
I0
I5
tp2077
a(I14
I0
I4
tp2078
a(I14
I0
I3
tp2079
a(I14
I0
I2
tp2080
a(I14
I1
I2
tp2081
a(I14
I1
I1
tp2082
a(I14
I1
I0
tp2083
ag11
asg123
g11
sg124
I17
sbag2052
ag2052
ag2052
ag2052
ag2052
ag1901
ag372
ag2052
ag2052
ag2052
ag1943
aI0
aI0
aI0
ag2052
ag1901
aI0
ag0
(g409
g2
Ntp2084
Rp2085
(dp2086
g413
I6
sg414
I14
sg415
I0
sg416
I2
sbag0
(g75
g2
Ntp2087
Rp2088
(dp2089
g79
g33
sg80
(lp2090
(I16
I7
I0
tp2091
a(I16
I7
I1
tp2092
a(I16
I7
I2
tp2093
a(I16
I7
I3
tp2094
a(I15
I7
I3
tp2095
a(I15
I6
I3
tp2096
a(I15
I5
I3
tp2097
a(I15
I4
I3
tp2098
a(I15
I3
I3
tp2099
a(I15
I2
I3
tp2100
a(I15
I2
I2
tp2101
a(I15
I2
I1
tp2102
a(I14
I2
I1
tp2103
ag14
asg123
g14
sg124
I9
sbag1964
aI0
aI0
aI0
aI0
ag2052
ag1901
ag945
ag1798
ag1798
ag1964
aI0
aI0
aI0
ag2014
ag2052
aI0
ag629
ag1982
ag1798
ag1798
ag1798
ag1798
aI0
aI0
ag2052
aI0
ag1533
ag1982
aI0
ag1753
aI0
ag1798
aI0
aI0
ag2052
aI0
aI0
aI0
aI0
ag1753
ag268
ag268
ag268
aI0
ag2052
aI0
ag741
aI0
aI0
ag268
ag268
ag126
ag126
ag126
ag2052
aI0
aI0
ag126
ag126
ag126
ag126
ag126
ag1671
aI0
ag2052
aI0
aI0
aI0
aI0
aI0
aI0
ag1770
aI0
aI0
ag2052
ag1431
aI0
aI0
aI0
aI0
aI0
aI0
ag1468
aI0
ag2052
aI0
ag786
aI0
aI0
aI0
aI0
aI0
aI0
aI0
ag2052
ag1326
aI0
ag2052
ag2052
ag2052
ag2052
ag2052
ag2052
ag2052
ag2052
ag1326
aI0
aI0
aI0
ag1826
aI0
aI0
aI0
aI0
aI0
ag315
aI0
aI0
aI0
aI0
aI0
aI0
aI0
ag1901
ag1901
ag1468
aI0
aI0
aI0
aI0
aI0
aI0
aI0
aI0
aI0
aI0
aI0
aI0
aI0
aI0
ag1841
aI0
aI0
aI0
aI0
aI0
aI0
ag372
ag372
ag372
ag372
ag372
ag372
ag372
ag372
ag372
ag372
ag0
(g409
g2
Ntp2104
Rp2105
(dp2106
g413
I3
sg414
I15
sg415
I0
sg416
I1
sbag1943
ag1943
ag1943
aI0
aI0
aI0
aI0
aI0
aI0
ag0
(g75
g2
Ntp2107
Rp2108
(dp2109
g79
g11
sg80
(lp2110
(I15
I1
I0
tp2111
a(I15
I2
I0
tp2112
ag18
asg123
g18
sg124
I2
sbag2088
ag2088
ag2088
aI0
aI0
aI0
aI0
ag1901
ag945
ag0
(g409
g2
Ntp2113
Rp2114
(dp2115
g413
I10
sg414
I15
sg415
I0
sg416
I3
sbag629
ag1964
ag2088
aI0
aI0
ag2014
aI0
ag1901
ag629
ag1982
aI0
aI0
ag2088
aI0
aI0
ag2014
aI0
ag1901
ag1533
aI0
aI0
aI0
ag2088
aI0
aI0
ag2014
aI0
ag1901
aI0
ag0
(g409
g2
Ntp2116
Rp2117
(dp2118
g413
I22
sg414
I15
sg415
I0
sg416
I6
sbag1753
ag1753
ag2088
aI0
aI0
ag2014
aI0
ag1901
ag741
ag268
ag268
ag268
ag2088
aI0
aI0
ag2014
aI0
ag1901
aI0
ag0
(g409
g2
Ntp2119
Rp2120
(dp2121
g413
I30
sg414
I15
sg415
I0
sg416
I8
sbag1671
ag1671
ag1671
ag1671
ag1671
ag2014
ag1901
ag1901
aI0
aI0
aI0
aI0
aI0
ag1770
aI0
ag2014
ag1901
ag1431
aI0
aI0
aI0
aI0
aI0
aI0
ag1468
ag2014
ag1901
aI0
ag786
ag315
ag315
ag315
ag315
ag315
ag315
ag2014
ag1901
ag1326
ag786
ag0
(g409
g2
Ntp2122
Rp2123
(dp2124
g413
I39
sg414
I15
sg415
I0
sg416
I12
sbag2014
ag2014
ag2014
ag2014
ag2014
ag2014
ag1901
aI0
ag786
ag1826
ag1826
ag1826
aI0
aI0
aI0
aI0
ag1901
ag315
aI0
aI0
aI0
aI0
aI0
aI0
aI0
aI0
ag1901
ag1468
aI0
aI0
aI0
aI0
aI0
aI0
aI0
aI0
aI0
aI0
aI0
aI0
aI0
aI0
ag1841
aI0
aI0
aI0
aI0
aI0
aI0
aI0
aI0
aI0
aI0
aI0
aI0
aI0
aI0
aI0
aI0
ag945
ag945
ag945
ag945
ag945
ag945
ag945
ag945
ag945
ag945
aI0
aI0
aI0
aI0
aI0
aI0
aI0
aI0
aI0
ag945
aI0
ag629
ag1964
aI0
aI0
aI0
aI0
aI0
aI0
ag629
aI0
aI0
ag1964
aI0
aI0
aI0
aI0
aI0
aI0
ag1533
ag0
(g409
g2
Ntp2125
Rp2126
(dp2127
g413
I17
sg414
I16
sg415
I0
sg416
I5
sbag1964
ag1964
aI0
aI0
aI0
aI0
aI0
ag741
ag741
ag0
(g75
g2
Ntp2128
Rp2129
(dp2130
g79
g33
sg80
(lp2131
(I16
I7
I0
tp2132
a(I16
I6
I0
tp2133
ag25
asg123
g25
sg124
I23
sbaI0
aI0
aI0
aI0
aI0
aI0
aI0
aI0
ag741
ag0
(g409
g2
Ntp2134
Rp2135
(dp2136
g413
I25
sg414
I16
sg415
I0
sg416
I7
sbag2088
ag2088
ag2088
aI0
aI0
aI0
aI0
aI0
aI0
ag1326
ag1326
ag1326
ag1326
ag1326
ag1326
ag1326
ag1326
aI0
aI0
aI0
aI0
aI0
aI0
ag1770
aI0
aI0
ag1326
ag1431
aI0
aI0
aI0
aI0
aI0
aI0
ag1468
aI0
ag1326
ag1326
aI0
aI0
aI0
aI0
aI0
aI0
ag315
aI0
aI0
ag1326
aI0
ag786
ag786
ag786
ag786
ag786
ag786
ag786
ag786
ag786
ag786
aI0
aI0
aI0
aI0
aI0
aI0
aI0
ag315
ag315
aI0
aI0
aI0
aI0
aI0
aI0
aI0
aI0
aI0
ag1468
aI0
ag0
(g409
g2
Ntp2137
Rp2138
(dp2139
g413
I49
sg414
I16
sg415
I0
sg416
I15
sbag1533
ag1533
ag1533
ag1533
ag1533
aI0
aI0
aI0
aI0
ag1841
ag1841
ag1841
ag1841
aI0
aI0
aI0
aI0
aI0
aI0
aI0
aI0
aI0
aI0
aI0
aI0
aI0
aI0
aI0
aI0
aI0
aI0
aI0
aI0
aI0
aI0
aI0
aI0
aI0
aI0
aI0
aI0
aI0
aI0
aI0
aI0
aI0
aI0
aI0
aI0
aI0
ag629
ag629
ag629
ag629
ag629
ag629
ag629
ag629
ag629
aI0
aI0
aI0
aI0
aI0
aI0
aI0
aI0
aI0
ag1533
ag741
ag741
ag741
ag741
ag741
ag741
ag741
ag741
ag741
ag1533
aI0
aI0
aI0
aI0
aI0
aI0
aI0
aI0
aI0
ag1533
ag1431
ag1431
ag1431
ag1431
ag1431
ag1431
ag1431
ag1431
ag1431
ag1533
aI0
aI0
aI0
aI0
aI0
aI0
aI0
aI0
ag1431
ag1533
aI0
aI0
aI0
aI0
ag1770
aI0
aI0
aI0
ag1431
ag1533
aI0
aI0
aI0
aI0
ag1770
ag1468
ag1468
ag1468
aI0
ag1533
aI0
aI0
aI0
aI0
ag1770
ag315
ag315
ag1468
ag1468
ag1533
aI0
aI0
aI0
aI0
ag1770
aI0
ag315
ag315
ag1468
ag1533
aI0
aI0
aI0
aI0
ag1770
aI0
aI0
ag315
ag1468
ag1533
aI0
aI0
aI0
aI0
ag1770
aI0
aI0
aI0
ag1468
ag1533
ag1770
ag1770
ag1770
ag1770
ag1770
ag1533
ag1533
ag1533
ag1533
ag1533
aI0
aI0
aI0
aI0
aI0
aI0
aI0
aI0
aI0
aI0
atp2140
bsS'x_dim'
p2141
I18
sS'nets'
p2142
(dp2143
I0
g1943
sI1
g372
sI2
g2108
sI3
g1964
sI4
g1533
sI5
g1653
sI6
g507
sI7
g1052
sI8
g483
sI9
g2088
sI10
g741
sI11
g945
sI12
g1643
sI13
g1671
sI14
g2014
sI15
g1603
sI16
g544
sI17
g2052
sI18
g2005
sI19
g1826
sI20
g1798
sI21
g421
sI22
g1982
sI23
g2129
sI24
g672
sI25
g1294
sI26
g1178
sI27
g1133
sI28
g1408
sI29
g629
sI30
g689
sI31
g1069
sI32
g1107
sI33
g1753
sI34
g1710
sI35
g1431
sI36
g1841
sI37
g1995
sI38
g1159
sI39
g126
sI40
g1207
sI41
g77
sI42
g1259
sI43
g1862
sI44
g456
sI45
g1770
sI46
g1576
sI47
g1702
sI48
g1027
sI49
g905
sI50
g1222
sI51
g984
sI52
g786
sI53
g874
sI54
g1610
sI55
g1519
sI56
g167
sI57
g1326
sI58
g211
sI59
g1901
sI60
g1468
sI61
g1372
sI62
g268
sI63
g244
sI64
g831
sI65
g583
sI66
g723
sI67
g1512
sI68
g937
sI69
g315
ssb.