ccopy_reg
_reconstructor
p0
(cmodules.Objects
Board
p1
c__builtin__
object
p2
Ntp3
Rp4
(dp5
S'gates'
p6
(dp7
I0
(I1
I1
I0
tp8
sI1
(I6
I1
I0
tp9
sI2
(I10
I1
I0
tp10
sI3
(I15
I1
I0
tp11
sI4
(I3
I2
I0
tp12
sI5
(I12
I2
I0
tp13
sI6
(I14
I2
I0
tp14
sI7
(I12
I3
I0
tp15
sI8
(I8
I4
I0
tp16
sI9
(I1
I5
I0
tp17
sI10
(I4
I5
I0
tp18
sI11
(I11
I5
I0
tp19
sI12
(I16
I5
I0
tp20
sI13
(I13
I7
I0
tp21
sI14
(I16
I7
I0
tp22
sI15
(I2
I8
I0
tp23
sI16
(I6
I8
I0
tp24
sI17
(I9
I8
I0
tp25
sI18
(I11
I8
I0
tp26
sI19
(I15
I8
I0
tp27
sI20
(I1
I9
I0
tp28
sI21
(I2
I10
I0
tp29
sI22
(I9
I10
I0
tp30
sI23
(I1
I11
I0
tp31
sI24
(I12
I11
I0
tp32
ssS'y_dim'
p33
I13
sS'z_dim'
p34
I5
sS'board'
p35
cnumpy.core.multiarray
_reconstruct
p36
(cnumpy
ndarray
p37
(I0
tp38
S'b'
p39
tp40
Rp41
(I1
(I18
I13
I5
tp42
cnumpy
dtype
p43
(S'O8'
p44
I0
I1
tp45
Rp46
(I3
S'|'
p47
NNNI-1
I-1
I63
tp48
bI00
(lp49
I0
aI0
aI0
ag0
(cmodules.Objects
Net
p50
g2
Ntp51
Rp52
(dp53
S'start_gate'
p54
g10
sS'path'
p55
(lp56
(I10
I1
I0
tp57
a(I10
I0
I0
tp58
a(I10
I0
I1
tp59
a(I10
I0
I2
tp60
a(I10
I0
I3
tp61
a(I9
I0
I3
tp62
a(I8
I0
I3
tp63
a(I7
I0
I3
tp64
a(I6
I0
I3
tp65
a(I5
I0
I3
tp66
a(I4
I0
I3
tp67
a(I3
I0
I3
tp68
a(I2
I0
I3
tp69
a(I1
I0
I3
tp70
a(I0
I0
I3
tp71
a(I0
I1
I3
tp72
a(I0
I2
I3
tp73
a(I0
I3
I3
tp74
a(I0
I4
I3
tp75
a(I0
I5
I3
tp76
a(I0
I6
I3
tp77
a(I0
I7
I3
tp78
a(I0
I8
I3
tp79
a(I0
I9
I3
tp80
a(I0
I9
I2
tp81
a(I0
I9
I1
tp82
a(I0
I9
I0
tp83
ag28
asS'end_gate'
p84
g28
sS'net_id'
p85
I18
sbag0
(g50
g2
Ntp86
Rp87
(dp88
g54
g11
sg55
(lp89
(I15
I1
I0
tp90
a(I15
I1
I1
tp91
a(I15
I1
I2
tp92
a(I15
I1
I3
tp93
a(I15
I1
I4
tp94
a(I15
I0
I4
tp95
a(I14
I0
I4
tp96
a(I13
I0
I4
tp97
a(I12
I0
I4
tp98
a(I11
I0
I4
tp99
a(I10
I0
I4
tp100
a(I9
I0
I4
tp101
a(I8
I0
I4
tp102
a(I7
I0
I4
tp103
a(I6
I0
I4
tp104
a(I5
I0
I4
tp105
a(I4
I0
I4
tp106
a(I3
I0
I4
tp107
a(I2
I0
I4
tp108
a(I1
I0
I4
tp109
a(I0
I0
I4
tp110
a(I0
I1
I4
tp111
a(I0
I2
I4
tp112
a(I0
I3
I4
tp113
a(I0
I4
I4
tp114
a(I0
I5
I4
tp115
a(I0
I6
I4
tp116
a(I0
I7
I4
tp117
a(I0
I8
I4
tp118
a(I0
I9
I4
tp119
a(I0
I10
I4
tp120
a(I0
I11
I4
tp121
a(I0
I11
I3
tp122
a(I0
I11
I2
tp123
a(I0
I11
I1
tp124
a(I0
I11
I0
tp125
ag31
asg84
g31
sg85
I6
sbaI0
aI0
aI0
ag52
ag87
aI0
aI0
aI0
ag52
ag87
aI0
aI0
aI0
ag52
ag87
aI0
aI0
aI0
ag52
ag87
aI0
aI0
aI0
ag52
ag87
aI0
aI0
aI0
ag52
ag87
aI0
aI0
aI0
ag52
ag87
aI0
aI0
aI0
ag52
ag87
ag52
ag52
ag52
ag52
ag87
aI0
aI0
aI0
aI0
ag87
ag87
ag87
ag87
ag87
ag87
aI0
aI0
aI0
aI0
aI0
aI0
aI0
aI0
ag52
ag87
ag0
(cmodules.Objects
Gate
p126
g2
Ntp127
Rp128
(dp129
S'gate_id'
p130
I0
sS'x'
p131
I1
sS'z'
p132
I0
sS'y'
p133
I1
sbag0
(g50
g2
Ntp134
Rp135
(dp136
g54
g11
sg55
(lp137
(I15
I1
I0
tp138
a(I16
I1
I0
tp139
a(I16
I1
I1
tp140
a(I16
I1
I2
tp141
a(I16
I1
I3
tp142
a(I16
I1
I4
tp143
a(I16
I2
I4
tp144
a(I16
I3
I4
tp145
a(I15
I3
I4
tp146
a(I14
I3
I4
tp147
a(I13
I3
I4
tp148
a(I12
I3
I4
tp149
a(I11
I3
I4
tp150
a(I11
I3
I3
tp151
a(I10
I3
I3
tp152
a(I9
I3
I3
tp153
a(I8
I3
I3
tp154
a(I7
I3
I3
tp155
a(I6
I3
I3
tp156
a(I5
I3
I3
tp157
a(I4
I3
I3
tp158
a(I3
I3
I3
tp159
a(I2
I3
I3
tp160
a(I1
I3
I3
tp161
a(I1
I2
I3
tp162
a(I1
I1
I3
tp163
a(I1
I1
I2
tp164
a(I1
I1
I1
tp165
ag8
asg84
g8
sg85
I23
sbag135
ag135
aI0
aI0
aI0
aI0
ag135
aI0
aI0
ag0
(g50
g2
Ntp166
Rp167
(dp168
g54
g15
sg55
(lp169
(I12
I3
I0
tp170
a(I11
I3
I0
tp171
a(I10
I3
I0
tp172
a(I10
I3
I1
tp173
a(I9
I3
I1
tp174
a(I8
I3
I1
tp175
a(I7
I3
I1
tp176
a(I6
I3
I1
tp177
a(I5
I3
I1
tp178
a(I4
I3
I1
tp179
a(I3
I3
I1
tp180
a(I2
I3
I1
tp181
a(I1
I3
I1
tp182
a(I1
I4
I1
tp183
a(I1
I4
I0
tp184
ag17
asg84
g17
sg85
I26
sbaI0
ag135
aI0
ag167
ag167
ag0
(g50
g2
Ntp185
Rp186
(dp187
g54
g23
sg55
(lp188
(I2
I8
I0
tp189
a(I1
I8
I0
tp190
a(I1
I8
I1
tp191
a(I1
I8
I2
tp192
a(I1
I7
I2
tp193
a(I1
I6
I2
tp194
a(I1
I5
I2
tp195
a(I1
I4
I2
tp196
a(I2
I4
I2
tp197
a(I3
I4
I2
tp198
a(I4
I4
I2
tp199
a(I5
I4
I2
tp200
a(I6
I4
I2
tp201
a(I7
I4
I2
tp202
a(I7
I3
I2
tp203
a(I8
I3
I2
tp204
a(I9
I3
I2
tp205
a(I10
I3
I2
tp206
a(I11
I3
I2
tp207
a(I11
I3
I1
tp208
a(I11
I2
I1
tp209
a(I11
I2
I0
tp210
ag13
asg84
g13
sg85
I24
sbaI0
aI0
ag0
(g126
g2
Ntp211
Rp212
(dp213
g130
I9
sg131
I1
sg132
I0
sg133
I5
sbag0
(g50
g2
Ntp214
Rp215
(dp216
g54
g24
sg55
(lp217
(I6
I8
I0
tp218
a(I6
I8
I1
tp219
a(I6
I7
I1
tp220
a(I5
I7
I1
tp221
a(I5
I6
I1
tp222
a(I4
I6
I1
tp223
a(I3
I6
I1
tp224
a(I2
I6
I1
tp225
a(I1
I6
I1
tp226
a(I1
I5
I1
tp227
ag17
asg84
g17
sg85
I21
sbag186
aI0
aI0
aI0
ag215
ag186
aI0
aI0
aI0
aI0
ag186
ag0
(g50
g2
Ntp228
Rp229
(dp230
g54
g28
sg55
(lp231
(I1
I9
I0
tp232
a(I1
I9
I1
tp233
a(I1
I9
I2
tp234
a(I1
I9
I3
tp235
a(I1
I8
I3
tp236
a(I1
I7
I3
tp237
a(I2
I7
I3
tp238
a(I2
I6
I3
tp239
a(I2
I5
I3
tp240
a(I3
I5
I3
tp241
a(I4
I5
I3
tp242
a(I4
I5
I2
tp243
a(I4
I5
I1
tp244
ag18
asg84
g18
sg85
I10
sbaI0
ag186
ag186
ag186
ag229
aI0
ag0
(g126
g2
Ntp245
Rp246
(dp247
g130
I20
sg131
I1
sg132
I0
sg133
I9
sbag229
ag229
ag229
aI0
ag0
(g50
g2
Ntp248
Rp249
(dp250
g54
g28
sg55
(lp251
(I1
I9
I0
tp252
a(I1
I10
I0
tp253
a(I1
I10
I1
tp254
a(I1
I10
I2
tp255
a(I1
I10
I3
tp256
a(I2
I10
I3
tp257
a(I3
I10
I3
tp258
a(I4
I10
I3
tp259
a(I5
I10
I3
tp260
a(I6
I10
I3
tp261
a(I7
I10
I3
tp262
a(I7
I9
I3
tp263
a(I8
I9
I3
tp264
a(I9
I9
I3
tp265
a(I10
I9
I3
tp266
a(I11
I9
I3
tp267
a(I12
I9
I3
tp268
a(I13
I9
I3
tp269
a(I14
I9
I3
tp270
a(I15
I9
I3
tp271
a(I15
I9
I2
tp272
a(I15
I9
I1
tp273
a(I15
I9
I0
tp274
ag27
asg84
g27
sg85
I20
sbag249
ag249
ag249
aI0
ag0
(g126
g2
Ntp275
Rp276
(dp277
g130
I23
sg131
I1
sg132
I0
sg133
I11
sbag0
(g50
g2
Ntp278
Rp279
(dp280
g54
g31
sg55
(lp281
(I1
I11
I0
tp282
a(I1
I11
I1
tp283
a(I1
I11
I2
tp284
a(I1
I11
I3
tp285
a(I1
I11
I4
tp286
a(I2
I11
I4
tp287
a(I3
I11
I4
tp288
a(I3
I10
I4
tp289
a(I3
I9
I4
tp290
a(I3
I8
I4
tp291
a(I3
I7
I4
tp292
a(I3
I6
I4
tp293
a(I3
I5
I4
tp294
a(I3
I4
I4
tp295
a(I3
I3
I4
tp296
a(I3
I2
I4
tp297
a(I3
I2
I3
tp298
a(I3
I2
I2
tp299
a(I3
I2
I1
tp300
ag12
asg84
g12
sg85
I0
sbag279
ag279
ag279
ag0
(g50
g2
Ntp301
Rp302
(dp303
g54
g31
sg55
(lp304
(I1
I11
I0
tp305
a(I1
I12
I0
tp306
a(I1
I12
I1
tp307
a(I1
I12
I2
tp308
a(I1
I12
I3
tp309
a(I1
I12
I4
tp310
a(I2
I12
I4
tp311
a(I3
I12
I4
tp312
a(I4
I12
I4
tp313
a(I5
I12
I4
tp314
a(I6
I12
I4
tp315
a(I7
I12
I4
tp316
a(I8
I12
I4
tp317
a(I8
I11
I4
tp318
a(I8
I10
I4
tp319
a(I8
I9
I4
tp320
a(I8
I8
I4
tp321
a(I8
I7
I4
tp322
a(I8
I6
I4
tp323
a(I8
I5
I4
tp324
a(I8
I4
I4
tp325
a(I8
I4
I3
tp326
a(I8
I4
I2
tp327
a(I8
I4
I1
tp328
ag16
asg84
g16
sg85
I7
sbag302
ag302
ag302
ag302
aI0
aI0
aI0
ag52
ag87
ag0
(g50
g2
Ntp329
Rp330
(dp331
g54
g9
sg55
(lp332
(I6
I1
I0
tp333
a(I5
I1
I0
tp334
a(I4
I1
I0
tp335
a(I3
I1
I0
tp336
a(I2
I1
I0
tp337
ag8
asg84
g8
sg85
I2
sbaI0
aI0
aI0
aI0
aI0
aI0
aI0
aI0
aI0
aI0
ag167
aI0
ag135
aI0
aI0
aI0
ag186
aI0
aI0
ag0
(g50
g2
Ntp338
Rp339
(dp340
g54
g17
sg55
(lp341
(I1
I5
I0
tp342
a(I2
I5
I0
tp343
a(I2
I5
I1
tp344
a(I3
I5
I1
tp345
a(I3
I4
I1
tp346
a(I4
I4
I1
tp347
a(I5
I4
I1
tp348
a(I5
I5
I1
tp349
a(I5
I5
I2
tp350
a(I5
I5
I3
tp351
a(I6
I5
I3
tp352
a(I7
I5
I3
tp353
a(I7
I6
I3
tp354
a(I7
I7
I3
tp355
a(I8
I7
I3
tp356
a(I9
I7
I3
tp357
a(I10
I7
I3
tp358
a(I11
I7
I3
tp359
a(I12
I7
I3
tp360
a(I12
I8
I3
tp361
a(I13
I8
I3
tp362
a(I13
I8
I2
tp363
a(I13
I8
I1
tp364
a(I13
I8
I0
tp365
ag21
asg84
g21
sg85
I27
sbag339
aI0
ag229
aI0
aI0
ag215
aI0
ag229
aI0
ag0
(g50
g2
Ntp366
Rp367
(dp368
g54
g23
sg55
(lp369
(I2
I8
I0
tp370
a(I2
I7
I0
tp371
a(I2
I7
I1
tp372
a(I2
I7
I2
tp373
a(I3
I7
I2
tp374
a(I3
I6
I2
tp375
a(I4
I6
I2
tp376
a(I5
I6
I2
tp377
a(I6
I6
I2
tp378
a(I7
I6
I2
tp379
a(I8
I6
I2
tp380
a(I8
I5
I2
tp381
a(I8
I5
I1
tp382
a(I8
I5
I0
tp383
ag16
asg84
g16
sg85
I11
sbag367
ag367
ag229
aI0
ag0
(g126
g2
Ntp384
Rp385
(dp386
g130
I15
sg131
I2
sg132
I0
sg133
I8
sbag0
(g50
g2
Ntp387
Rp388
(dp389
g54
g23
sg55
(lp390
(I2
I8
I0
tp391
a(I2
I8
I1
tp392
a(I2
I8
I2
tp393
a(I3
I8
I2
tp394
a(I4
I8
I2
tp395
a(I5
I8
I2
tp396
a(I6
I8
I2
tp397
a(I7
I8
I2
tp398
a(I8
I8
I2
tp399
a(I9
I8
I2
tp400
a(I9
I8
I1
tp401
ag25
asg84
g25
sg85
I9
sbag388
aI0
aI0
ag0
(g50
g2
Ntp402
Rp403
(dp404
g54
g23
sg55
(lp405
(I2
I8
I0
tp406
a(I2
I9
I0
tp407
ag29
asg84
g29
sg85
I3
sbaI0
aI0
aI0
aI0
ag0
(g126
g2
Ntp408
Rp409
(dp410
g130
I21
sg131
I2
sg132
I0
sg133
I10
sbaI0
aI0
ag249
aI0
aI0
aI0
aI0
aI0
ag279
aI0
aI0
aI0
aI0
ag302
aI0
aI0
aI0
ag52
ag87
ag330
aI0
aI0
aI0
aI0
ag0
(g126
g2
Ntp411
Rp412
(dp413
g130
I4
sg131
I3
sg132
I0
sg133
I2
sbag279
ag279
ag279
ag279
ag0
(g50
g2
Ntp414
Rp415
(dp416
g54
g18
sg55
(lp417
(I4
I5
I0
tp418
a(I3
I5
I0
tp419
a(I3
I4
I0
tp420
a(I3
I3
I0
tp421
ag12
asg84
g12
sg85
I15
sbag167
aI0
ag135
ag279
ag415
ag339
ag186
aI0
ag279
ag415
ag339
aI0
ag229
ag279
aI0
ag215
ag367
aI0
ag279
aI0
aI0
ag367
aI0
ag279
ag0
(g50
g2
Ntp422
Rp423
(dp424
g54
g11
sg55
(lp425
(I15
I1
I0
tp426
a(I15
I2
I0
tp427
a(I15
I2
I1
tp428
a(I15
I2
I2
tp429
a(I15
I2
I3
tp430
a(I14
I2
I3
tp431
a(I13
I2
I3
tp432
a(I12
I2
I3
tp433
a(I11
I2
I3
tp434
a(I10
I2
I3
tp435
a(I9
I2
I3
tp436
a(I9
I2
I4
tp437
a(I8
I2
I4
tp438
a(I7
I2
I4
tp439
a(I6
I2
I4
tp440
a(I5
I2
I4
tp441
a(I5
I3
I4
tp442
a(I5
I4
I4
tp443
a(I5
I5
I4
tp444
a(I5
I6
I4
tp445
a(I5
I7
I4
tp446
a(I4
I7
I4
tp447
a(I4
I7
I3
tp448
a(I4
I7
I2
tp449
a(I4
I7
I1
tp450
a(I4
I8
I1
tp451
a(I3
I8
I1
tp452
a(I3
I8
I0
tp453
ag23
asg84
g23
sg85
I17
sbag423
ag388
aI0
ag279
aI0
aI0
aI0
aI0
ag279
aI0
aI0
aI0
ag249
ag279
aI0
aI0
aI0
aI0
ag279
aI0
aI0
aI0
aI0
ag302
aI0
aI0
aI0
ag52
ag87
ag330
aI0
aI0
aI0
aI0
ag0
(g50
g2
Ntp454
Rp455
(dp456
g54
g11
sg55
(lp457
(I15
I1
I0
tp458
a(I15
I0
I0
tp459
a(I15
I0
I1
tp460
a(I15
I0
I2
tp461
a(I14
I0
I2
tp462
a(I13
I0
I2
tp463
a(I12
I0
I2
tp464
a(I11
I0
I2
tp465
a(I11
I1
I2
tp466
a(I11
I2
I2
tp467
a(I10
I2
I2
tp468
a(I9
I2
I2
tp469
a(I8
I2
I2
tp470
a(I7
I2
I2
tp471
a(I6
I2
I2
tp472
a(I5
I2
I2
tp473
a(I4
I2
I2
tp474
a(I4
I2
I1
tp475
a(I4
I2
I0
tp476
ag12
asg84
g12
sg85
I19
sbag455
ag455
aI0
aI0
aI0
ag167
aI0
ag135
aI0
aI0
ag339
ag186
aI0
aI0
ag0
(g126
g2
Ntp477
Rp478
(dp479
g130
I10
sg131
I4
sg132
I0
sg133
I5
sbag229
ag229
ag229
aI0
aI0
ag215
ag367
aI0
aI0
aI0
ag423
ag423
ag423
ag423
aI0
ag423
ag388
aI0
aI0
aI0
aI0
aI0
aI0
aI0
aI0
aI0
aI0
ag249
aI0
aI0
aI0
aI0
aI0
aI0
aI0
aI0
aI0
aI0
ag302
aI0
aI0
aI0
ag52
ag87
ag330
aI0
aI0
aI0
aI0
aI0
aI0
ag455
aI0
ag423
aI0
ag167
aI0
ag135
ag423
aI0
ag339
ag186
aI0
ag423
ag0
(g50
g2
Ntp480
Rp481
(dp482
g54
g18
sg55
(lp483
(I4
I5
I0
tp484
a(I5
I5
I0
tp485
a(I6
I5
I0
tp486
a(I6
I5
I1
tp487
a(I7
I5
I1
tp488
a(I7
I6
I1
tp489
a(I8
I6
I1
tp490
a(I9
I6
I1
tp491
a(I9
I6
I2
tp492
a(I10
I6
I2
tp493
a(I10
I5
I2
tp494
a(I10
I4
I2
tp495
a(I11
I4
I2
tp496
a(I12
I4
I2
tp497
a(I12
I4
I1
tp498
a(I12
I3
I1
tp499
ag15
asg84
g15
sg85
I29
sbag339
ag339
ag339
ag423
aI0
ag215
ag367
aI0
ag423
aI0
ag215
aI0
aI0
ag423
aI0
aI0
ag388
aI0
aI0
aI0
aI0
aI0
aI0
aI0
aI0
aI0
aI0
ag249
aI0
aI0
aI0
aI0
aI0
aI0
aI0
aI0
aI0
aI0
ag302
aI0
aI0
aI0
ag52
ag87
ag0
(g126
g2
Ntp500
Rp501
(dp502
g130
I1
sg131
I6
sg132
I0
sg133
I1
sbaI0
aI0
aI0
aI0
aI0
aI0
ag455
aI0
ag423
aI0
ag167
aI0
ag135
aI0
aI0
aI0
ag186
aI0
aI0
ag481
ag481
aI0
ag339
aI0
aI0
aI0
ag367
aI0
aI0
aI0
ag215
aI0
aI0
aI0
ag0
(g126
g2
Ntp503
Rp504
(dp505
g130
I16
sg131
I6
sg132
I0
sg133
I8
sbag215
ag388
aI0
aI0
ag0
(g50
g2
Ntp506
Rp507
(dp508
g54
g30
sg55
(lp509
(I9
I10
I0
tp510
a(I8
I10
I0
tp511
a(I7
I10
I0
tp512
a(I6
I10
I0
tp513
a(I6
I9
I0
tp514
ag24
asg84
g24
sg85
I28
sbaI0
aI0
aI0
aI0
ag507
aI0
aI0
ag249
aI0
aI0
aI0
aI0
aI0
aI0
aI0
aI0
aI0
aI0
ag302
aI0
aI0
aI0
ag52
ag87
aI0
aI0
aI0
aI0
aI0
aI0
aI0
ag455
aI0
ag423
aI0
ag167
ag186
ag135
aI0
aI0
aI0
ag186
aI0
aI0
aI0
ag481
aI0
ag339
aI0
aI0
ag481
ag367
ag339
aI0
aI0
aI0
aI0
ag339
aI0
aI0
aI0
ag388
aI0
aI0
aI0
aI0
aI0
ag249
aI0
ag507
aI0
aI0
ag249
aI0
aI0
aI0
aI0
aI0
aI0
aI0
aI0
aI0
aI0
ag302
aI0
aI0
aI0
ag52
ag87
aI0
aI0
aI0
aI0
aI0
aI0
aI0
ag455
aI0
ag423
aI0
ag167
ag186
ag135
aI0
ag0
(g126
g2
Ntp515
Rp516
(dp517
g130
I8
sg131
I8
sg132
I0
sg133
I4
sbag302
ag302
ag302
ag302
ag367
ag367
ag367
aI0
ag302
aI0
ag481
ag367
aI0
ag302
aI0
aI0
aI0
ag339
ag302
aI0
aI0
ag388
aI0
ag302
aI0
aI0
aI0
ag249
ag302
ag507
aI0
aI0
aI0
ag302
aI0
aI0
aI0
aI0
ag302
aI0
aI0
aI0
aI0
ag302
aI0
aI0
aI0
ag52
ag87
aI0
aI0
aI0
aI0
aI0
aI0
aI0
ag455
ag423
ag423
aI0
ag167
ag186
ag135
aI0
aI0
aI0
aI0
aI0
aI0
aI0
aI0
aI0
aI0
aI0
aI0
ag481
ag481
aI0
aI0
aI0
aI0
aI0
ag339
aI0
ag0
(g126
g2
Ntp518
Rp519
(dp520
g130
I17
sg131
I9
sg132
I0
sg133
I8
sbag388
ag388
aI0
aI0
aI0
aI0
aI0
ag249
aI0
ag0
(g126
g2
Ntp521
Rp522
(dp523
g130
I22
sg131
I9
sg132
I0
sg133
I10
sbag0
(g50
g2
Ntp524
Rp525
(dp526
g54
g30
sg55
(lp527
(I9
I10
I0
tp528
a(I9
I10
I1
tp529
a(I9
I10
I2
tp530
a(I9
I10
I3
tp531
a(I9
I10
I4
tp532
a(I10
I10
I4
tp533
a(I11
I10
I4
tp534
a(I12
I10
I4
tp535
a(I13
I10
I4
tp536
a(I13
I9
I4
tp537
a(I13
I8
I4
tp538
a(I13
I7
I4
tp539
a(I13
I7
I3
tp540
a(I13
I7
I2
tp541
a(I13
I7
I1
tp542
ag21
asg84
g21
sg85
I8
sbag525
ag525
ag525
aI0
aI0
aI0
aI0
aI0
aI0
aI0
aI0
aI0
aI0
ag52
ag52
ag52
ag52
ag87
ag0
(g126
g2
Ntp543
Rp544
(dp545
g130
I2
sg131
I10
sg132
I0
sg133
I1
sbag0
(g50
g2
Ntp546
Rp547
(dp548
g54
g27
sg55
(lp549
(I15
I8
I0
tp550
a(I15
I8
I1
tp551
a(I15
I8
I2
tp552
a(I15
I8
I3
tp553
a(I15
I8
I4
tp554
a(I15
I7
I4
tp555
a(I15
I6
I4
tp556
a(I14
I6
I4
tp557
a(I14
I5
I4
tp558
a(I13
I5
I4
tp559
a(I12
I5
I4
tp560
a(I11
I5
I4
tp561
a(I10
I5
I4
tp562
a(I10
I4
I4
tp563
a(I10
I3
I4
tp564
a(I10
I2
I4
tp565
a(I10
I1
I4
tp566
a(I10
I1
I3
tp567
a(I10
I1
I2
tp568
a(I10
I1
I1
tp569
ag10
asg84
g10
sg85
I13
sbag547
ag547
ag547
aI0
aI0
ag455
ag423
ag547
ag167
ag167
ag186
ag135
ag547
aI0
aI0
ag481
aI0
ag547
aI0
aI0
ag481
aI0
ag547
aI0
aI0
ag481
aI0
aI0
aI0
aI0
aI0
ag339
aI0
aI0
aI0
aI0
aI0
aI0
aI0
aI0
aI0
ag249
aI0
ag0
(g50
g2
Ntp570
Rp571
(dp572
g54
g30
sg55
(lp573
(I9
I10
I0
tp574
a(I10
I10
I0
tp575
a(I10
I10
I1
tp576
a(I10
I10
I2
tp577
a(I11
I10
I2
tp578
a(I11
I9
I2
tp579
a(I11
I8
I2
tp580
a(I11
I7
I2
tp581
a(I11
I6
I2
tp582
a(I11
I5
I2
tp583
a(I11
I5
I1
tp584
ag19
asg84
g19
sg85
I14
sbag571
ag571
aI0
ag525
aI0
aI0
aI0
aI0
aI0
aI0
aI0
aI0
aI0
aI0
aI0
aI0
ag455
aI0
ag87
aI0
aI0
ag455
aI0
aI0
ag186
ag186
ag455
ag423
aI0
ag167
ag186
ag186
ag135
ag135
aI0
aI0
ag481
aI0
aI0
ag0
(g126
g2
Ntp585
Rp586
(dp587
g130
I11
sg131
I11
sg132
I0
sg133
I5
sbag571
ag571
aI0
ag547
aI0
aI0
ag571
aI0
aI0
ag0
(g50
g2
Ntp588
Rp589
(dp590
g54
g21
sg55
(lp591
(I13
I7
I0
tp592
a(I12
I7
I0
tp593
a(I11
I7
I0
tp594
ag26
asg84
g26
sg85
I12
sbaI0
ag571
ag339
aI0
ag0
(g126
g2
Ntp595
Rp596
(dp597
g130
I18
sg131
I11
sg132
I0
sg133
I8
sbaI0
ag571
aI0
aI0
aI0
aI0
ag571
ag249
aI0
aI0
aI0
ag571
aI0
ag525
aI0
aI0
aI0
aI0
aI0
aI0
aI0
aI0
aI0
aI0
aI0
aI0
ag455
aI0
ag87
ag0
(g50
g2
Ntp598
Rp599
(dp600
g54
g11
sg55
(lp601
(I15
I1
I0
tp602
a(I14
I1
I0
tp603
a(I13
I1
I0
tp604
a(I12
I1
I0
tp605
ag13
asg84
g13
sg85
I4
sbaI0
aI0
aI0
aI0
ag0
(g126
g2
Ntp606
Rp607
(dp608
g130
I5
sg131
I12
sg132
I0
sg133
I2
sbag0
(g50
g2
Ntp609
Rp610
(dp611
g54
g27
sg55
(lp612
(I15
I8
I0
tp613
a(I14
I8
I0
tp614
a(I14
I8
I1
tp615
a(I14
I8
I2
tp616
a(I14
I7
I2
tp617
a(I14
I6
I2
tp618
a(I14
I5
I2
tp619
a(I14
I4
I2
tp620
a(I13
I4
I2
tp621
a(I13
I3
I2
tp622
a(I12
I3
I2
tp623
a(I12
I2
I2
tp624
a(I12
I2
I1
tp625
ag13
asg84
g13
sg85
I22
sbag610
ag423
aI0
ag0
(g126
g2
Ntp626
Rp627
(dp628
g130
I7
sg131
I12
sg132
I0
sg133
I3
sbag481
ag610
aI0
ag135
aI0
ag481
ag481
aI0
aI0
ag0
(g50
g2
Ntp629
Rp630
(dp631
g54
g19
sg55
(lp632
(I11
I5
I0
tp633
a(I12
I5
I0
tp634
a(I12
I5
I1
tp635
a(I12
I5
I2
tp636
a(I12
I6
I2
tp637
a(I12
I7
I2
tp638
a(I12
I8
I2
tp639
a(I12
I9
I2
tp640
a(I12
I10
I2
tp641
a(I12
I11
I2
tp642
a(I12
I11
I1
tp643
ag32
asg84
g32
sg85
I16
sbag630
ag630
aI0
ag547
aI0
aI0
ag630
aI0
aI0
ag589
aI0
ag630
ag339
aI0
aI0
aI0
ag630
ag339
aI0
aI0
aI0
ag630
ag249
aI0
aI0
aI0
ag630
aI0
ag525
ag0
(g126
g2
Ntp644
Rp645
(dp646
g130
I24
sg131
I12
sg132
I0
sg133
I11
sbag630
ag630
aI0
aI0
aI0
aI0
aI0
aI0
aI0
aI0
aI0
ag455
aI0
ag87
ag599
aI0
aI0
aI0
aI0
aI0
aI0
aI0
ag423
aI0
ag0
(g50
g2
Ntp647
Rp648
(dp649
g54
g15
sg55
(lp650
(I12
I3
I0
tp651
a(I13
I3
I0
tp652
a(I13
I4
I0
tp653
a(I13
I5
I0
tp654
a(I13
I6
I0
tp655
ag21
asg84
g21
sg85
I5
sbaI0
ag610
aI0
ag135
ag648
aI0
ag610
aI0
aI0
ag648
aI0
aI0
aI0
ag547
ag648
aI0
aI0
aI0
aI0
ag0
(g126
g2
Ntp656
Rp657
(dp658
g130
I13
sg131
I13
sg132
I0
sg133
I7
sbag525
ag525
ag525
ag525
ag339
ag339
ag339
ag339
ag525
aI0
aI0
aI0
ag249
ag525
aI0
aI0
aI0
aI0
ag525
aI0
aI0
aI0
aI0
aI0
aI0
aI0
aI0
aI0
aI0
aI0
aI0
ag455
aI0
ag87
ag599
aI0
aI0
aI0
aI0
ag0
(g126
g2
Ntp659
Rp660
(dp661
g130
I6
sg131
I14
sg132
I0
sg133
I2
sbag0
(g50
g2
Ntp662
Rp663
(dp664
g54
g14
sg55
(lp665
(I14
I2
I0
tp666
a(I14
I2
I1
tp667
a(I14
I2
I2
tp668
a(I14
I3
I2
tp669
a(I15
I3
I2
tp670
a(I16
I3
I2
tp671
a(I16
I4
I2
tp672
a(I16
I5
I2
tp673
a(I16
I6
I2
tp674
a(I16
I7
I2
tp675
a(I16
I7
I1
tp676
ag22
asg84
g22
sg85
I25
sbag663
ag423
aI0
aI0
aI0
ag663
aI0
ag135
aI0
aI0
ag610
aI0
aI0
aI0
aI0
ag610
aI0
ag547
aI0
aI0
ag610
aI0
ag547
aI0
aI0
ag610
aI0
aI0
ag610
ag610
ag610
aI0
aI0
aI0
aI0
aI0
ag249
aI0
aI0
aI0
aI0
aI0
aI0
aI0
aI0
aI0
aI0
aI0
aI0
aI0
aI0
aI0
aI0
ag455
ag455
ag455
aI0
ag87
ag0
(g126
g2
Ntp677
Rp678
(dp679
g130
I3
sg131
I15
sg132
I0
sg133
I1
sbag87
ag87
ag87
ag87
ag423
ag423
ag423
ag423
aI0
aI0
aI0
ag663
aI0
ag135
aI0
aI0
aI0
aI0
aI0
aI0
aI0
aI0
aI0
aI0
aI0
aI0
aI0
aI0
ag547
aI0
aI0
aI0
aI0
ag547
ag0
(g126
g2
Ntp680
Rp681
(dp682
g130
I19
sg131
I15
sg132
I0
sg133
I8
sbag547
ag547
ag547
ag547
ag249
ag249
ag249
ag249
aI0
aI0
aI0
aI0
aI0
aI0
aI0
aI0
aI0
aI0
aI0
aI0
aI0
aI0
aI0
aI0
aI0
aI0
aI0
aI0
aI0
ag135
ag135
ag135
ag135
ag135
aI0
aI0
aI0
aI0
ag135
aI0
aI0
ag663
aI0
ag135
aI0
aI0
ag663
aI0
aI0
ag0
(g126
g2
Ntp683
Rp684
(dp685
g130
I12
sg131
I16
sg132
I0
sg133
I5
sbaI0
ag663
aI0
aI0
aI0
aI0
ag663
aI0
aI0
ag0
(g126
g2
Ntp686
Rp687
(dp688
g130
I14
sg131
I16
sg132
I0
sg133
I7
sbag663
ag663
aI0
aI0
aI0
aI0
aI0
aI0
aI0
aI0
aI0
aI0
aI0
aI0
aI0
aI0
aI0
aI0
aI0
aI0
aI0
aI0
aI0
aI0
aI0
aI0
aI0
aI0
aI0
aI0
aI0
aI0
aI0
aI0
aI0
aI0
aI0
aI0
aI0
aI0
aI0
aI0
aI0
aI0
aI0
aI0
aI0
aI0
aI0
aI0
aI0
aI0
aI0
aI0
aI0
aI0
aI0
aI0
aI0
aI0
aI0
aI0
aI0
aI0
aI0
aI0
aI0
aI0
aI0
aI0
aI0
aI0
aI0
aI0
aI0
aI0
aI0
aI0
aI0
aI0
aI0
aI0
aI0
aI0
aI0
aI0
aI0
aI0
aI0
aI0
aI0
aI0
aI0
aI0
atp689
bsS'x_dim'
p690
I18
sS'nets'
p691
(dp692
I0
g279
sI1
g0
(g50
g2
Ntp693
Rp694
(dp695
g54
g13
sg55
(lp696
(I12
I2
I0
tp697
ag15
asg84
g15
sg85
I1
sbsI2
g330
sI3
g403
sI4
g599
sI5
g648
sI6
g87
sI7
g302
sI8
g525
sI9
g388
sI10
g229
sI11
g367
sI12
g589
sI13
g547
sI14
g571
sI15
g415
sI16
g630
sI17
g423
sI18
g52
sI19
g455
sI20
g249
sI21
g215
sI22
g610
sI23
g135
sI24
g186
sI25
g663
sI26
g167
sI27
g339
sI28
g507
sI29
g481
ssb.