ccopy_reg
_reconstructor
p0
(cmodules.Objects
Board
p1
c__builtin__
object
p2
Ntp3
Rp4
(dp5
S'gates'
p6
(dp7
I0
g0
(cmodules.Objects
Gate
p8
g2
Ntp9
Rp10
(dp11
S'gate_id'
p12
I0
sS'x'
p13
I1
sS'z'
p14
I0
sS'y'
p15
I1
sbsI1
g0
(g8
g2
Ntp16
Rp17
(dp18
g12
I1
sg13
I6
sg14
I0
sg15
I1
sbsI2
g0
(g8
g2
Ntp19
Rp20
(dp21
g12
I2
sg13
I10
sg14
I0
sg15
I1
sbsI3
g0
(g8
g2
Ntp22
Rp23
(dp24
g12
I3
sg13
I15
sg14
I0
sg15
I1
sbsI4
g0
(g8
g2
Ntp25
Rp26
(dp27
g12
I4
sg13
I3
sg14
I0
sg15
I2
sbsI5
g0
(g8
g2
Ntp28
Rp29
(dp30
g12
I5
sg13
I12
sg14
I0
sg15
I2
sbsI6
g0
(g8
g2
Ntp31
Rp32
(dp33
g12
I6
sg13
I14
sg14
I0
sg15
I2
sbsI7
g0
(g8
g2
Ntp34
Rp35
(dp36
g12
I7
sg13
I12
sg14
I0
sg15
I3
sbsI8
g0
(g8
g2
Ntp37
Rp38
(dp39
g12
I8
sg13
I8
sg14
I0
sg15
I4
sbsI9
g0
(g8
g2
Ntp40
Rp41
(dp42
g12
I9
sg13
I1
sg14
I0
sg15
I5
sbsI10
g0
(g8
g2
Ntp43
Rp44
(dp45
g12
I10
sg13
I4
sg14
I0
sg15
I5
sbsI11
g0
(g8
g2
Ntp46
Rp47
(dp48
g12
I11
sg13
I11
sg14
I0
sg15
I5
sbsI12
g0
(g8
g2
Ntp49
Rp50
(dp51
g12
I12
sg13
I16
sg14
I0
sg15
I5
sbsI13
g0
(g8
g2
Ntp52
Rp53
(dp54
g12
I13
sg13
I13
sg14
I0
sg15
I7
sbsI14
g0
(g8
g2
Ntp55
Rp56
(dp57
g12
I14
sg13
I16
sg14
I0
sg15
I7
sbsI15
g0
(g8
g2
Ntp58
Rp59
(dp60
g12
I15
sg13
I2
sg14
I0
sg15
I8
sbsI16
g0
(g8
g2
Ntp61
Rp62
(dp63
g12
I16
sg13
I6
sg14
I0
sg15
I8
sbsI17
g0
(g8
g2
Ntp64
Rp65
(dp66
g12
I17
sg13
I9
sg14
I0
sg15
I8
sbsI18
g0
(g8
g2
Ntp67
Rp68
(dp69
g12
I18
sg13
I11
sg14
I0
sg15
I8
sbsI19
g0
(g8
g2
Ntp70
Rp71
(dp72
g12
I19
sg13
I15
sg14
I0
sg15
I8
sbsI20
g0
(g8
g2
Ntp73
Rp74
(dp75
g12
I20
sg13
I1
sg14
I0
sg15
I9
sbsI21
g0
(g8
g2
Ntp76
Rp77
(dp78
g12
I21
sg13
I2
sg14
I0
sg15
I10
sbsI22
g0
(g8
g2
Ntp79
Rp80
(dp81
g12
I22
sg13
I9
sg14
I0
sg15
I10
sbsI23
g0
(g8
g2
Ntp82
Rp83
(dp84
g12
I23
sg13
I1
sg14
I0
sg15
I11
sbsI24
g0
(g8
g2
Ntp85
Rp86
(dp87
g12
I24
sg13
I12
sg14
I0
sg15
I11
sbssS'y_dim'
p88
I13
sS'z_dim'
p89
I3
sS'board'
p90
cnumpy.core.multiarray
_reconstruct
p91
(cnumpy
ndarray
p92
(I0
tp93
S'b'
p94
tp95
Rp96
(I1
(I18
I13
I3
tp97
cnumpy
dtype
p98
(S'O8'
p99
I0
I1
tp100
Rp101
(I3
S'|'
p102
NNNI-1
I-1
I63
tp103
bI00
(lp104
I0
aI0
ag0
(cmodules.Objects
Net
p105
g2
Ntp106
Rp107
(dp108
S'start_gate'
p109
I3
sS'path'
p110
(lp111
(I15
I1
I0
tp112
a(I15
I1
I1
tp113
a(I15
I1
I2
tp114
a(I15
I0
I2
tp115
a(I14
I0
I2
tp116
a(I13
I0
I2
tp117
a(I12
I0
I2
tp118
a(I11
I0
I2
tp119
a(I10
I0
I2
tp120
a(I9
I0
I2
tp121
a(I8
I0
I2
tp122
a(I7
I0
I2
tp123
a(I6
I0
I2
tp124
a(I5
I0
I2
tp125
a(I4
I0
I2
tp126
a(I3
I0
I2
tp127
a(I2
I0
I2
tp128
a(I1
I0
I2
tp129
a(I0
I0
I2
tp130
a(I0
I1
I2
tp131
a(I0
I2
I2
tp132
a(I0
I3
I2
tp133
a(I0
I4
I2
tp134
a(I0
I5
I2
tp135
a(I0
I6
I2
tp136
a(I0
I7
I2
tp137
a(I1
I7
I2
tp138
a(I2
I7
I2
tp139
a(I2
I7
I1
tp140
a(I2
I7
I0
tp141
a(I2
I8
I0
tp142
asS'end_gate'
p143
I15
sS'net_id'
p144
I2
sbaI0
aI0
ag107
aI0
ag0
(g105
g2
Ntp145
Rp146
(dp147
g109
I23
sg110
(lp148
(I1
I11
I0
tp149
a(I1
I11
I1
tp150
a(I0
I11
I1
tp151
a(I0
I10
I1
tp152
a(I0
I9
I1
tp153
a(I0
I8
I1
tp154
a(I0
I7
I1
tp155
a(I0
I6
I1
tp156
a(I0
I5
I1
tp157
a(I0
I4
I1
tp158
a(I0
I3
I1
tp159
a(I0
I2
I1
tp160
a(I1
I2
I1
tp161
a(I2
I2
I1
tp162
a(I3
I2
I1
tp163
a(I3
I2
I0
tp164
asg143
I4
sg144
I5
sbag107
aI0
ag146
ag107
aI0
ag146
ag107
aI0
ag146
ag107
ag0
(g105
g2
Ntp165
Rp166
(dp167
g109
I20
sg110
(lp168
(I1
I9
I0
tp169
a(I0
I9
I0
tp170
a(I0
I8
I0
tp171
a(I0
I7
I0
tp172
a(I0
I6
I0
tp173
a(I1
I6
I0
tp174
a(I2
I6
I0
tp175
a(I3
I6
I0
tp176
a(I4
I6
I0
tp177
a(I4
I5
I0
tp178
asg143
I10
sg144
I15
sbag146
ag107
ag166
ag146
ag107
ag166
ag146
ag0
(g105
g2
Ntp179
Rp180
(dp181
g109
I15
sg110
(lp182
(I2
I8
I0
tp183
a(I1
I8
I0
tp184
a(I1
I8
I1
tp185
a(I1
I8
I2
tp186
a(I0
I8
I2
tp187
a(I0
I9
I2
tp188
a(I0
I10
I2
tp189
a(I1
I10
I2
tp190
a(I2
I10
I2
tp191
a(I3
I10
I2
tp192
a(I4
I10
I2
tp193
a(I5
I10
I2
tp194
a(I6
I10
I2
tp195
a(I7
I10
I2
tp196
a(I8
I10
I2
tp197
a(I9
I10
I2
tp198
a(I9
I10
I1
tp199
a(I9
I9
I1
tp200
a(I9
I8
I1
tp201
a(I9
I8
I0
tp202
asg143
I17
sg144
I14
sbag166
ag146
ag180
aI0
ag146
ag180
aI0
ag146
aI0
aI0
aI0
aI0
aI0
aI0
ag107
ag10
ag0
(g105
g2
Ntp203
Rp204
(dp205
g109
I3
sg110
(lp206
(I15
I1
I0
tp207
a(I15
I2
I0
tp208
a(I15
I2
I1
tp209
a(I14
I2
I1
tp210
a(I14
I1
I1
tp211
a(I13
I1
I1
tp212
a(I12
I1
I1
tp213
a(I11
I1
I1
tp214
a(I11
I2
I1
tp215
a(I11
I2
I2
tp216
a(I10
I2
I2
tp217
a(I9
I2
I2
tp218
a(I8
I2
I2
tp219
a(I7
I2
I2
tp220
a(I6
I2
I2
tp221
a(I6
I1
I2
tp222
a(I5
I1
I2
tp223
a(I4
I1
I2
tp224
a(I3
I1
I2
tp225
a(I2
I1
I2
tp226
a(I1
I1
I2
tp227
a(I1
I1
I1
tp228
a(I1
I1
I0
tp229
asg143
I0
sg144
I25
sbag204
aI0
ag146
aI0
aI0
ag0
(g105
g2
Ntp230
Rp231
(dp232
g109
I7
sg110
(lp233
(I12
I3
I0
tp234
a(I12
I3
I1
tp235
a(I12
I4
I1
tp236
a(I12
I4
I2
tp237
a(I11
I4
I2
tp238
a(I10
I4
I2
tp239
a(I9
I4
I2
tp240
a(I8
I4
I2
tp241
a(I7
I4
I2
tp242
a(I6
I4
I2
tp243
a(I5
I4
I2
tp244
a(I4
I4
I2
tp245
a(I4
I4
I1
tp246
a(I4
I3
I1
tp247
a(I3
I3
I1
tp248
a(I2
I3
I1
tp249
a(I1
I3
I1
tp250
a(I1
I4
I1
tp251
a(I1
I4
I0
tp252
a(I1
I5
I0
tp253
asg143
I9
sg144
I27
sbaI0
ag231
ag231
aI0
ag41
ag0
(g105
g2
Ntp254
Rp255
(dp256
g109
I9
sg110
(lp257
(I1
I5
I0
tp258
a(I1
I5
I1
tp259
a(I1
I5
I2
tp260
a(I2
I5
I2
tp261
a(I3
I5
I2
tp262
a(I4
I5
I2
tp263
a(I5
I5
I2
tp264
a(I6
I5
I2
tp265
a(I7
I5
I2
tp266
a(I8
I5
I2
tp267
a(I9
I5
I2
tp268
a(I10
I5
I2
tp269
a(I11
I5
I2
tp270
a(I12
I5
I2
tp271
a(I13
I5
I2
tp272
a(I13
I6
I2
tp273
a(I13
I7
I2
tp274
a(I13
I7
I1
tp275
a(I13
I7
I0
tp276
asg143
I13
sg144
I0
sbag255
ag166
aI0
aI0
aI0
aI0
ag107
ag180
ag180
ag180
ag74
ag0
(g105
g2
Ntp277
Rp278
(dp279
g109
I20
sg110
(lp280
(I1
I9
I0
tp281
a(I1
I9
I1
tp282
a(I1
I9
I2
tp283
a(I2
I9
I2
tp284
a(I3
I9
I2
tp285
a(I4
I9
I2
tp286
a(I5
I9
I2
tp287
a(I6
I9
I2
tp288
a(I7
I9
I2
tp289
a(I8
I9
I2
tp290
a(I9
I9
I2
tp291
a(I10
I9
I2
tp292
a(I11
I9
I2
tp293
a(I12
I9
I2
tp294
a(I13
I9
I2
tp295
a(I14
I9
I2
tp296
a(I15
I9
I2
tp297
a(I15
I8
I2
tp298
a(I15
I8
I1
tp299
a(I15
I8
I0
tp300
asg143
I19
sg144
I4
sbag278
ag0
(g105
g2
Ntp301
Rp302
(dp303
g109
I2
sg110
(lp304
(I10
I1
I0
tp305
a(I9
I1
I0
tp306
a(I9
I1
I1
tp307
a(I8
I1
I1
tp308
a(I7
I1
I1
tp309
a(I7
I2
I1
tp310
a(I6
I2
I1
tp311
a(I5
I2
I1
tp312
a(I5
I3
I1
tp313
a(I5
I4
I1
tp314
a(I5
I5
I1
tp315
a(I5
I6
I1
tp316
a(I4
I6
I1
tp317
a(I4
I7
I1
tp318
a(I4
I8
I1
tp319
a(I4
I9
I1
tp320
a(I3
I9
I1
tp321
a(I3
I10
I1
tp322
a(I2
I10
I1
tp323
a(I1
I10
I1
tp324
a(I1
I10
I0
tp325
a(I1
I9
I0
tp326
asg143
I20
sg144
I21
sbag302
ag180
ag83
ag146
aI0
ag0
(g105
g2
Ntp327
Rp328
(dp329
g109
I3
sg110
(lp330
(I15
I1
I0
tp331
a(I16
I1
I0
tp332
a(I16
I1
I1
tp333
a(I16
I1
I2
tp334
a(I17
I1
I2
tp335
a(I17
I2
I2
tp336
a(I17
I3
I2
tp337
a(I17
I4
I2
tp338
a(I17
I5
I2
tp339
a(I17
I6
I2
tp340
a(I17
I7
I2
tp341
a(I17
I8
I2
tp342
a(I17
I9
I2
tp343
a(I17
I10
I2
tp344
a(I17
I11
I2
tp345
a(I17
I12
I2
tp346
a(I16
I12
I2
tp347
a(I15
I12
I2
tp348
a(I14
I12
I2
tp349
a(I13
I12
I2
tp350
a(I12
I12
I2
tp351
a(I11
I12
I2
tp352
a(I10
I12
I2
tp353
a(I9
I12
I2
tp354
a(I8
I12
I2
tp355
a(I7
I12
I2
tp356
a(I6
I12
I2
tp357
a(I5
I12
I2
tp358
a(I4
I12
I2
tp359
a(I3
I12
I2
tp360
a(I2
I12
I2
tp361
a(I1
I12
I2
tp362
a(I1
I12
I1
tp363
a(I1
I12
I0
tp364
a(I1
I11
I0
tp365
asg143
I23
sg144
I11
sbag328
ag328
aI0
aI0
ag107
ag0
(g105
g2
Ntp366
Rp367
(dp368
g109
I1
sg110
(lp369
(I6
I1
I0
tp370
a(I5
I1
I0
tp371
a(I4
I1
I0
tp372
a(I3
I1
I0
tp373
a(I2
I1
I0
tp374
a(I1
I1
I0
tp375
asg143
I0
sg144
I7
sbaI0
ag204
aI0
ag146
aI0
aI0
ag231
aI0
aI0
aI0
aI0
ag0
(g105
g2
Ntp376
Rp377
(dp378
g109
I16
sg110
(lp379
(I6
I8
I0
tp380
a(I6
I8
I1
tp381
a(I7
I8
I1
tp382
a(I7
I7
I1
tp383
a(I7
I7
I2
tp384
a(I6
I7
I2
tp385
a(I5
I7
I2
tp386
a(I4
I7
I2
tp387
a(I4
I6
I2
tp388
a(I3
I6
I2
tp389
a(I2
I6
I2
tp390
a(I2
I6
I1
tp391
a(I2
I5
I1
tp392
a(I2
I5
I0
tp393
a(I1
I5
I0
tp394
asg143
I9
sg144
I23
sbag377
ag255
ag166
ag377
ag377
ag107
ag107
ag107
ag59
ag0
(g105
g2
Ntp395
Rp396
(dp397
g109
I15
sg110
(lp398
(I2
I8
I0
tp399
a(I2
I8
I1
tp400
a(I2
I8
I2
tp401
a(I3
I8
I2
tp402
a(I4
I8
I2
tp403
a(I5
I8
I2
tp404
a(I6
I8
I2
tp405
a(I7
I8
I2
tp406
a(I8
I8
I2
tp407
a(I8
I7
I2
tp408
a(I8
I6
I2
tp409
a(I8
I6
I1
tp410
a(I8
I5
I1
tp411
a(I8
I4
I1
tp412
a(I8
I4
I0
tp413
asg143
I8
sg144
I1
sbag396
ag0
(g105
g2
Ntp414
Rp415
(dp416
g109
I15
sg110
(lp417
(I2
I8
I0
tp418
a(I2
I9
I0
tp419
a(I2
I10
I0
tp420
asg143
I21
sg144
I8
sbaI0
ag278
ag77
ag302
ag180
ag0
(g105
g2
Ntp421
Rp422
(dp423
g109
I23
sg110
(lp424
(I1
I11
I0
tp425
a(I2
I11
I0
tp426
a(I2
I11
I1
tp427
a(I3
I11
I1
tp428
a(I4
I11
I1
tp429
a(I5
I11
I1
tp430
a(I5
I10
I1
tp431
a(I5
I9
I1
tp432
a(I5
I8
I1
tp433
a(I5
I7
I1
tp434
a(I6
I7
I1
tp435
a(I6
I6
I1
tp436
a(I6
I5
I1
tp437
a(I6
I4
I1
tp438
a(I7
I4
I1
tp439
a(I7
I4
I0
tp440
a(I8
I4
I0
tp441
asg143
I8
sg144
I12
sbag422
aI0
aI0
aI0
ag328
aI0
aI0
ag107
ag367
aI0
ag204
ag26
ag146
aI0
ag0
(g105
g2
Ntp442
Rp443
(dp444
g109
I10
sg110
(lp445
(I4
I5
I0
tp446
a(I4
I4
I0
tp447
a(I4
I3
I0
tp448
a(I3
I3
I0
tp449
a(I3
I2
I0
tp450
asg143
I4
sg144
I19
sbag231
ag0
(g105
g2
Ntp451
Rp452
(dp453
g109
I15
sg110
(lp454
(I2
I8
I0
tp455
a(I3
I8
I0
tp456
a(I3
I8
I1
tp457
a(I3
I7
I1
tp458
a(I3
I6
I1
tp459
a(I3
I5
I1
tp460
a(I3
I4
I1
tp461
a(I3
I4
I2
tp462
a(I3
I3
I2
tp463
a(I4
I3
I2
tp464
a(I5
I3
I2
tp465
a(I6
I3
I2
tp466
a(I7
I3
I2
tp467
a(I8
I3
I2
tp468
a(I9
I3
I2
tp469
a(I10
I3
I2
tp470
a(I11
I3
I2
tp471
a(I12
I3
I2
tp472
a(I12
I2
I2
tp473
a(I12
I2
I1
tp474
a(I12
I2
I0
tp475
asg143
I5
sg144
I3
sbaI0
ag452
ag452
aI0
ag452
ag255
ag166
ag452
ag377
aI0
ag452
aI0
ag452
ag452
ag396
aI0
ag302
ag278
aI0
ag302
ag180
aI0
ag422
aI0
aI0
aI0
ag328
aI0
ag0
(g105
g2
Ntp476
Rp477
(dp478
g109
I3
sg110
(lp479
(I15
I1
I0
tp480
a(I15
I0
I0
tp481
a(I15
I0
I1
tp482
a(I14
I0
I1
tp483
a(I13
I0
I1
tp484
a(I12
I0
I1
tp485
a(I11
I0
I1
tp486
a(I10
I0
I1
tp487
a(I9
I0
I1
tp488
a(I8
I0
I1
tp489
a(I7
I0
I1
tp490
a(I6
I0
I1
tp491
a(I5
I0
I1
tp492
a(I4
I0
I1
tp493
a(I4
I1
I1
tp494
a(I4
I2
I1
tp495
a(I4
I2
I0
tp496
a(I3
I2
I0
tp497
asg143
I4
sg144
I22
sbag107
ag367
ag477
ag204
ag477
ag477
aI0
ag443
ag231
ag452
ag443
ag231
ag231
ag44
aI0
ag255
ag166
ag302
ag377
aI0
ag302
ag377
aI0
ag302
ag396
aI0
ag302
ag278
aI0
aI0
ag180
aI0
ag422
aI0
aI0
aI0
ag328
aI0
ag477
ag107
ag367
aI0
ag204
aI0
ag302
aI0
aI0
ag302
ag452
aI0
ag302
ag231
ag0
(g105
g2
Ntp498
Rp499
(dp500
g109
I10
sg110
(lp501
(I4
I5
I0
tp502
a(I5
I5
I0
tp503
a(I6
I5
I0
tp504
a(I6
I4
I0
tp505
a(I6
I3
I0
tp506
a(I7
I3
I0
tp507
a(I8
I3
I0
tp508
a(I9
I3
I0
tp509
a(I10
I3
I0
tp510
a(I11
I3
I0
tp511
a(I12
I3
I0
tp512
asg143
I7
sg144
I29
sbag302
ag255
aI0
ag302
aI0
aI0
ag422
ag377
aI0
ag422
ag396
aI0
ag422
ag278
aI0
ag422
ag180
aI0
ag422
aI0
aI0
aI0
ag328
aI0
ag477
ag107
ag17
aI0
ag204
aI0
ag302
ag204
ag499
aI0
ag452
ag499
ag422
ag231
ag499
ag422
ag255
aI0
ag422
aI0
aI0
ag422
ag377
ag62
ag377
ag396
ag0
(g105
g2
Ntp513
Rp514
(dp515
g109
I22
sg110
(lp516
(I9
I10
I0
tp517
a(I8
I10
I0
tp518
a(I7
I10
I0
tp519
a(I6
I10
I0
tp520
a(I6
I9
I0
tp521
a(I6
I8
I0
tp522
asg143
I16
sg144
I28
sbaI0
ag278
ag514
aI0
ag180
aI0
aI0
aI0
aI0
aI0
ag328
aI0
ag477
ag107
aI0
ag302
aI0
aI0
ag302
ag204
ag499
aI0
ag452
ag422
ag422
ag231
aI0
aI0
ag255
aI0
aI0
aI0
aI0
ag377
ag377
aI0
ag377
ag396
aI0
aI0
ag278
ag514
aI0
ag180
aI0
aI0
aI0
aI0
aI0
ag328
aI0
ag477
ag107
aI0
ag302
aI0
aI0
aI0
ag204
ag499
aI0
ag452
ag38
ag396
ag231
aI0
ag396
ag255
aI0
ag396
ag396
aI0
aI0
ag396
aI0
aI0
ag396
aI0
aI0
ag278
ag514
aI0
ag180
aI0
aI0
aI0
aI0
aI0
ag328
aI0
ag477
ag107
ag302
ag302
aI0
aI0
aI0
ag204
ag499
aI0
ag452
aI0
aI0
ag231
aI0
aI0
ag255
aI0
aI0
aI0
aI0
aI0
aI0
ag65
ag180
aI0
ag0
(g105
g2
Ntp523
Rp524
(dp525
g109
I22
sg110
(lp526
(I9
I10
I0
tp527
a(I9
I9
I0
tp528
a(I10
I9
I0
tp529
a(I10
I8
I0
tp530
a(I10
I7
I0
tp531
a(I10
I6
I0
tp532
a(I10
I5
I0
tp533
a(I11
I5
I0
tp534
asg143
I11
sg144
I18
sbag180
ag278
ag80
ag180
ag180
aI0
aI0
aI0
aI0
aI0
ag328
aI0
ag477
ag107
ag20
ag0
(g105
g2
Ntp535
Rp536
(dp537
g109
I19
sg110
(lp538
(I15
I8
I0
tp539
a(I15
I7
I0
tp540
a(I15
I7
I1
tp541
a(I15
I7
I2
tp542
a(I15
I6
I2
tp543
a(I15
I5
I2
tp544
a(I15
I4
I2
tp545
a(I14
I4
I2
tp546
a(I14
I3
I2
tp547
a(I14
I2
I2
tp548
a(I13
I2
I2
tp549
a(I13
I1
I2
tp550
a(I12
I1
I2
tp551
a(I11
I1
I2
tp552
a(I10
I1
I2
tp553
a(I10
I1
I1
tp554
a(I10
I1
I0
tp555
asg143
I2
sg144
I17
sbag536
aI0
aI0
ag204
ag499
aI0
ag452
aI0
aI0
ag231
ag524
aI0
ag255
ag524
aI0
aI0
ag524
aI0
aI0
ag524
aI0
aI0
ag524
aI0
ag278
ag0
(g105
g2
Ntp556
Rp557
(dp558
g109
I22
sg110
(lp559
(I9
I10
I0
tp560
a(I10
I10
I0
tp561
a(I11
I10
I0
tp562
a(I12
I10
I0
tp563
a(I13
I10
I0
tp564
a(I13
I9
I0
tp565
a(I13
I8
I0
tp566
a(I13
I7
I0
tp567
asg143
I13
sg144
I13
sbaI0
aI0
aI0
aI0
aI0
aI0
aI0
ag328
aI0
ag477
ag107
aI0
ag204
ag536
aI0
ag204
ag204
ag499
aI0
ag452
aI0
aI0
ag231
ag47
ag0
(g105
g2
Ntp568
Rp569
(dp570
g109
I11
sg110
(lp571
(I11
I5
I0
tp572
a(I11
I5
I1
tp573
a(I11
I6
I1
tp574
a(I12
I6
I1
tp575
a(I12
I7
I1
tp576
a(I12
I8
I1
tp577
a(I12
I9
I1
tp578
a(I12
I10
I1
tp579
a(I12
I11
I1
tp580
a(I12
I11
I0
tp581
asg143
I24
sg144
I20
sbag255
aI0
ag569
aI0
ag0
(g105
g2
Ntp582
Rp583
(dp584
g109
I13
sg110
(lp585
(I13
I7
I0
tp586
a(I12
I7
I0
tp587
a(I11
I7
I0
tp588
a(I11
I8
I0
tp589
asg143
I18
sg144
I16
sbaI0
aI0
ag68
aI0
aI0
aI0
aI0
ag278
ag557
aI0
aI0
aI0
aI0
aI0
aI0
aI0
ag328
aI0
ag477
ag107
ag0
(g105
g2
Ntp590
Rp591
(dp592
g109
I3
sg110
(lp593
(I15
I1
I0
tp594
a(I14
I1
I0
tp595
a(I13
I1
I0
tp596
a(I12
I1
I0
tp597
a(I12
I2
I0
tp598
asg143
I5
sg144
I9
sbag204
ag536
ag29
ag452
ag452
ag35
ag231
ag452
aI0
ag231
ag231
aI0
aI0
ag255
aI0
ag569
aI0
ag583
ag569
aI0
aI0
ag569
aI0
aI0
ag569
ag278
ag557
ag569
aI0
ag86
ag569
aI0
aI0
aI0
ag328
aI0
ag477
ag107
ag591
ag204
ag536
ag0
(g105
g2
Ntp599
Rp600
(dp601
g109
I19
sg110
(lp602
(I15
I8
I0
tp603
a(I14
I8
I0
tp604
a(I14
I8
I1
tp605
a(I14
I7
I1
tp606
a(I14
I6
I1
tp607
a(I14
I5
I1
tp608
a(I14
I4
I1
tp609
a(I13
I4
I1
tp610
a(I13
I3
I1
tp611
a(I13
I2
I1
tp612
a(I13
I2
I0
tp613
a(I12
I2
I0
tp614
asg143
I5
sg144
I24
sbag600
ag536
ag0
(g105
g2
Ntp615
Rp616
(dp617
g109
I7
sg110
(lp618
(I12
I3
I0
tp619
a(I13
I3
I0
tp620
a(I13
I4
I0
tp621
a(I13
I5
I0
tp622
a(I13
I6
I0
tp623
a(I13
I7
I0
tp624
asg143
I13
sg144
I10
sbag600
aI0
ag616
ag600
aI0
ag616
aI0
ag255
ag616
aI0
ag255
ag53
ag255
ag255
ag557
aI0
aI0
ag557
aI0
ag278
ag557
aI0
aI0
aI0
aI0
aI0
aI0
aI0
ag328
aI0
ag477
ag107
ag591
ag204
aI0
ag32
ag204
ag536
ag0
(g105
g2
Ntp625
Rp626
(dp627
g109
I6
sg110
(lp628
(I14
I2
I0
tp629
a(I14
I3
I0
tp630
a(I15
I3
I0
tp631
a(I15
I4
I0
tp632
a(I15
I5
I0
tp633
a(I15
I6
I0
tp634
a(I16
I6
I0
tp635
a(I16
I7
I0
tp636
asg143
I14
sg144
I26
sbaI0
ag536
aI0
ag600
ag536
aI0
ag600
aI0
aI0
ag600
aI0
aI0
ag600
aI0
ag600
ag600
aI0
aI0
aI0
ag278
aI0
aI0
aI0
aI0
aI0
aI0
aI0
aI0
ag328
ag477
ag477
ag107
ag23
ag107
ag107
ag204
ag204
aI0
ag626
aI0
aI0
ag626
aI0
ag536
ag626
aI0
ag536
ag626
aI0
ag536
ag536
ag536
ag536
ag71
ag278
ag278
aI0
aI0
ag278
aI0
aI0
aI0
aI0
aI0
aI0
aI0
aI0
ag328
aI0
aI0
aI0
ag328
ag328
ag328
aI0
aI0
aI0
aI0
aI0
aI0
aI0
aI0
aI0
ag50
aI0
aI0
ag626
aI0
aI0
ag56
aI0
aI0
aI0
aI0
aI0
aI0
aI0
aI0
aI0
aI0
aI0
aI0
aI0
aI0
aI0
aI0
ag328
aI0
aI0
aI0
aI0
aI0
ag328
aI0
aI0
ag328
aI0
aI0
ag328
aI0
aI0
ag328
aI0
aI0
ag328
aI0
aI0
ag328
aI0
aI0
ag328
aI0
aI0
ag328
aI0
aI0
ag328
aI0
aI0
ag328
aI0
aI0
ag328
aI0
aI0
ag328
atp637
bsS'x_dim'
p638
I18
sS'nets'
p639
(dp640
I0
g255
sI1
g396
sI2
g107
sI3
g452
sI4
g278
sI5
g146
sI6
g0
(g105
g2
Ntp641
Rp642
(dp643
g109
I5
sg110
(lp644
(I12
I2
I0
tp645
a(I12
I3
I0
tp646
asg143
I7
sg144
I6
sbsI7
g367
sI8
g415
sI9
g591
sI10
g616
sI11
g328
sI12
g422
sI13
g557
sI14
g180
sI15
g166
sI16
g583
sI17
g536
sI18
g524
sI19
g443
sI20
g569
sI21
g302
sI22
g477
sI23
g377
sI24
g600
sI25
g204
sI26
g626
sI27
g231
sI28
g514
sI29
g499
ssb.