ccopy_reg
_reconstructor
p0
(cmodules.Objects
Board
p1
c__builtin__
object
p2
Ntp3
Rp4
(dp5
S'gates'
p6
(dp7
I0
(I1
I1
I0
tp8
sI1
(I6
I1
I0
tp9
sI2
(I10
I1
I0
tp10
sI3
(I15
I1
I0
tp11
sI4
(I3
I2
I0
tp12
sI5
(I12
I2
I0
tp13
sI6
(I14
I2
I0
tp14
sI7
(I12
I3
I0
tp15
sI8
(I8
I4
I0
tp16
sI9
(I1
I5
I0
tp17
sI10
(I4
I5
I0
tp18
sI11
(I11
I5
I0
tp19
sI12
(I16
I5
I0
tp20
sI13
(I13
I7
I0
tp21
sI14
(I16
I7
I0
tp22
sI15
(I2
I8
I0
tp23
sI16
(I6
I8
I0
tp24
sI17
(I9
I8
I0
tp25
sI18
(I11
I8
I0
tp26
sI19
(I15
I8
I0
tp27
sI20
(I1
I9
I0
tp28
sI21
(I2
I10
I0
tp29
sI22
(I9
I10
I0
tp30
sI23
(I1
I11
I0
tp31
sI24
(I12
I11
I0
tp32
ssS'y_dim'
p33
I13
sS'z_dim'
p34
I3
sS'board'
p35
cnumpy.core.multiarray
_reconstruct
p36
(cnumpy
ndarray
p37
(I0
tp38
S'b'
p39
tp40
Rp41
(I1
(I18
I13
I3
tp42
cnumpy
dtype
p43
(S'O8'
p44
I0
I1
tp45
Rp46
(I3
S'|'
p47
NNNI-1
I-1
I63
tp48
bI00
(lp49
I0
aI0
ag0
(cmodules.Objects
Net
p50
g2
Ntp51
Rp52
(dp53
S'start_gate'
p54
g11
sS'path'
p55
(lp56
(I15
I1
I0
tp57
a(I15
I1
I1
tp58
a(I15
I1
I2
tp59
a(I15
I0
I2
tp60
a(I14
I0
I2
tp61
a(I13
I0
I2
tp62
a(I12
I0
I2
tp63
a(I11
I0
I2
tp64
a(I10
I0
I2
tp65
a(I9
I0
I2
tp66
a(I8
I0
I2
tp67
a(I7
I0
I2
tp68
a(I6
I0
I2
tp69
a(I5
I0
I2
tp70
a(I4
I0
I2
tp71
a(I3
I0
I2
tp72
a(I2
I0
I2
tp73
a(I1
I0
I2
tp74
a(I0
I0
I2
tp75
a(I0
I1
I2
tp76
a(I0
I2
I2
tp77
a(I0
I3
I2
tp78
a(I0
I4
I2
tp79
a(I0
I5
I2
tp80
a(I0
I6
I2
tp81
a(I0
I7
I2
tp82
a(I1
I7
I2
tp83
a(I2
I7
I2
tp84
a(I2
I7
I1
tp85
a(I2
I7
I0
tp86
ag23
asS'end_gate'
p87
g23
sS'net_id'
p88
I2
sbaI0
aI0
ag52
aI0
ag0
(g50
g2
Ntp89
Rp90
(dp91
g54
g31
sg55
(lp92
(I1
I11
I0
tp93
a(I1
I11
I1
tp94
a(I0
I11
I1
tp95
a(I0
I10
I1
tp96
a(I0
I9
I1
tp97
a(I0
I8
I1
tp98
a(I0
I7
I1
tp99
a(I0
I6
I1
tp100
a(I0
I5
I1
tp101
a(I0
I4
I1
tp102
a(I0
I3
I1
tp103
a(I0
I2
I1
tp104
a(I1
I2
I1
tp105
a(I2
I2
I1
tp106
a(I3
I2
I1
tp107
ag12
asg87
g12
sg88
I5
sbag52
aI0
ag90
ag52
aI0
ag90
ag52
aI0
ag90
ag52
ag0
(g50
g2
Ntp108
Rp109
(dp110
g54
g28
sg55
(lp111
(I1
I9
I0
tp112
a(I0
I9
I0
tp113
a(I0
I8
I0
tp114
a(I0
I7
I0
tp115
a(I0
I6
I0
tp116
a(I1
I6
I0
tp117
a(I2
I6
I0
tp118
a(I3
I6
I0
tp119
a(I4
I6
I0
tp120
ag18
asg87
g18
sg88
I15
sbag90
ag52
ag109
ag90
ag52
ag109
ag90
ag0
(g50
g2
Ntp121
Rp122
(dp123
g54
g23
sg55
(lp124
(I2
I8
I0
tp125
a(I1
I8
I0
tp126
a(I1
I8
I1
tp127
a(I1
I8
I2
tp128
a(I0
I8
I2
tp129
a(I0
I9
I2
tp130
a(I0
I10
I2
tp131
a(I1
I10
I2
tp132
a(I2
I10
I2
tp133
a(I3
I10
I2
tp134
a(I4
I10
I2
tp135
a(I5
I10
I2
tp136
a(I6
I10
I2
tp137
a(I7
I10
I2
tp138
a(I8
I10
I2
tp139
a(I9
I10
I2
tp140
a(I9
I10
I1
tp141
a(I9
I9
I1
tp142
a(I9
I8
I1
tp143
ag25
asg87
g25
sg88
I14
sbag109
ag90
ag122
aI0
ag90
ag122
aI0
ag90
aI0
aI0
aI0
aI0
aI0
aI0
ag52
ag0
(cmodules.Objects
Gate
p144
g2
Ntp145
Rp146
(dp147
S'gate_id'
p148
I0
sS'x'
p149
I1
sS'z'
p150
I0
sS'y'
p151
I1
sbag0
(g50
g2
Ntp152
Rp153
(dp154
g54
g11
sg55
(lp155
(I15
I1
I0
tp156
a(I15
I2
I0
tp157
a(I15
I2
I1
tp158
a(I14
I2
I1
tp159
a(I14
I1
I1
tp160
a(I13
I1
I1
tp161
a(I12
I1
I1
tp162
a(I11
I1
I1
tp163
a(I11
I2
I1
tp164
a(I11
I2
I2
tp165
a(I10
I2
I2
tp166
a(I9
I2
I2
tp167
a(I8
I2
I2
tp168
a(I7
I2
I2
tp169
a(I6
I2
I2
tp170
a(I6
I1
I2
tp171
a(I5
I1
I2
tp172
a(I4
I1
I2
tp173
a(I3
I1
I2
tp174
a(I2
I1
I2
tp175
a(I1
I1
I2
tp176
a(I1
I1
I1
tp177
ag8
asg87
g8
sg88
I25
sbag153
aI0
ag90
aI0
aI0
ag0
(g50
g2
Ntp178
Rp179
(dp180
g54
g15
sg55
(lp181
(I12
I3
I0
tp182
a(I12
I3
I1
tp183
a(I12
I4
I1
tp184
a(I12
I4
I2
tp185
a(I11
I4
I2
tp186
a(I10
I4
I2
tp187
a(I9
I4
I2
tp188
a(I8
I4
I2
tp189
a(I7
I4
I2
tp190
a(I6
I4
I2
tp191
a(I5
I4
I2
tp192
a(I4
I4
I2
tp193
a(I4
I4
I1
tp194
a(I4
I3
I1
tp195
a(I3
I3
I1
tp196
a(I2
I3
I1
tp197
a(I1
I3
I1
tp198
a(I1
I4
I1
tp199
a(I1
I4
I0
tp200
ag17
asg87
g17
sg88
I27
sbaI0
ag179
ag179
aI0
ag0
(g144
g2
Ntp201
Rp202
(dp203
g148
I9
sg149
I1
sg150
I0
sg151
I5
sbag0
(g50
g2
Ntp204
Rp205
(dp206
g54
g17
sg55
(lp207
(I1
I5
I0
tp208
a(I1
I5
I1
tp209
a(I1
I5
I2
tp210
a(I2
I5
I2
tp211
a(I3
I5
I2
tp212
a(I4
I5
I2
tp213
a(I5
I5
I2
tp214
a(I6
I5
I2
tp215
a(I7
I5
I2
tp216
a(I8
I5
I2
tp217
a(I9
I5
I2
tp218
a(I10
I5
I2
tp219
a(I11
I5
I2
tp220
a(I12
I5
I2
tp221
a(I13
I5
I2
tp222
a(I13
I6
I2
tp223
a(I13
I7
I2
tp224
a(I13
I7
I1
tp225
ag21
asg87
g21
sg88
I0
sbag205
ag109
aI0
aI0
aI0
aI0
ag52
ag122
ag122
ag122
ag0
(g144
g2
Ntp226
Rp227
(dp228
g148
I20
sg149
I1
sg150
I0
sg151
I9
sbag0
(g50
g2
Ntp229
Rp230
(dp231
g54
g28
sg55
(lp232
(I1
I9
I0
tp233
a(I1
I9
I1
tp234
a(I1
I9
I2
tp235
a(I2
I9
I2
tp236
a(I3
I9
I2
tp237
a(I4
I9
I2
tp238
a(I5
I9
I2
tp239
a(I6
I9
I2
tp240
a(I7
I9
I2
tp241
a(I8
I9
I2
tp242
a(I9
I9
I2
tp243
a(I10
I9
I2
tp244
a(I11
I9
I2
tp245
a(I12
I9
I2
tp246
a(I13
I9
I2
tp247
a(I14
I9
I2
tp248
a(I15
I9
I2
tp249
a(I15
I8
I2
tp250
a(I15
I8
I1
tp251
ag27
asg87
g27
sg88
I4
sbag230
ag0
(g50
g2
Ntp252
Rp253
(dp254
g54
g10
sg55
(lp255
(I10
I1
I0
tp256
a(I9
I1
I0
tp257
a(I9
I1
I1
tp258
a(I8
I1
I1
tp259
a(I7
I1
I1
tp260
a(I7
I2
I1
tp261
a(I6
I2
I1
tp262
a(I5
I2
I1
tp263
a(I5
I3
I1
tp264
a(I5
I4
I1
tp265
a(I5
I5
I1
tp266
a(I5
I6
I1
tp267
a(I4
I6
I1
tp268
a(I4
I7
I1
tp269
a(I4
I8
I1
tp270
a(I4
I9
I1
tp271
a(I3
I9
I1
tp272
a(I3
I10
I1
tp273
a(I2
I10
I1
tp274
a(I1
I10
I1
tp275
a(I1
I10
I0
tp276
ag28
asg87
g28
sg88
I21
sbag253
ag122
ag0
(g144
g2
Ntp277
Rp278
(dp279
g148
I23
sg149
I1
sg150
I0
sg151
I11
sbag90
aI0
ag0
(g50
g2
Ntp280
Rp281
(dp282
g54
g11
sg55
(lp283
(I15
I1
I0
tp284
a(I16
I1
I0
tp285
a(I16
I1
I1
tp286
a(I16
I1
I2
tp287
a(I17
I1
I2
tp288
a(I17
I2
I2
tp289
a(I17
I3
I2
tp290
a(I17
I4
I2
tp291
a(I17
I5
I2
tp292
a(I17
I6
I2
tp293
a(I17
I7
I2
tp294
a(I17
I8
I2
tp295
a(I17
I9
I2
tp296
a(I17
I10
I2
tp297
a(I17
I11
I2
tp298
a(I17
I12
I2
tp299
a(I16
I12
I2
tp300
a(I15
I12
I2
tp301
a(I14
I12
I2
tp302
a(I13
I12
I2
tp303
a(I12
I12
I2
tp304
a(I11
I12
I2
tp305
a(I10
I12
I2
tp306
a(I9
I12
I2
tp307
a(I8
I12
I2
tp308
a(I7
I12
I2
tp309
a(I6
I12
I2
tp310
a(I5
I12
I2
tp311
a(I4
I12
I2
tp312
a(I3
I12
I2
tp313
a(I2
I12
I2
tp314
a(I1
I12
I2
tp315
a(I1
I12
I1
tp316
a(I1
I12
I0
tp317
ag31
asg87
g31
sg88
I11
sbag281
ag281
aI0
aI0
ag52
ag0
(g50
g2
Ntp318
Rp319
(dp320
g54
g9
sg55
(lp321
(I6
I1
I0
tp322
a(I5
I1
I0
tp323
a(I4
I1
I0
tp324
a(I3
I1
I0
tp325
a(I2
I1
I0
tp326
ag8
asg87
g8
sg88
I7
sbaI0
ag153
aI0
ag90
aI0
aI0
ag179
aI0
aI0
aI0
aI0
ag0
(g50
g2
Ntp327
Rp328
(dp329
g54
g24
sg55
(lp330
(I6
I8
I0
tp331
a(I6
I8
I1
tp332
a(I7
I8
I1
tp333
a(I7
I7
I1
tp334
a(I7
I7
I2
tp335
a(I6
I7
I2
tp336
a(I5
I7
I2
tp337
a(I4
I7
I2
tp338
a(I4
I6
I2
tp339
a(I3
I6
I2
tp340
a(I2
I6
I2
tp341
a(I2
I6
I1
tp342
a(I2
I5
I1
tp343
a(I2
I5
I0
tp344
ag17
asg87
g17
sg88
I23
sbag328
ag205
ag109
ag328
ag328
ag52
ag52
ag52
ag0
(g144
g2
Ntp345
Rp346
(dp347
g148
I15
sg149
I2
sg150
I0
sg151
I8
sbag0
(g50
g2
Ntp348
Rp349
(dp350
g54
g23
sg55
(lp351
(I2
I8
I0
tp352
a(I2
I8
I1
tp353
a(I2
I8
I2
tp354
a(I3
I8
I2
tp355
a(I4
I8
I2
tp356
a(I5
I8
I2
tp357
a(I6
I8
I2
tp358
a(I7
I8
I2
tp359
a(I8
I8
I2
tp360
a(I8
I7
I2
tp361
a(I8
I6
I2
tp362
a(I8
I6
I1
tp363
a(I8
I5
I1
tp364
a(I8
I4
I1
tp365
ag16
asg87
g16
sg88
I1
sbag349
ag0
(g50
g2
Ntp366
Rp367
(dp368
g54
g23
sg55
(lp369
(I2
I8
I0
tp370
a(I2
I9
I0
tp371
ag29
asg87
g29
sg88
I8
sbaI0
ag230
ag0
(g144
g2
Ntp372
Rp373
(dp374
g148
I21
sg149
I2
sg150
I0
sg151
I10
sbag253
ag122
ag0
(g50
g2
Ntp375
Rp376
(dp377
g54
g31
sg55
(lp378
(I1
I11
I0
tp379
a(I2
I11
I0
tp380
a(I2
I11
I1
tp381
a(I3
I11
I1
tp382
a(I4
I11
I1
tp383
a(I5
I11
I1
tp384
a(I5
I10
I1
tp385
a(I5
I9
I1
tp386
a(I5
I8
I1
tp387
a(I5
I7
I1
tp388
a(I6
I7
I1
tp389
a(I6
I6
I1
tp390
a(I6
I5
I1
tp391
a(I6
I4
I1
tp392
a(I7
I4
I1
tp393
a(I7
I4
I0
tp394
ag16
asg87
g16
sg88
I12
sbag376
aI0
aI0
aI0
ag281
aI0
aI0
ag52
ag319
aI0
ag153
ag0
(g144
g2
Ntp395
Rp396
(dp397
g148
I4
sg149
I3
sg150
I0
sg151
I2
sbag90
aI0
ag0
(g50
g2
Ntp398
Rp399
(dp400
g54
g18
sg55
(lp401
(I4
I5
I0
tp402
a(I4
I4
I0
tp403
a(I4
I3
I0
tp404
a(I3
I3
I0
tp405
ag12
asg87
g12
sg88
I19
sbag179
ag0
(g50
g2
Ntp406
Rp407
(dp408
g54
g23
sg55
(lp409
(I2
I8
I0
tp410
a(I3
I8
I0
tp411
a(I3
I8
I1
tp412
a(I3
I7
I1
tp413
a(I3
I6
I1
tp414
a(I3
I5
I1
tp415
a(I3
I4
I1
tp416
a(I3
I4
I2
tp417
a(I3
I3
I2
tp418
a(I4
I3
I2
tp419
a(I5
I3
I2
tp420
a(I6
I3
I2
tp421
a(I7
I3
I2
tp422
a(I8
I3
I2
tp423
a(I9
I3
I2
tp424
a(I10
I3
I2
tp425
a(I11
I3
I2
tp426
a(I12
I3
I2
tp427
a(I12
I2
I2
tp428
a(I12
I2
I1
tp429
ag13
asg87
g13
sg88
I3
sbaI0
ag407
ag407
aI0
ag407
ag205
ag109
ag407
ag328
aI0
ag407
aI0
ag407
ag407
ag349
aI0
ag253
ag230
aI0
ag253
ag122
aI0
ag376
aI0
aI0
aI0
ag281
aI0
ag0
(g50
g2
Ntp430
Rp431
(dp432
g54
g11
sg55
(lp433
(I15
I1
I0
tp434
a(I15
I0
I0
tp435
a(I15
I0
I1
tp436
a(I14
I0
I1
tp437
a(I13
I0
I1
tp438
a(I12
I0
I1
tp439
a(I11
I0
I1
tp440
a(I10
I0
I1
tp441
a(I9
I0
I1
tp442
a(I8
I0
I1
tp443
a(I7
I0
I1
tp444
a(I6
I0
I1
tp445
a(I5
I0
I1
tp446
a(I4
I0
I1
tp447
a(I4
I1
I1
tp448
a(I4
I2
I1
tp449
a(I4
I2
I0
tp450
ag12
asg87
g12
sg88
I22
sbag52
ag319
ag431
ag153
ag431
ag431
aI0
ag399
ag179
ag407
ag399
ag179
ag179
ag0
(g144
g2
Ntp451
Rp452
(dp453
g148
I10
sg149
I4
sg150
I0
sg151
I5
sbaI0
ag205
ag109
ag253
ag328
aI0
ag253
ag328
aI0
ag253
ag349
aI0
ag253
ag230
aI0
aI0
ag122
aI0
ag376
aI0
aI0
aI0
ag281
aI0
ag431
ag52
ag319
aI0
ag153
aI0
ag253
aI0
aI0
ag253
ag407
aI0
ag253
ag179
ag0
(g50
g2
Ntp454
Rp455
(dp456
g54
g18
sg55
(lp457
(I4
I5
I0
tp458
a(I5
I5
I0
tp459
a(I6
I5
I0
tp460
a(I6
I4
I0
tp461
a(I6
I3
I0
tp462
a(I7
I3
I0
tp463
a(I8
I3
I0
tp464
a(I9
I3
I0
tp465
a(I10
I3
I0
tp466
a(I11
I3
I0
tp467
ag15
asg87
g15
sg88
I29
sbag253
ag205
aI0
ag253
aI0
aI0
ag376
ag328
aI0
ag376
ag349
aI0
ag376
ag230
aI0
ag376
ag122
aI0
ag376
aI0
aI0
aI0
ag281
aI0
ag431
ag52
ag0
(g144
g2
Ntp468
Rp469
(dp470
g148
I1
sg149
I6
sg150
I0
sg151
I1
sbaI0
ag153
aI0
ag253
ag153
ag455
aI0
ag407
ag455
ag376
ag179
ag455
ag376
ag205
aI0
ag376
aI0
aI0
ag376
ag328
ag0
(g144
g2
Ntp471
Rp472
(dp473
g148
I16
sg149
I6
sg150
I0
sg151
I8
sbag328
ag349
ag0
(g50
g2
Ntp474
Rp475
(dp476
g54
g30
sg55
(lp477
(I9
I10
I0
tp478
a(I8
I10
I0
tp479
a(I7
I10
I0
tp480
a(I6
I10
I0
tp481
a(I6
I9
I0
tp482
ag24
asg87
g24
sg88
I28
sbaI0
ag230
ag475
aI0
ag122
aI0
aI0
aI0
aI0
aI0
ag281
aI0
ag431
ag52
aI0
ag253
aI0
aI0
ag253
ag153
ag455
aI0
ag407
ag376
ag376
ag179
aI0
aI0
ag205
aI0
aI0
aI0
aI0
ag328
ag328
aI0
ag328
ag349
aI0
aI0
ag230
ag475
aI0
ag122
aI0
aI0
aI0
aI0
aI0
ag281
aI0
ag431
ag52
aI0
ag253
aI0
aI0
aI0
ag153
ag455
aI0
ag407
ag0
(g144
g2
Ntp483
Rp484
(dp485
g148
I8
sg149
I8
sg150
I0
sg151
I4
sbag349
ag179
aI0
ag349
ag205
aI0
ag349
ag349
aI0
aI0
ag349
aI0
aI0
ag349
aI0
aI0
ag230
ag475
aI0
ag122
aI0
aI0
aI0
aI0
aI0
ag281
aI0
ag431
ag52
ag253
ag253
aI0
aI0
aI0
ag153
ag455
aI0
ag407
aI0
aI0
ag179
aI0
aI0
ag205
aI0
aI0
aI0
aI0
aI0
aI0
ag0
(g144
g2
Ntp486
Rp487
(dp488
g148
I17
sg149
I9
sg150
I0
sg151
I8
sbag122
aI0
ag0
(g50
g2
Ntp489
Rp490
(dp491
g54
g30
sg55
(lp492
(I9
I10
I0
tp493
a(I9
I9
I0
tp494
a(I10
I9
I0
tp495
a(I10
I8
I0
tp496
a(I10
I7
I0
tp497
a(I10
I6
I0
tp498
a(I10
I5
I0
tp499
ag19
asg87
g19
sg88
I18
sbag122
ag230
ag0
(g144
g2
Ntp500
Rp501
(dp502
g148
I22
sg149
I9
sg150
I0
sg151
I10
sbag122
ag122
aI0
aI0
aI0
aI0
aI0
ag281
aI0
ag431
ag52
ag0
(g144
g2
Ntp503
Rp504
(dp505
g148
I2
sg149
I10
sg150
I0
sg151
I1
sbag0
(g50
g2
Ntp506
Rp507
(dp508
g54
g27
sg55
(lp509
(I15
I8
I0
tp510
a(I15
I7
I0
tp511
a(I15
I7
I1
tp512
a(I15
I7
I2
tp513
a(I15
I6
I2
tp514
a(I15
I5
I2
tp515
a(I15
I4
I2
tp516
a(I14
I4
I2
tp517
a(I14
I3
I2
tp518
a(I14
I2
I2
tp519
a(I13
I2
I2
tp520
a(I13
I1
I2
tp521
a(I12
I1
I2
tp522
a(I11
I1
I2
tp523
a(I10
I1
I2
tp524
a(I10
I1
I1
tp525
ag10
asg87
g10
sg88
I17
sbag507
aI0
aI0
ag153
ag455
aI0
ag407
aI0
aI0
ag179
ag490
aI0
ag205
ag490
aI0
aI0
ag490
aI0
aI0
ag490
aI0
aI0
ag490
aI0
ag230
ag0
(g50
g2
Ntp526
Rp527
(dp528
g54
g30
sg55
(lp529
(I9
I10
I0
tp530
a(I10
I10
I0
tp531
a(I11
I10
I0
tp532
a(I12
I10
I0
tp533
a(I13
I10
I0
tp534
a(I13
I9
I0
tp535
a(I13
I8
I0
tp536
ag21
asg87
g21
sg88
I13
sbaI0
aI0
aI0
aI0
aI0
aI0
aI0
ag281
aI0
ag431
ag52
aI0
ag153
ag507
aI0
ag153
ag153
ag455
aI0
ag407
aI0
aI0
ag179
ag0
(g144
g2
Ntp537
Rp538
(dp539
g148
I11
sg149
I11
sg150
I0
sg151
I5
sbag0
(g50
g2
Ntp540
Rp541
(dp542
g54
g19
sg55
(lp543
(I11
I5
I0
tp544
a(I11
I5
I1
tp545
a(I11
I6
I1
tp546
a(I12
I6
I1
tp547
a(I12
I7
I1
tp548
a(I12
I8
I1
tp549
a(I12
I9
I1
tp550
a(I12
I10
I1
tp551
a(I12
I11
I1
tp552
ag32
asg87
g32
sg88
I20
sbag205
aI0
ag541
aI0
ag0
(g50
g2
Ntp553
Rp554
(dp555
g54
g21
sg55
(lp556
(I13
I7
I0
tp557
a(I12
I7
I0
tp558
a(I11
I7
I0
tp559
ag26
asg87
g26
sg88
I16
sbaI0
aI0
ag0
(g144
g2
Ntp560
Rp561
(dp562
g148
I18
sg149
I11
sg150
I0
sg151
I8
sbaI0
aI0
aI0
aI0
ag230
ag527
aI0
aI0
aI0
aI0
aI0
aI0
aI0
ag281
aI0
ag431
ag52
ag0
(g50
g2
Ntp563
Rp564
(dp565
g54
g11
sg55
(lp566
(I15
I1
I0
tp567
a(I14
I1
I0
tp568
a(I13
I1
I0
tp569
a(I12
I1
I0
tp570
ag13
asg87
g13
sg88
I9
sbag153
ag507
ag0
(g144
g2
Ntp571
Rp572
(dp573
g148
I5
sg149
I12
sg150
I0
sg151
I2
sbag407
ag407
ag0
(g144
g2
Ntp574
Rp575
(dp576
g148
I7
sg149
I12
sg150
I0
sg151
I3
sbag179
ag407
aI0
ag179
ag179
aI0
aI0
ag205
aI0
ag541
aI0
ag554
ag541
aI0
aI0
ag541
aI0
aI0
ag541
ag230
ag527
ag541
aI0
ag0
(g144
g2
Ntp577
Rp578
(dp579
g148
I24
sg149
I12
sg150
I0
sg151
I11
sbag541
aI0
aI0
aI0
ag281
aI0
ag431
ag52
ag564
ag153
ag507
ag0
(g50
g2
Ntp580
Rp581
(dp582
g54
g27
sg55
(lp583
(I15
I8
I0
tp584
a(I14
I8
I0
tp585
a(I14
I8
I1
tp586
a(I14
I7
I1
tp587
a(I14
I6
I1
tp588
a(I14
I5
I1
tp589
a(I14
I4
I1
tp590
a(I13
I4
I1
tp591
a(I13
I3
I1
tp592
a(I13
I2
I1
tp593
a(I13
I2
I0
tp594
ag13
asg87
g13
sg88
I24
sbag581
ag507
ag0
(g50
g2
Ntp595
Rp596
(dp597
g54
g15
sg55
(lp598
(I12
I3
I0
tp599
a(I13
I3
I0
tp600
a(I13
I4
I0
tp601
a(I13
I5
I0
tp602
a(I13
I6
I0
tp603
ag21
asg87
g21
sg88
I10
sbag581
aI0
ag596
ag581
aI0
ag596
aI0
ag205
ag596
aI0
ag205
ag0
(g144
g2
Ntp604
Rp605
(dp606
g148
I13
sg149
I13
sg150
I0
sg151
I7
sbag205
ag205
ag527
aI0
aI0
ag527
aI0
ag230
ag527
aI0
aI0
aI0
aI0
aI0
aI0
aI0
ag281
aI0
ag431
ag52
ag564
ag153
aI0
ag0
(g144
g2
Ntp607
Rp608
(dp609
g148
I6
sg149
I14
sg150
I0
sg151
I2
sbag153
ag507
ag0
(g50
g2
Ntp610
Rp611
(dp612
g54
g14
sg55
(lp613
(I14
I2
I0
tp614
a(I14
I3
I0
tp615
a(I15
I3
I0
tp616
a(I15
I4
I0
tp617
a(I15
I5
I0
tp618
a(I15
I6
I0
tp619
a(I16
I6
I0
tp620
ag22
asg87
g22
sg88
I26
sbaI0
ag507
aI0
ag581
ag507
aI0
ag581
aI0
aI0
ag581
aI0
aI0
ag581
aI0
ag581
ag581
aI0
aI0
aI0
ag230
aI0
aI0
aI0
aI0
aI0
aI0
aI0
aI0
ag281
ag431
ag431
ag52
ag0
(g144
g2
Ntp621
Rp622
(dp623
g148
I3
sg149
I15
sg150
I0
sg151
I1
sbag52
ag52
ag153
ag153
aI0
ag611
aI0
aI0
ag611
aI0
ag507
ag611
aI0
ag507
ag611
aI0
ag507
ag507
ag507
ag507
ag0
(g144
g2
Ntp624
Rp625
(dp626
g148
I19
sg149
I15
sg150
I0
sg151
I8
sbag230
ag230
aI0
aI0
ag230
aI0
aI0
aI0
aI0
aI0
aI0
aI0
aI0
ag281
aI0
aI0
aI0
ag281
ag281
ag281
aI0
aI0
aI0
aI0
aI0
aI0
aI0
aI0
aI0
ag0
(g144
g2
Ntp627
Rp628
(dp629
g148
I12
sg149
I16
sg150
I0
sg151
I5
sbaI0
aI0
ag611
aI0
aI0
ag0
(g144
g2
Ntp630
Rp631
(dp632
g148
I14
sg149
I16
sg150
I0
sg151
I7
sbaI0
aI0
aI0
aI0
aI0
aI0
aI0
aI0
aI0
aI0
aI0
aI0
aI0
aI0
aI0
aI0
ag281
aI0
aI0
aI0
aI0
aI0
ag281
aI0
aI0
ag281
aI0
aI0
ag281
aI0
aI0
ag281
aI0
aI0
ag281
aI0
aI0
ag281
aI0
aI0
ag281
aI0
aI0
ag281
aI0
aI0
ag281
aI0
aI0
ag281
aI0
aI0
ag281
aI0
aI0
ag281
atp633
bsS'x_dim'
p634
I18
sS'nets'
p635
(dp636
I0
g205
sI1
g349
sI2
g52
sI3
g407
sI4
g230
sI5
g90
sI6
g0
(g50
g2
Ntp637
Rp638
(dp639
g54
g13
sg55
(lp640
(I12
I2
I0
tp641
ag15
asg87
g15
sg88
I6
sbsI7
g319
sI8
g367
sI9
g564
sI10
g596
sI11
g281
sI12
g376
sI13
g527
sI14
g122
sI15
g109
sI16
g554
sI17
g507
sI18
g490
sI19
g399
sI20
g541
sI21
g253
sI22
g431
sI23
g328
sI24
g581
sI25
g153
sI26
g611
sI27
g179
sI28
g475
sI29
g455
ssb.