ccopy_reg
_reconstructor
p0
(cmodules.Objects
Board
p1
c__builtin__
object
p2
Ntp3
Rp4
(dp5
S'gates'
p6
(dp7
I0
g0
(cmodules.Objects
Gate
p8
g2
Ntp9
Rp10
(dp11
S'gate_id'
p12
I0
sS'x'
p13
I1
sS'z'
p14
I0
sS'y'
p15
I1
sbsI1
g0
(g8
g2
Ntp16
Rp17
(dp18
g12
I1
sg13
I6
sg14
I0
sg15
I1
sbsI2
g0
(g8
g2
Ntp19
Rp20
(dp21
g12
I2
sg13
I10
sg14
I0
sg15
I1
sbsI3
g0
(g8
g2
Ntp22
Rp23
(dp24
g12
I3
sg13
I15
sg14
I0
sg15
I1
sbsI4
g0
(g8
g2
Ntp25
Rp26
(dp27
g12
I4
sg13
I3
sg14
I0
sg15
I2
sbsI5
g0
(g8
g2
Ntp28
Rp29
(dp30
g12
I5
sg13
I12
sg14
I0
sg15
I2
sbsI6
g0
(g8
g2
Ntp31
Rp32
(dp33
g12
I6
sg13
I14
sg14
I0
sg15
I2
sbsI7
g0
(g8
g2
Ntp34
Rp35
(dp36
g12
I7
sg13
I12
sg14
I0
sg15
I3
sbsI8
g0
(g8
g2
Ntp37
Rp38
(dp39
g12
I8
sg13
I8
sg14
I0
sg15
I4
sbsI9
g0
(g8
g2
Ntp40
Rp41
(dp42
g12
I9
sg13
I1
sg14
I0
sg15
I5
sbsI10
g0
(g8
g2
Ntp43
Rp44
(dp45
g12
I10
sg13
I4
sg14
I0
sg15
I5
sbsI11
g0
(g8
g2
Ntp46
Rp47
(dp48
g12
I11
sg13
I11
sg14
I0
sg15
I5
sbsI12
g0
(g8
g2
Ntp49
Rp50
(dp51
g12
I12
sg13
I16
sg14
I0
sg15
I5
sbsI13
g0
(g8
g2
Ntp52
Rp53
(dp54
g12
I13
sg13
I13
sg14
I0
sg15
I7
sbsI14
g0
(g8
g2
Ntp55
Rp56
(dp57
g12
I14
sg13
I16
sg14
I0
sg15
I7
sbsI15
g0
(g8
g2
Ntp58
Rp59
(dp60
g12
I15
sg13
I2
sg14
I0
sg15
I8
sbsI16
g0
(g8
g2
Ntp61
Rp62
(dp63
g12
I16
sg13
I6
sg14
I0
sg15
I8
sbsI17
g0
(g8
g2
Ntp64
Rp65
(dp66
g12
I17
sg13
I9
sg14
I0
sg15
I8
sbsI18
g0
(g8
g2
Ntp67
Rp68
(dp69
g12
I18
sg13
I11
sg14
I0
sg15
I8
sbsI19
g0
(g8
g2
Ntp70
Rp71
(dp72
g12
I19
sg13
I15
sg14
I0
sg15
I8
sbsI20
g0
(g8
g2
Ntp73
Rp74
(dp75
g12
I20
sg13
I1
sg14
I0
sg15
I9
sbsI21
g0
(g8
g2
Ntp76
Rp77
(dp78
g12
I21
sg13
I2
sg14
I0
sg15
I10
sbsI22
g0
(g8
g2
Ntp79
Rp80
(dp81
g12
I22
sg13
I9
sg14
I0
sg15
I10
sbsI23
g0
(g8
g2
Ntp82
Rp83
(dp84
g12
I23
sg13
I1
sg14
I0
sg15
I11
sbsI24
g0
(g8
g2
Ntp85
Rp86
(dp87
g12
I24
sg13
I12
sg14
I0
sg15
I11
sbssS'y_dim'
p88
I13
sS'z_dim'
p89
I4
sS'board'
p90
cnumpy.core.multiarray
_reconstruct
p91
(cnumpy
ndarray
p92
(I0
tp93
S'b'
p94
tp95
Rp96
(I1
(I18
I13
I4
tp97
cnumpy
dtype
p98
(S'O8'
p99
I0
I1
tp100
Rp101
(I3
S'|'
p102
NNNI-1
I-1
I63
tp103
bI00
(lp104
I0
aI0
aI0
ag0
(cmodules.Objects
Net
p105
g2
Ntp106
Rp107
(dp108
S'start_gate'
p109
I3
sS'path'
p110
(lp111
(I15
I1
I0
tp112
a(I15
I1
I1
tp113
a(I15
I1
I2
tp114
a(I15
I1
I3
tp115
a(I15
I0
I3
tp116
a(I14
I0
I3
tp117
a(I13
I0
I3
tp118
a(I12
I0
I3
tp119
a(I11
I0
I3
tp120
a(I10
I0
I3
tp121
a(I9
I0
I3
tp122
a(I8
I0
I3
tp123
a(I7
I0
I3
tp124
a(I6
I0
I3
tp125
a(I5
I0
I3
tp126
a(I4
I0
I3
tp127
a(I3
I0
I3
tp128
a(I2
I0
I3
tp129
a(I1
I0
I3
tp130
a(I0
I0
I3
tp131
a(I0
I1
I3
tp132
a(I0
I2
I3
tp133
a(I0
I3
I3
tp134
a(I0
I4
I3
tp135
a(I0
I5
I3
tp136
a(I0
I6
I3
tp137
a(I0
I7
I3
tp138
a(I0
I8
I3
tp139
a(I0
I9
I3
tp140
a(I0
I10
I3
tp141
a(I0
I11
I3
tp142
a(I0
I11
I2
tp143
a(I0
I11
I1
tp144
a(I0
I11
I0
tp145
a(I1
I11
I0
tp146
asS'end_gate'
p147
I23
sS'net_id'
p148
I6
sbaI0
aI0
aI0
ag107
aI0
aI0
aI0
ag107
aI0
aI0
aI0
ag107
aI0
ag0
(g105
g2
Ntp149
Rp150
(dp151
g109
I7
sg110
(lp152
(I12
I3
I0
tp153
a(I11
I3
I0
tp154
a(I11
I3
I1
tp155
a(I11
I4
I1
tp156
a(I11
I4
I2
tp157
a(I10
I4
I2
tp158
a(I9
I4
I2
tp159
a(I9
I5
I2
tp160
a(I8
I5
I2
tp161
a(I7
I5
I2
tp162
a(I6
I5
I2
tp163
a(I5
I5
I2
tp164
a(I5
I4
I2
tp165
a(I4
I4
I2
tp166
a(I3
I4
I2
tp167
a(I2
I4
I2
tp168
a(I1
I4
I2
tp169
a(I0
I4
I2
tp170
a(I0
I4
I1
tp171
a(I0
I5
I1
tp172
a(I0
I5
I0
tp173
a(I1
I5
I0
tp174
asg147
I9
sg148
I26
sbag150
ag107
ag150
ag150
ag0
(g105
g2
Ntp175
Rp176
(dp177
g109
I2
sg110
(lp178
(I10
I1
I0
tp179
a(I9
I1
I0
tp180
a(I9
I1
I1
tp181
a(I9
I1
I2
tp182
a(I9
I1
I3
tp183
a(I8
I1
I3
tp184
a(I7
I1
I3
tp185
a(I6
I1
I3
tp186
a(I5
I1
I3
tp187
a(I4
I1
I3
tp188
a(I3
I1
I3
tp189
a(I2
I1
I3
tp190
a(I2
I2
I3
tp191
a(I1
I2
I3
tp192
a(I1
I3
I3
tp193
a(I1
I4
I3
tp194
a(I1
I5
I3
tp195
a(I1
I5
I2
tp196
a(I0
I5
I2
tp197
a(I0
I6
I2
tp198
a(I0
I7
I2
tp199
a(I0
I8
I2
tp200
a(I0
I9
I2
tp201
a(I0
I9
I1
tp202
a(I0
I9
I0
tp203
a(I1
I9
I0
tp204
asg147
I20
sg148
I18
sbag107
aI0
aI0
ag176
ag107
aI0
aI0
ag176
ag107
aI0
aI0
ag176
ag107
ag176
ag176
ag176
ag107
aI0
aI0
aI0
ag107
ag107
ag107
ag107
ag107
aI0
aI0
aI0
aI0
aI0
aI0
aI0
ag107
ag10
ag0
(g105
g2
Ntp205
Rp206
(dp207
g109
I3
sg110
(lp208
(I15
I1
I0
tp209
a(I16
I1
I0
tp210
a(I16
I1
I1
tp211
a(I16
I1
I2
tp212
a(I16
I1
I3
tp213
a(I16
I2
I3
tp214
a(I16
I3
I3
tp215
a(I15
I3
I3
tp216
a(I14
I3
I3
tp217
a(I13
I3
I3
tp218
a(I12
I3
I3
tp219
a(I11
I3
I3
tp220
a(I11
I3
I2
tp221
a(I10
I3
I2
tp222
a(I9
I3
I2
tp223
a(I8
I3
I2
tp224
a(I7
I3
I2
tp225
a(I6
I3
I2
tp226
a(I5
I3
I2
tp227
a(I4
I3
I2
tp228
a(I3
I3
I2
tp229
a(I2
I3
I2
tp230
a(I1
I3
I2
tp231
a(I1
I2
I2
tp232
a(I1
I1
I2
tp233
a(I1
I1
I1
tp234
a(I1
I1
I0
tp235
asg147
I0
sg148
I23
sbag206
aI0
aI0
aI0
ag206
ag176
ag0
(g105
g2
Ntp236
Rp237
(dp238
g109
I9
sg110
(lp239
(I1
I5
I0
tp240
a(I1
I4
I0
tp241
a(I1
I3
I0
tp242
a(I1
I3
I1
tp243
a(I2
I3
I1
tp244
a(I3
I3
I1
tp245
a(I4
I3
I1
tp246
a(I5
I3
I1
tp247
a(I5
I3
I0
tp248
a(I5
I4
I0
tp249
a(I5
I5
I0
tp250
a(I5
I5
I1
tp251
a(I5
I6
I1
tp252
a(I5
I6
I2
tp253
a(I6
I6
I2
tp254
a(I7
I6
I2
tp255
a(I7
I7
I2
tp256
a(I8
I7
I2
tp257
a(I9
I7
I2
tp258
a(I10
I7
I2
tp259
a(I10
I8
I2
tp260
a(I10
I8
I1
tp261
a(I11
I8
I1
tp262
a(I12
I8
I1
tp263
a(I13
I8
I1
tp264
a(I13
I8
I0
tp265
a(I13
I7
I0
tp266
asg147
I13
sg148
I27
sbag237
ag206
ag176
ag237
ag0
(g105
g2
Ntp267
Rp268
(dp269
g109
I15
sg110
(lp270
(I2
I8
I0
tp271
a(I1
I8
I0
tp272
a(I1
I8
I1
tp273
a(I1
I7
I1
tp274
a(I1
I6
I1
tp275
a(I1
I5
I1
tp276
a(I1
I4
I1
tp277
a(I2
I4
I1
tp278
a(I3
I4
I1
tp279
a(I4
I4
I1
tp280
a(I5
I4
I1
tp281
a(I6
I4
I1
tp282
a(I6
I3
I1
tp283
a(I6
I2
I1
tp284
a(I7
I2
I1
tp285
a(I8
I2
I1
tp286
a(I9
I2
I1
tp287
a(I10
I2
I1
tp288
a(I11
I2
I1
tp289
a(I11
I2
I0
tp290
a(I12
I2
I0
tp291
asg147
I5
sg148
I24
sbag150
ag176
ag41
ag268
ag176
ag176
ag0
(g105
g2
Ntp292
Rp293
(dp294
g109
I16
sg110
(lp295
(I6
I8
I0
tp296
a(I5
I8
I0
tp297
a(I5
I7
I0
tp298
a(I4
I7
I0
tp299
a(I4
I6
I0
tp300
a(I3
I6
I0
tp301
a(I2
I6
I0
tp302
a(I1
I6
I0
tp303
a(I1
I5
I0
tp304
asg147
I9
sg148
I21
sbag268
ag0
(g105
g2
Ntp305
Rp306
(dp307
g109
I20
sg110
(lp308
(I1
I9
I0
tp309
a(I1
I9
I1
tp310
a(I1
I9
I2
tp311
a(I1
I8
I2
tp312
a(I1
I7
I2
tp313
a(I1
I6
I2
tp314
a(I2
I6
I2
tp315
a(I2
I5
I2
tp316
a(I3
I5
I2
tp317
a(I4
I5
I2
tp318
a(I4
I5
I1
tp319
a(I4
I5
I0
tp320
asg147
I10
sg148
I10
sbaI0
aI0
ag268
ag306
aI0
ag268
ag268
ag306
aI0
ag74
ag306
ag306
aI0
ag0
(g105
g2
Ntp321
Rp322
(dp323
g109
I20
sg110
(lp324
(I1
I9
I0
tp325
a(I1
I10
I0
tp326
a(I1
I10
I1
tp327
a(I1
I10
I2
tp328
a(I2
I10
I2
tp329
a(I3
I10
I2
tp330
a(I4
I10
I2
tp331
a(I4
I11
I2
tp332
a(I4
I12
I2
tp333
a(I5
I12
I2
tp334
a(I6
I12
I2
tp335
a(I7
I12
I2
tp336
a(I8
I12
I2
tp337
a(I9
I12
I2
tp338
a(I9
I12
I3
tp339
a(I10
I12
I3
tp340
a(I11
I12
I3
tp341
a(I12
I12
I3
tp342
a(I13
I12
I3
tp343
a(I14
I12
I3
tp344
a(I15
I12
I3
tp345
a(I15
I11
I3
tp346
a(I15
I10
I3
tp347
a(I15
I9
I3
tp348
a(I15
I9
I2
tp349
a(I15
I9
I1
tp350
a(I15
I9
I0
tp351
a(I15
I8
I0
tp352
asg147
I19
sg148
I20
sbag322
ag322
aI0
ag83
ag0
(g105
g2
Ntp353
Rp354
(dp355
g109
I23
sg110
(lp356
(I1
I11
I0
tp357
a(I1
I11
I1
tp358
a(I1
I11
I2
tp359
a(I1
I11
I3
tp360
a(I2
I11
I3
tp361
a(I3
I11
I3
tp362
a(I3
I10
I3
tp363
a(I3
I9
I3
tp364
a(I3
I8
I3
tp365
a(I3
I7
I3
tp366
a(I3
I6
I3
tp367
a(I3
I5
I3
tp368
a(I3
I4
I3
tp369
a(I3
I3
I3
tp370
a(I3
I2
I3
tp371
a(I3
I2
I2
tp372
a(I3
I2
I1
tp373
a(I3
I2
I0
tp374
asg147
I4
sg148
I0
sbag354
ag354
ag0
(g105
g2
Ntp375
Rp376
(dp377
g109
I23
sg110
(lp378
(I1
I11
I0
tp379
a(I1
I12
I0
tp380
a(I1
I12
I1
tp381
a(I1
I12
I2
tp382
a(I1
I12
I3
tp383
a(I2
I12
I3
tp384
a(I3
I12
I3
tp385
a(I4
I12
I3
tp386
a(I5
I12
I3
tp387
a(I6
I12
I3
tp388
a(I7
I12
I3
tp389
a(I8
I12
I3
tp390
a(I8
I11
I3
tp391
a(I8
I10
I3
tp392
a(I8
I9
I3
tp393
a(I8
I8
I3
tp394
a(I8
I7
I3
tp395
a(I8
I6
I3
tp396
a(I8
I5
I3
tp397
a(I8
I4
I3
tp398
a(I8
I4
I2
tp399
a(I8
I4
I1
tp400
a(I8
I4
I0
tp401
asg147
I8
sg148
I7
sbag376
ag376
ag376
aI0
aI0
aI0
ag107
ag0
(g105
g2
Ntp402
Rp403
(dp404
g109
I1
sg110
(lp405
(I6
I1
I0
tp406
a(I5
I1
I0
tp407
a(I4
I1
I0
tp408
a(I3
I1
I0
tp409
a(I2
I1
I0
tp410
a(I1
I1
I0
tp411
asg147
I0
sg148
I2
sbaI0
aI0
ag176
aI0
aI0
aI0
ag176
aI0
ag237
ag206
aI0
aI0
ag268
ag150
aI0
aI0
aI0
ag306
aI0
ag293
aI0
ag306
aI0
ag0
(g105
g2
Ntp412
Rp413
(dp414
g109
I15
sg110
(lp415
(I2
I8
I0
tp416
a(I2
I7
I0
tp417
a(I2
I7
I1
tp418
a(I2
I7
I2
tp419
a(I3
I7
I2
tp420
a(I4
I7
I2
tp421
a(I4
I7
I3
tp422
a(I5
I7
I3
tp423
a(I6
I7
I3
tp424
a(I6
I6
I3
tp425
a(I6
I5
I3
tp426
a(I6
I4
I3
tp427
a(I7
I4
I3
tp428
a(I7
I4
I2
tp429
a(I7
I4
I1
tp430
a(I7
I4
I0
tp431
a(I8
I4
I0
tp432
asg147
I8
sg148
I11
sbag413
ag413
aI0
ag59
ag0
(g105
g2
Ntp433
Rp434
(dp435
g109
I15
sg110
(lp436
(I2
I8
I0
tp437
a(I2
I8
I1
tp438
a(I2
I8
I2
tp439
a(I3
I8
I2
tp440
a(I4
I8
I2
tp441
a(I5
I8
I2
tp442
a(I6
I8
I2
tp443
a(I7
I8
I2
tp444
a(I8
I8
I2
tp445
a(I9
I8
I2
tp446
a(I9
I8
I1
tp447
a(I9
I8
I0
tp448
asg147
I17
sg148
I9
sbag434
aI0
ag0
(g105
g2
Ntp449
Rp450
(dp451
g109
I15
sg110
(lp452
(I2
I8
I0
tp453
a(I2
I9
I0
tp454
a(I2
I10
I0
tp455
asg147
I21
sg148
I3
sbaI0
aI0
aI0
ag77
aI0
ag322
aI0
aI0
aI0
aI0
ag354
aI0
aI0
aI0
ag376
aI0
aI0
aI0
ag107
ag403
aI0
aI0
ag176
ag26
ag354
ag354
ag354
ag0
(g105
g2
Ntp456
Rp457
(dp458
g109
I10
sg110
(lp459
(I4
I5
I0
tp460
a(I3
I5
I0
tp461
a(I3
I4
I0
tp462
a(I3
I3
I0
tp463
a(I3
I2
I0
tp464
asg147
I4
sg148
I15
sbag237
ag206
ag354
ag457
ag268
ag150
ag354
ag457
aI0
ag306
ag354
ag293
ag0
(g105
g2
Ntp465
Rp466
(dp467
g109
I3
sg110
(lp468
(I15
I1
I0
tp469
a(I15
I2
I0
tp470
a(I15
I2
I1
tp471
a(I15
I2
I2
tp472
a(I14
I2
I2
tp473
a(I13
I2
I2
tp474
a(I12
I2
I2
tp475
a(I11
I2
I2
tp476
a(I10
I2
I2
tp477
a(I9
I2
I2
tp478
a(I9
I2
I3
tp479
a(I8
I2
I3
tp480
a(I7
I2
I3
tp481
a(I6
I2
I3
tp482
a(I5
I2
I3
tp483
a(I5
I3
I3
tp484
a(I4
I3
I3
tp485
a(I4
I4
I3
tp486
a(I4
I5
I3
tp487
a(I4
I6
I3
tp488
a(I4
I6
I2
tp489
a(I3
I6
I2
tp490
a(I3
I6
I1
tp491
a(I3
I7
I1
tp492
a(I3
I8
I1
tp493
a(I3
I8
I0
tp494
a(I2
I8
I0
tp495
asg147
I15
sg148
I17
sbag466
ag354
aI0
ag466
ag413
ag354
ag466
ag466
ag434
ag354
aI0
aI0
aI0
ag354
aI0
aI0
ag322
ag354
aI0
aI0
aI0
ag354
aI0
aI0
aI0
ag376
aI0
aI0
ag0
(g105
g2
Ntp496
Rp497
(dp498
g109
I3
sg110
(lp499
(I15
I1
I0
tp500
a(I15
I0
I0
tp501
a(I15
I0
I1
tp502
a(I15
I0
I2
tp503
a(I14
I0
I2
tp504
a(I13
I0
I2
tp505
a(I12
I0
I2
tp506
a(I11
I0
I2
tp507
a(I10
I0
I2
tp508
a(I9
I0
I2
tp509
a(I8
I0
I2
tp510
a(I7
I0
I2
tp511
a(I6
I0
I2
tp512
a(I5
I0
I2
tp513
a(I4
I0
I2
tp514
a(I4
I1
I2
tp515
a(I4
I2
I2
tp516
a(I4
I2
I1
tp517
a(I4
I2
I0
tp518
a(I3
I2
I0
tp519
asg147
I4
sg148
I19
sbag107
ag403
aI0
ag497
ag176
ag497
ag497
ag497
aI0
aI0
ag237
ag206
ag466
aI0
ag268
ag150
ag466
ag44
ag306
ag306
ag466
ag293
aI0
ag466
ag466
ag293
aI0
ag413
ag413
aI0
aI0
ag434
aI0
aI0
aI0
aI0
aI0
aI0
aI0
ag322
aI0
aI0
aI0
ag322
aI0
aI0
aI0
ag322
ag376
aI0
aI0
ag497
ag107
ag403
aI0
aI0
ag176
aI0
aI0
aI0
ag466
ag237
ag237
ag206
ag466
ag237
ag268
ag150
aI0
ag237
ag237
ag150
aI0
aI0
ag237
ag237
aI0
ag293
aI0
aI0
ag413
ag293
aI0
ag434
aI0
aI0
aI0
aI0
aI0
aI0
aI0
aI0
aI0
aI0
aI0
aI0
aI0
aI0
aI0
ag322
ag376
aI0
aI0
ag497
ag107
ag17
aI0
aI0
ag176
aI0
ag268
aI0
ag466
aI0
ag268
ag206
aI0
aI0
ag268
aI0
ag413
aI0
aI0
ag150
ag413
aI0
aI0
ag237
ag413
aI0
aI0
aI0
ag413
ag62
aI0
ag434
aI0
ag0
(g105
g2
Ntp520
Rp521
(dp522
g109
I22
sg110
(lp523
(I9
I10
I0
tp524
a(I8
I10
I0
tp525
a(I7
I10
I0
tp526
a(I6
I10
I0
tp527
a(I6
I9
I0
tp528
a(I6
I8
I0
tp529
asg147
I16
sg148
I28
sbaI0
aI0
aI0
ag521
aI0
aI0
aI0
aI0
aI0
aI0
aI0
aI0
aI0
ag322
ag376
aI0
aI0
ag497
ag107
aI0
aI0
aI0
ag176
aI0
ag268
aI0
ag466
aI0
aI0
ag206
aI0
ag413
ag413
ag413
ag413
aI0
aI0
ag150
aI0
aI0
aI0
ag237
aI0
aI0
aI0
ag237
aI0
aI0
aI0
ag434
aI0
aI0
aI0
aI0
aI0
ag521
aI0
aI0
aI0
aI0
aI0
aI0
aI0
aI0
aI0
ag322
ag376
aI0
aI0
ag497
ag107
aI0
aI0
aI0
ag176
aI0
ag268
aI0
ag466
aI0
aI0
ag206
aI0
ag38
ag376
ag376
ag376
aI0
aI0
ag150
ag376
aI0
aI0
aI0
ag376
aI0
aI0
ag237
ag376
aI0
aI0
ag434
ag376
aI0
aI0
aI0
ag376
ag521
aI0
aI0
ag376
aI0
aI0
aI0
ag376
aI0
aI0
ag322
ag376
aI0
aI0
ag497
ag107
ag176
ag176
ag176
ag176
aI0
ag268
ag466
ag466
aI0
aI0
ag206
aI0
aI0
aI0
ag150
aI0
aI0
aI0
ag150
aI0
aI0
aI0
aI0
aI0
aI0
aI0
ag237
aI0
ag65
ag434
ag434
aI0
aI0
aI0
aI0
aI0
ag80
ag0
(g105
g2
Ntp530
Rp531
(dp532
g109
I22
sg110
(lp533
(I9
I10
I0
tp534
a(I9
I10
I1
tp535
a(I9
I10
I2
tp536
a(I9
I10
I3
tp537
a(I10
I10
I3
tp538
a(I11
I10
I3
tp539
a(I12
I10
I3
tp540
a(I13
I10
I3
tp541
a(I13
I9
I3
tp542
a(I13
I8
I3
tp543
a(I13
I7
I3
tp544
a(I13
I7
I2
tp545
a(I13
I7
I1
tp546
a(I13
I7
I0
tp547
asg147
I13
sg148
I8
sbag531
ag531
aI0
aI0
aI0
aI0
aI0
aI0
ag322
ag322
aI0
aI0
ag497
ag107
ag20
ag0
(g105
g2
Ntp548
Rp549
(dp550
g109
I19
sg110
(lp551
(I15
I8
I0
tp552
a(I15
I8
I1
tp553
a(I15
I8
I2
tp554
a(I15
I8
I3
tp555
a(I15
I7
I3
tp556
a(I15
I6
I3
tp557
a(I14
I6
I3
tp558
a(I14
I5
I3
tp559
a(I13
I5
I3
tp560
a(I12
I5
I3
tp561
a(I11
I5
I3
tp562
a(I10
I5
I3
tp563
a(I10
I4
I3
tp564
a(I10
I3
I3
tp565
a(I10
I2
I3
tp566
a(I10
I1
I3
tp567
a(I10
I1
I2
tp568
a(I10
I1
I1
tp569
a(I10
I1
I0
tp570
asg147
I2
sg148
I13
sbag549
ag549
aI0
ag268
ag466
ag549
aI0
aI0
ag206
ag549
aI0
aI0
ag150
ag549
aI0
aI0
aI0
ag549
aI0
aI0
aI0
aI0
aI0
aI0
ag237
aI0
aI0
ag237
ag237
aI0
aI0
aI0
ag0
(g105
g2
Ntp571
Rp572
(dp573
g109
I22
sg110
(lp574
(I9
I10
I0
tp575
a(I10
I10
I0
tp576
a(I10
I10
I1
tp577
a(I10
I10
I2
tp578
a(I10
I9
I2
tp579
a(I11
I9
I2
tp580
a(I11
I8
I2
tp581
a(I11
I7
I2
tp582
a(I11
I6
I2
tp583
a(I11
I5
I2
tp584
a(I11
I5
I1
tp585
a(I11
I5
I0
tp586
asg147
I11
sg148
I14
sbaI0
ag572
ag572
ag572
ag531
aI0
aI0
aI0
aI0
aI0
aI0
aI0
ag322
aI0
aI0
ag497
ag107
aI0
aI0
aI0
aI0
ag268
ag268
ag466
aI0
ag150
ag150
ag206
ag206
aI0
ag150
ag150
aI0
ag47
ag572
ag572
ag549
aI0
aI0
ag572
aI0
ag0
(g105
g2
Ntp587
Rp588
(dp589
g109
I13
sg110
(lp590
(I13
I7
I0
tp591
a(I12
I7
I0
tp592
a(I11
I7
I0
tp593
a(I11
I8
I0
tp594
asg147
I18
sg148
I12
sbaI0
ag572
aI0
ag68
ag237
ag572
aI0
aI0
aI0
ag572
aI0
aI0
aI0
aI0
ag531
aI0
aI0
aI0
aI0
aI0
aI0
aI0
ag322
aI0
aI0
ag497
ag107
ag0
(g105
g2
Ntp595
Rp596
(dp597
g109
I3
sg110
(lp598
(I15
I1
I0
tp599
a(I14
I1
I0
tp600
a(I13
I1
I0
tp601
a(I12
I1
I0
tp602
a(I12
I2
I0
tp603
asg147
I5
sg148
I4
sbaI0
aI0
aI0
ag29
ag0
(g105
g2
Ntp604
Rp605
(dp606
g109
I19
sg110
(lp607
(I15
I8
I0
tp608
a(I14
I8
I0
tp609
a(I14
I8
I1
tp610
a(I14
I8
I2
tp611
a(I14
I7
I2
tp612
a(I14
I6
I2
tp613
a(I14
I5
I2
tp614
a(I14
I4
I2
tp615
a(I13
I4
I2
tp616
a(I12
I4
I2
tp617
a(I12
I3
I2
tp618
a(I12
I3
I1
tp619
a(I12
I2
I1
tp620
a(I12
I2
I0
tp621
asg147
I5
sg148
I22
sbag466
aI0
ag35
ag605
ag605
ag206
aI0
aI0
ag605
aI0
ag0
(g105
g2
Ntp622
Rp623
(dp624
g109
I11
sg110
(lp625
(I11
I5
I0
tp626
a(I12
I5
I0
tp627
a(I12
I5
I1
tp628
a(I12
I5
I2
tp629
a(I12
I6
I2
tp630
a(I12
I7
I2
tp631
a(I12
I8
I2
tp632
a(I12
I9
I2
tp633
a(I12
I10
I2
tp634
a(I12
I11
I2
tp635
a(I12
I11
I1
tp636
a(I12
I11
I0
tp637
asg147
I24
sg148
I16
sbag623
ag623
ag549
aI0
aI0
ag623
aI0
ag588
aI0
ag623
aI0
aI0
ag237
ag623
aI0
aI0
aI0
ag623
aI0
aI0
aI0
ag623
ag531
ag86
ag623
ag623
aI0
aI0
aI0
aI0
ag322
aI0
aI0
ag497
ag107
ag596
aI0
aI0
aI0
aI0
aI0
ag466
aI0
ag0
(g105
g2
Ntp638
Rp639
(dp640
g109
I7
sg110
(lp641
(I12
I3
I0
tp642
a(I13
I3
I0
tp643
a(I13
I4
I0
tp644
a(I13
I5
I0
tp645
a(I13
I6
I0
tp646
a(I13
I7
I0
tp647
asg147
I13
sg148
I5
sbaI0
aI0
ag206
ag639
aI0
ag605
aI0
ag639
aI0
aI0
ag549
ag639
aI0
aI0
aI0
ag53
ag531
ag531
ag531
ag237
ag237
aI0
ag531
aI0
aI0
aI0
ag531
aI0
aI0
aI0
ag531
aI0
aI0
aI0
aI0
aI0
aI0
aI0
ag322
aI0
aI0
ag497
ag107
ag596
aI0
aI0
aI0
ag32
ag0
(g105
g2
Ntp648
Rp649
(dp650
g109
I6
sg110
(lp651
(I14
I2
I0
tp652
a(I14
I2
I1
tp653
a(I14
I3
I1
tp654
a(I14
I3
I2
tp655
a(I15
I3
I2
tp656
a(I16
I3
I2
tp657
a(I16
I4
I2
tp658
a(I16
I5
I2
tp659
a(I16
I6
I2
tp660
a(I16
I7
I2
tp661
a(I16
I7
I1
tp662
a(I16
I7
I0
tp663
asg147
I14
sg148
I25
sbag466
aI0
aI0
ag649
ag649
ag206
aI0
aI0
ag605
aI0
aI0
aI0
ag605
ag549
aI0
aI0
ag605
ag549
aI0
aI0
ag605
aI0
ag605
ag605
ag605
aI0
aI0
aI0
aI0
aI0
aI0
aI0
aI0
aI0
aI0
aI0
aI0
aI0
aI0
aI0
aI0
ag322
ag497
ag497
ag497
ag107
ag23
ag107
ag107
ag107
ag466
ag466
ag466
aI0
aI0
aI0
ag649
ag206
aI0
aI0
aI0
aI0
aI0
aI0
aI0
aI0
aI0
aI0
aI0
ag549
aI0
aI0
aI0
ag549
ag71
ag549
ag549
ag549
ag322
ag322
ag322
ag322
aI0
aI0
aI0
ag322
aI0
aI0
aI0
ag322
aI0
aI0
aI0
ag322
aI0
aI0
aI0
aI0
ag206
ag206
ag206
ag206
aI0
aI0
aI0
ag206
aI0
aI0
ag649
ag206
aI0
aI0
ag649
aI0
ag50
aI0
ag649
aI0
aI0
aI0
ag649
aI0
ag56
ag649
ag649
aI0
aI0
aI0
aI0
aI0
aI0
aI0
aI0
aI0
aI0
aI0
aI0
aI0
aI0
aI0
aI0
aI0
aI0
aI0
aI0
aI0
aI0
aI0
aI0
aI0
aI0
aI0
aI0
aI0
aI0
aI0
aI0
aI0
aI0
aI0
aI0
aI0
aI0
aI0
aI0
aI0
aI0
aI0
aI0
aI0
aI0
aI0
aI0
aI0
aI0
aI0
aI0
aI0
aI0
aI0
aI0
aI0
aI0
aI0
aI0
aI0
aI0
aI0
aI0
aI0
aI0
aI0
aI0
aI0
aI0
aI0
aI0
aI0
atp664
bsS'x_dim'
p665
I18
sS'nets'
p666
(dp667
I0
g354
sI1
g0
(g105
g2
Ntp668
Rp669
(dp670
g109
I5
sg110
(lp671
(I12
I2
I0
tp672
a(I12
I3
I0
tp673
asg147
I7
sg148
I1
sbsI2
g403
sI3
g450
sI4
g596
sI5
g639
sI6
g107
sI7
g376
sI8
g531
sI9
g434
sI10
g306
sI11
g413
sI12
g588
sI13
g549
sI14
g572
sI15
g457
sI16
g623
sI17
g466
sI18
g176
sI19
g497
sI20
g322
sI21
g293
sI22
g605
sI23
g206
sI24
g268
sI25
g649
sI26
g150
sI27
g237
sI28
g521
ssb.