ccopy_reg
_reconstructor
p0
(cmodules.Objects
Board
p1
c__builtin__
object
p2
Ntp3
Rp4
(dp5
S'gates'
p6
(dp7
I0
g0
(cmodules.Objects
Gate
p8
g2
Ntp9
Rp10
(dp11
S'gate_id'
p12
I0
sS'x'
p13
I1
sS'z'
p14
I0
sS'y'
p15
I1
sbsI1
g0
(g8
g2
Ntp16
Rp17
(dp18
g12
I1
sg13
I6
sg14
I0
sg15
I1
sbsI2
g0
(g8
g2
Ntp19
Rp20
(dp21
g12
I2
sg13
I10
sg14
I0
sg15
I1
sbsI3
g0
(g8
g2
Ntp22
Rp23
(dp24
g12
I3
sg13
I15
sg14
I0
sg15
I1
sbsI4
g0
(g8
g2
Ntp25
Rp26
(dp27
g12
I4
sg13
I3
sg14
I0
sg15
I2
sbsI5
g0
(g8
g2
Ntp28
Rp29
(dp30
g12
I5
sg13
I12
sg14
I0
sg15
I2
sbsI6
g0
(g8
g2
Ntp31
Rp32
(dp33
g12
I6
sg13
I14
sg14
I0
sg15
I2
sbsI7
g0
(g8
g2
Ntp34
Rp35
(dp36
g12
I7
sg13
I1
sg14
I0
sg15
I3
sbsI8
g0
(g8
g2
Ntp37
Rp38
(dp39
g12
I8
sg13
I6
sg14
I0
sg15
I3
sbsI9
g0
(g8
g2
Ntp40
Rp41
(dp42
g12
I9
sg13
I12
sg14
I0
sg15
I3
sbsI10
g0
(g8
g2
Ntp43
Rp44
(dp45
g12
I10
sg13
I15
sg14
I0
sg15
I3
sbsI11
g0
(g8
g2
Ntp46
Rp47
(dp48
g12
I11
sg13
I2
sg14
I0
sg15
I4
sbsI12
g0
(g8
g2
Ntp49
Rp50
(dp51
g12
I12
sg13
I8
sg14
I0
sg15
I4
sbsI13
g0
(g8
g2
Ntp52
Rp53
(dp54
g12
I13
sg13
I1
sg14
I0
sg15
I5
sbsI14
g0
(g8
g2
Ntp55
Rp56
(dp57
g12
I14
sg13
I4
sg14
I0
sg15
I5
sbsI15
g0
(g8
g2
Ntp58
Rp59
(dp60
g12
I15
sg13
I10
sg14
I0
sg15
I5
sbsI16
g0
(g8
g2
Ntp61
Rp62
(dp63
g12
I16
sg13
I11
sg14
I0
sg15
I5
sbsI17
g0
(g8
g2
Ntp64
Rp65
(dp66
g12
I17
sg13
I16
sg14
I0
sg15
I5
sbsI18
g0
(g8
g2
Ntp67
Rp68
(dp69
g12
I18
sg13
I2
sg14
I0
sg15
I6
sbsI19
g0
(g8
g2
Ntp70
Rp71
(dp72
g12
I19
sg13
I7
sg14
I0
sg15
I6
sbsI20
g0
(g8
g2
Ntp73
Rp74
(dp75
g12
I20
sg13
I10
sg14
I0
sg15
I6
sbsI21
g0
(g8
g2
Ntp76
Rp77
(dp78
g12
I21
sg13
I12
sg14
I0
sg15
I6
sbsI22
g0
(g8
g2
Ntp79
Rp80
(dp81
g12
I22
sg13
I15
sg14
I0
sg15
I6
sbsI23
g0
(g8
g2
Ntp82
Rp83
(dp84
g12
I23
sg13
I6
sg14
I0
sg15
I7
sbsI24
g0
(g8
g2
Ntp85
Rp86
(dp87
g12
I24
sg13
I13
sg14
I0
sg15
I7
sbsI25
g0
(g8
g2
Ntp88
Rp89
(dp90
g12
I25
sg13
I16
sg14
I0
sg15
I7
sbsI26
g0
(g8
g2
Ntp91
Rp92
(dp93
g12
I26
sg13
I6
sg14
I0
sg15
I8
sbsI27
g0
(g8
g2
Ntp94
Rp95
(dp96
g12
I27
sg13
I7
sg14
I0
sg15
I8
sbsI28
g0
(g8
g2
Ntp97
Rp98
(dp99
g12
I28
sg13
I9
sg14
I0
sg15
I8
sbsI29
g0
(g8
g2
Ntp100
Rp101
(dp102
g12
I29
sg13
I11
sg14
I0
sg15
I8
sbsI30
g0
(g8
g2
Ntp103
Rp104
(dp105
g12
I30
sg13
I15
sg14
I0
sg15
I8
sbsI31
g0
(g8
g2
Ntp106
Rp107
(dp108
g12
I31
sg13
I1
sg14
I0
sg15
I9
sbsI32
g0
(g8
g2
Ntp109
Rp110
(dp111
g12
I32
sg13
I6
sg14
I0
sg15
I9
sbsI33
g0
(g8
g2
Ntp112
Rp113
(dp114
g12
I33
sg13
I9
sg14
I0
sg15
I10
sbsI34
g0
(g8
g2
Ntp115
Rp116
(dp117
g12
I34
sg13
I12
sg14
I0
sg15
I11
sbsI35
g0
(g8
g2
Ntp118
Rp119
(dp120
g12
I35
sg13
I2
sg14
I0
sg15
I12
sbsI36
g0
(g8
g2
Ntp121
Rp122
(dp123
g12
I36
sg13
I4
sg14
I0
sg15
I12
sbsI37
g0
(g8
g2
Ntp124
Rp125
(dp126
g12
I37
sg13
I7
sg14
I0
sg15
I12
sbsI38
g0
(g8
g2
Ntp127
Rp128
(dp129
g12
I38
sg13
I10
sg14
I0
sg15
I12
sbsI39
g0
(g8
g2
Ntp130
Rp131
(dp132
g12
I39
sg13
I15
sg14
I0
sg15
I12
sbsI40
g0
(g8
g2
Ntp133
Rp134
(dp135
g12
I40
sg13
I9
sg14
I0
sg15
I13
sbsI41
g0
(g8
g2
Ntp136
Rp137
(dp138
g12
I41
sg13
I13
sg14
I0
sg15
I13
sbsI42
g0
(g8
g2
Ntp139
Rp140
(dp141
g12
I42
sg13
I4
sg14
I0
sg15
I14
sbsI43
g0
(g8
g2
Ntp142
Rp143
(dp144
g12
I43
sg13
I6
sg14
I0
sg15
I14
sbsI44
g0
(g8
g2
Ntp145
Rp146
(dp147
g12
I44
sg13
I1
sg14
I0
sg15
I15
sbsI45
g0
(g8
g2
Ntp148
Rp149
(dp150
g12
I45
sg13
I6
sg14
I0
sg15
I15
sbsI46
g0
(g8
g2
Ntp151
Rp152
(dp153
g12
I46
sg13
I8
sg14
I0
sg15
I15
sbsI47
g0
(g8
g2
Ntp154
Rp155
(dp156
g12
I47
sg13
I11
sg14
I0
sg15
I15
sbsI48
g0
(g8
g2
Ntp157
Rp158
(dp159
g12
I48
sg13
I13
sg14
I0
sg15
I15
sbsI49
g0
(g8
g2
Ntp160
Rp161
(dp162
g12
I49
sg13
I16
sg14
I0
sg15
I15
sbssS'y_dim'
p163
I17
sS'z_dim'
p164
I10
sS'board'
p165
cnumpy.core.multiarray
_reconstruct
p166
(cnumpy
ndarray
p167
(I0
tp168
S'b'
p169
tp170
Rp171
(I1
(I18
I17
I10
tp172
cnumpy
dtype
p173
(S'O8'
p174
I0
I1
tp175
Rp176
(I3
S'|'
p177
NNNI-1
I-1
I63
tp178
bI00
(lp179
I0
aI0
aI0
aI0
aI0
aI0
aI0
aI0
aI0
aI0
ag0
(cmodules.Objects
Net
p180
g2
Ntp181
Rp182
(dp183
S'start_gate'
p184
I46
sS'path'
p185
(lp186
(I8
I15
I0
tp187
a(I8
I15
I1
tp188
a(I8
I15
I2
tp189
a(I8
I15
I3
tp190
a(I8
I15
I4
tp191
a(I8
I15
I5
tp192
a(I8
I15
I6
tp193
a(I8
I15
I7
tp194
a(I8
I15
I8
tp195
a(I7
I15
I8
tp196
a(I6
I15
I8
tp197
a(I5
I15
I8
tp198
a(I4
I15
I8
tp199
a(I3
I15
I8
tp200
a(I3
I14
I8
tp201
a(I3
I14
I9
tp202
a(I2
I14
I9
tp203
a(I1
I14
I9
tp204
a(I0
I14
I9
tp205
a(I0
I13
I9
tp206
a(I0
I12
I9
tp207
a(I0
I11
I9
tp208
a(I0
I10
I9
tp209
a(I0
I9
I9
tp210
a(I0
I8
I9
tp211
a(I0
I7
I9
tp212
a(I0
I6
I9
tp213
a(I0
I5
I9
tp214
a(I0
I4
I9
tp215
a(I0
I3
I9
tp216
a(I0
I2
I9
tp217
a(I0
I1
I9
tp218
a(I0
I1
I8
tp219
a(I0
I1
I7
tp220
a(I0
I1
I6
tp221
a(I0
I1
I5
tp222
a(I0
I1
I4
tp223
a(I0
I1
I3
tp224
a(I0
I1
I2
tp225
a(I0
I1
I1
tp226
a(I0
I1
I0
tp227
a(I1
I1
I0
tp228
asS'end_gate'
p229
I0
sS'net_id'
p230
I41
sbag182
ag182
ag182
ag182
ag182
ag182
ag182
ag182
ag182
aI0
aI0
aI0
aI0
aI0
aI0
aI0
aI0
aI0
ag182
ag0
(g180
g2
Ntp231
Rp232
(dp233
g184
I30
sg185
(lp234
(I15
I8
I0
tp235
a(I14
I8
I0
tp236
a(I14
I8
I1
tp237
a(I14
I8
I2
tp238
a(I14
I8
I3
tp239
a(I14
I8
I4
tp240
a(I14
I7
I4
tp241
a(I14
I7
I5
tp242
a(I14
I7
I6
tp243
a(I13
I7
I6
tp244
a(I13
I7
I7
tp245
a(I13
I7
I8
tp246
a(I13
I6
I8
tp247
a(I13
I5
I8
tp248
a(I12
I5
I8
tp249
a(I11
I5
I8
tp250
a(I10
I5
I8
tp251
a(I9
I5
I8
tp252
a(I8
I5
I8
tp253
a(I7
I5
I8
tp254
a(I6
I5
I8
tp255
a(I6
I4
I8
tp256
a(I5
I4
I8
tp257
a(I4
I4
I8
tp258
a(I3
I4
I8
tp259
a(I2
I4
I8
tp260
a(I1
I4
I8
tp261
a(I0
I4
I8
tp262
a(I0
I3
I8
tp263
a(I0
I3
I7
tp264
a(I0
I3
I6
tp265
a(I0
I3
I5
tp266
a(I0
I3
I4
tp267
a(I0
I3
I3
tp268
a(I0
I3
I2
tp269
a(I0
I3
I1
tp270
a(I0
I3
I0
tp271
a(I1
I3
I0
tp272
asg229
I7
sg230
I39
sbag232
ag232
ag232
ag232
ag232
ag232
ag232
ag232
ag182
aI0
aI0
aI0
ag0
(g180
g2
Ntp273
Rp274
(dp275
g184
I38
sg185
(lp276
(I10
I12
I0
tp277
a(I10
I11
I0
tp278
a(I10
I11
I1
tp279
a(I10
I11
I2
tp280
a(I10
I11
I3
tp281
a(I10
I11
I4
tp282
a(I10
I11
I5
tp283
a(I10
I12
I5
tp284
a(I10
I13
I5
tp285
a(I10
I13
I6
tp286
a(I10
I13
I7
tp287
a(I10
I13
I8
tp288
a(I9
I13
I8
tp289
a(I8
I13
I8
tp290
a(I7
I13
I8
tp291
a(I6
I13
I8
tp292
a(I5
I13
I8
tp293
a(I4
I13
I8
tp294
a(I3
I13
I8
tp295
a(I2
I13
I8
tp296
a(I1
I13
I8
tp297
a(I0
I13
I8
tp298
a(I0
I12
I8
tp299
a(I0
I11
I8
tp300
a(I0
I10
I8
tp301
a(I0
I9
I8
tp302
a(I0
I8
I8
tp303
a(I0
I7
I8
tp304
a(I0
I6
I8
tp305
a(I0
I5
I8
tp306
a(I0
I5
I7
tp307
a(I0
I4
I7
tp308
a(I0
I4
I6
tp309
a(I0
I4
I5
tp310
a(I0
I4
I4
tp311
a(I0
I4
I3
tp312
a(I1
I4
I3
tp313
a(I1
I4
I2
tp314
a(I1
I4
I1
tp315
a(I1
I4
I0
tp316
a(I1
I3
I0
tp317
asg229
I7
sg230
I56
sbag274
ag274
ag274
ag274
ag232
ag182
ag0
(g180
g2
Ntp318
Rp319
(dp320
g184
I13
sg185
(lp321
(I1
I5
I0
tp322
a(I0
I5
I0
tp323
a(I0
I5
I1
tp324
a(I0
I5
I2
tp325
a(I0
I5
I3
tp326
a(I0
I5
I4
tp327
a(I0
I5
I5
tp328
a(I0
I5
I6
tp329
a(I0
I6
I6
tp330
a(I0
I7
I6
tp331
a(I0
I8
I6
tp332
a(I0
I9
I6
tp333
a(I0
I10
I6
tp334
a(I0
I11
I6
tp335
a(I0
I12
I6
tp336
a(I0
I13
I6
tp337
a(I0
I14
I6
tp338
a(I1
I14
I6
tp339
a(I2
I14
I6
tp340
a(I3
I14
I6
tp341
a(I3
I15
I6
tp342
a(I4
I15
I6
tp343
a(I5
I15
I6
tp344
a(I5
I15
I5
tp345
a(I5
I15
I4
tp346
a(I5
I15
I3
tp347
a(I5
I15
I2
tp348
a(I5
I15
I1
tp349
a(I5
I15
I0
tp350
a(I6
I15
I0
tp351
asg229
I45
sg230
I58
sbag319
ag319
ag319
ag319
ag319
ag319
ag274
ag274
ag182
aI0
aI0
aI0
aI0
aI0
aI0
ag319
aI0
ag274
ag182
aI0
aI0
aI0
aI0
aI0
aI0
ag319
aI0
ag274
ag182
aI0
aI0
aI0
aI0
aI0
aI0
ag319
aI0
ag274
ag182
ag0
(g180
g2
Ntp352
Rp353
(dp354
g184
I43
sg185
(lp355
(I6
I14
I0
tp356
a(I6
I13
I0
tp357
a(I6
I13
I1
tp358
a(I6
I13
I2
tp359
a(I6
I13
I3
tp360
a(I6
I13
I4
tp361
a(I5
I13
I4
tp362
a(I4
I13
I4
tp363
a(I3
I13
I4
tp364
a(I2
I13
I4
tp365
a(I1
I13
I4
tp366
a(I0
I13
I4
tp367
a(I0
I12
I4
tp368
a(I0
I11
I4
tp369
a(I0
I10
I4
tp370
a(I0
I9
I4
tp371
a(I0
I9
I3
tp372
a(I0
I9
I2
tp373
a(I0
I9
I1
tp374
a(I0
I9
I0
tp375
a(I1
I9
I0
tp376
asg229
I31
sg230
I63
sbag353
ag353
ag353
ag353
aI0
ag319
aI0
ag274
ag182
aI0
aI0
aI0
aI0
ag353
aI0
ag319
aI0
ag274
ag182
aI0
aI0
aI0
aI0
ag353
aI0
ag319
ag0
(g180
g2
Ntp377
Rp378
(dp379
g184
I22
sg185
(lp380
(I15
I6
I0
tp381
a(I15
I7
I0
tp382
a(I15
I7
I1
tp383
a(I15
I7
I2
tp384
a(I14
I7
I2
tp385
a(I14
I7
I3
tp386
a(I14
I6
I3
tp387
a(I14
I6
I4
tp388
a(I14
I6
I5
tp389
a(I13
I6
I5
tp390
a(I12
I6
I5
tp391
a(I12
I7
I5
tp392
a(I11
I7
I5
tp393
a(I11
I7
I6
tp394
a(I11
I7
I7
tp395
a(I11
I8
I7
tp396
a(I11
I9
I7
tp397
a(I11
I10
I7
tp398
a(I11
I10
I8
tp399
a(I11
I11
I8
tp400
a(I10
I11
I8
tp401
a(I9
I11
I8
tp402
a(I8
I11
I8
tp403
a(I7
I11
I8
tp404
a(I6
I11
I8
tp405
a(I5
I11
I8
tp406
a(I4
I11
I8
tp407
a(I3
I11
I8
tp408
a(I2
I11
I8
tp409
a(I1
I11
I8
tp410
a(I1
I11
I7
tp411
a(I0
I11
I7
tp412
a(I0
I12
I7
tp413
a(I0
I13
I7
tp414
a(I0
I14
I7
tp415
a(I0
I15
I7
tp416
a(I0
I15
I6
tp417
a(I0
I15
I5
tp418
a(I0
I15
I4
tp419
a(I0
I15
I3
tp420
a(I0
I15
I2
tp421
a(I0
I15
I1
tp422
a(I0
I15
I0
tp423
a(I1
I15
I0
tp424
asg229
I44
sg230
I62
sbag274
ag182
aI0
aI0
aI0
aI0
ag353
aI0
ag319
ag378
ag274
ag182
aI0
aI0
aI0
aI0
ag353
aI0
ag319
ag378
ag274
ag182
aI0
aI0
aI0
aI0
aI0
aI0
ag319
ag378
aI0
ag182
ag378
ag378
ag378
ag378
ag378
ag378
ag378
ag378
aI0
aI0
aI0
aI0
aI0
aI0
aI0
aI0
aI0
aI0
aI0
aI0
ag0
(g180
g2
Ntp425
Rp426
(dp427
g184
I0
sg185
(lp428
(I1
I1
I0
tp429
a(I1
I0
I0
tp430
a(I1
I0
I1
tp431
a(I1
I0
I2
tp432
a(I1
I0
I3
tp433
a(I1
I0
I4
tp434
a(I2
I0
I4
tp435
a(I2
I0
I5
tp436
a(I2
I0
I6
tp437
a(I2
I0
I7
tp438
a(I2
I0
I8
tp439
a(I3
I0
I8
tp440
a(I4
I0
I8
tp441
a(I5
I0
I8
tp442
a(I6
I0
I8
tp443
a(I7
I0
I8
tp444
a(I8
I0
I8
tp445
a(I9
I0
I8
tp446
a(I10
I0
I8
tp447
a(I10
I1
I8
tp448
a(I10
I2
I8
tp449
a(I10
I3
I8
tp450
a(I10
I4
I8
tp451
a(I10
I4
I7
tp452
a(I10
I5
I7
tp453
a(I10
I6
I7
tp454
a(I10
I7
I7
tp455
a(I10
I8
I7
tp456
a(I10
I9
I7
tp457
a(I10
I10
I7
tp458
a(I10
I11
I7
tp459
a(I11
I11
I7
tp460
a(I11
I12
I7
tp461
a(I11
I13
I7
tp462
a(I11
I13
I8
tp463
a(I12
I13
I8
tp464
a(I13
I13
I8
tp465
a(I14
I13
I8
tp466
a(I15
I13
I8
tp467
a(I16
I13
I8
tp468
a(I16
I13
I7
tp469
a(I17
I13
I7
tp470
a(I17
I12
I7
tp471
a(I17
I12
I6
tp472
a(I17
I11
I6
tp473
a(I17
I11
I5
tp474
a(I16
I11
I5
tp475
a(I15
I11
I5
tp476
a(I15
I11
I4
tp477
a(I15
I11
I3
tp478
a(I15
I11
I2
tp479
a(I15
I11
I1
tp480
a(I15
I11
I0
tp481
a(I15
I12
I0
tp482
asg229
I39
sg230
I69
sbag426
ag426
ag426
ag426
ag0
(g180
g2
Ntp483
Rp484
(dp485
g184
I0
sg185
(lp486
(I1
I1
I0
tp487
a(I1
I1
I1
tp488
a(I1
I1
I2
tp489
a(I1
I1
I3
tp490
a(I1
I1
I4
tp491
a(I1
I1
I5
tp492
a(I1
I0
I5
tp493
a(I1
I0
I6
tp494
a(I1
I0
I7
tp495
a(I1
I0
I8
tp496
a(I1
I0
I9
tp497
a(I2
I0
I9
tp498
a(I3
I0
I9
tp499
a(I4
I0
I9
tp500
a(I5
I0
I9
tp501
a(I6
I0
I9
tp502
a(I7
I0
I9
tp503
a(I8
I0
I9
tp504
a(I9
I0
I9
tp505
a(I10
I0
I9
tp506
a(I11
I0
I9
tp507
a(I12
I0
I9
tp508
a(I13
I0
I9
tp509
a(I14
I0
I9
tp510
a(I15
I0
I9
tp511
a(I15
I0
I8
tp512
a(I15
I0
I7
tp513
a(I15
I0
I6
tp514
a(I15
I0
I5
tp515
a(I15
I0
I4
tp516
a(I15
I0
I3
tp517
a(I15
I0
I2
tp518
a(I15
I0
I1
tp519
a(I15
I0
I0
tp520
a(I15
I1
I0
tp521
asg229
I3
sg230
I1
sbag484
ag484
ag484
ag484
ag10
ag484
ag484
ag484
ag484
ag484
aI0
aI0
aI0
aI0
aI0
aI0
aI0
aI0
aI0
aI0
aI0
aI0
aI0
aI0
ag35
ag0
(g180
g2
Ntp522
Rp523
(dp524
g184
I33
sg185
(lp525
(I9
I10
I0
tp526
a(I9
I11
I0
tp527
a(I9
I11
I1
tp528
a(I9
I11
I2
tp529
a(I9
I11
I3
tp530
a(I9
I11
I4
tp531
a(I8
I11
I4
tp532
a(I8
I11
I5
tp533
a(I8
I11
I6
tp534
a(I8
I11
I7
tp535
a(I7
I11
I7
tp536
a(I6
I11
I7
tp537
a(I5
I11
I7
tp538
a(I4
I11
I7
tp539
a(I3
I11
I7
tp540
a(I3
I10
I7
tp541
a(I2
I10
I7
tp542
a(I1
I10
I7
tp543
a(I1
I9
I7
tp544
a(I1
I8
I7
tp545
a(I1
I7
I7
tp546
a(I1
I6
I7
tp547
a(I1
I5
I7
tp548
a(I1
I4
I7
tp549
a(I1
I3
I7
tp550
a(I1
I3
I6
tp551
a(I1
I3
I5
tp552
a(I1
I3
I4
tp553
a(I1
I3
I3
tp554
a(I1
I3
I2
tp555
a(I1
I3
I1
tp556
a(I1
I3
I0
tp557
asg229
I7
sg230
I21
sbag523
ag523
ag523
ag523
ag523
ag523
aI0
aI0
ag274
ag274
ag274
ag274
ag0
(g180
g2
Ntp558
Rp559
(dp560
g184
I1
sg185
(lp561
(I6
I1
I0
tp562
a(I6
I2
I0
tp563
a(I6
I2
I1
tp564
a(I6
I2
I2
tp565
a(I6
I2
I3
tp566
a(I6
I2
I4
tp567
a(I5
I2
I4
tp568
a(I4
I2
I4
tp569
a(I4
I3
I4
tp570
a(I4
I4
I4
tp571
a(I3
I4
I4
tp572
a(I2
I4
I4
tp573
a(I1
I4
I4
tp574
a(I1
I5
I4
tp575
a(I1
I5
I3
tp576
a(I1
I5
I2
tp577
a(I1
I5
I1
tp578
a(I1
I5
I0
tp579
asg229
I13
sg230
I44
sbaI0
aI0
ag523
ag232
aI0
ag53
ag559
ag559
ag559
ag559
aI0
aI0
ag523
aI0
aI0
aI0
aI0
aI0
aI0
aI0
aI0
aI0
ag523
aI0
aI0
aI0
aI0
aI0
aI0
aI0
aI0
aI0
ag523
aI0
aI0
aI0
aI0
aI0
aI0
aI0
aI0
aI0
ag523
aI0
aI0
ag107
ag0
(g180
g2
Ntp580
Rp581
(dp582
g184
I33
sg185
(lp583
(I9
I10
I0
tp584
a(I8
I10
I0
tp585
a(I8
I10
I1
tp586
a(I8
I10
I2
tp587
a(I8
I10
I3
tp588
a(I8
I10
I4
tp589
a(I7
I10
I4
tp590
a(I6
I10
I4
tp591
a(I5
I10
I4
tp592
a(I5
I9
I4
tp593
a(I4
I9
I4
tp594
a(I3
I9
I4
tp595
a(I2
I9
I4
tp596
a(I1
I9
I4
tp597
a(I1
I9
I3
tp598
a(I1
I9
I2
tp599
a(I1
I9
I1
tp600
a(I1
I9
I0
tp601
asg229
I31
sg230
I8
sbag581
ag581
ag581
aI0
aI0
ag523
aI0
aI0
aI0
aI0
aI0
aI0
aI0
aI0
aI0
ag523
aI0
aI0
aI0
aI0
aI0
aI0
aI0
aI0
aI0
ag378
ag378
aI0
aI0
aI0
aI0
aI0
aI0
aI0
aI0
aI0
aI0
aI0
aI0
aI0
aI0
aI0
ag353
aI0
aI0
aI0
ag274
aI0
aI0
aI0
aI0
aI0
aI0
aI0
ag319
aI0
aI0
ag182
ag146
ag0
(g180
g2
Ntp602
Rp603
(dp604
g184
I44
sg185
(lp605
(I1
I15
I0
tp606
a(I1
I15
I1
tp607
a(I1
I15
I2
tp608
a(I1
I15
I3
tp609
a(I1
I15
I4
tp610
a(I1
I15
I5
tp611
a(I1
I15
I6
tp612
a(I1
I15
I7
tp613
a(I1
I15
I8
tp614
a(I1
I15
I9
tp615
a(I2
I15
I9
tp616
a(I3
I15
I9
tp617
a(I4
I15
I9
tp618
a(I5
I15
I9
tp619
a(I6
I15
I9
tp620
a(I7
I15
I9
tp621
a(I8
I15
I9
tp622
a(I8
I14
I9
tp623
a(I8
I13
I9
tp624
a(I8
I12
I9
tp625
a(I8
I11
I9
tp626
a(I8
I10
I9
tp627
a(I8
I9
I9
tp628
a(I8
I8
I9
tp629
a(I8
I8
I8
tp630
a(I8
I8
I7
tp631
a(I8
I8
I6
tp632
a(I8
I8
I5
tp633
a(I8
I8
I4
tp634
a(I8
I8
I3
tp635
a(I8
I8
I2
tp636
a(I8
I8
I1
tp637
a(I9
I8
I1
tp638
a(I9
I8
I0
tp639
asg229
I28
sg230
I6
sbag603
ag603
ag603
ag603
ag603
ag603
ag603
ag603
ag0
(g180
g2
Ntp640
Rp641
(dp642
g184
I44
sg185
(lp643
(I1
I15
I0
tp644
a(I1
I16
I0
tp645
a(I1
I16
I1
tp646
a(I1
I16
I2
tp647
a(I1
I16
I3
tp648
a(I1
I16
I4
tp649
a(I1
I16
I5
tp650
a(I1
I16
I6
tp651
a(I1
I16
I7
tp652
a(I1
I16
I8
tp653
a(I1
I16
I9
tp654
a(I2
I16
I9
tp655
a(I3
I16
I9
tp656
a(I4
I16
I9
tp657
a(I5
I16
I9
tp658
a(I6
I16
I9
tp659
a(I7
I16
I9
tp660
a(I8
I16
I9
tp661
a(I9
I16
I9
tp662
a(I10
I16
I9
tp663
a(I11
I16
I9
tp664
a(I12
I16
I9
tp665
a(I12
I15
I9
tp666
a(I12
I14
I9
tp667
a(I12
I13
I9
tp668
a(I12
I12
I9
tp669
a(I12
I11
I9
tp670
a(I12
I11
I8
tp671
a(I12
I11
I7
tp672
a(I12
I11
I6
tp673
a(I12
I11
I5
tp674
a(I12
I11
I4
tp675
a(I12
I11
I3
tp676
a(I12
I11
I2
tp677
a(I12
I11
I1
tp678
a(I12
I11
I0
tp679
asg229
I34
sg230
I16
sbag641
ag641
ag641
ag641
ag641
ag641
ag641
ag641
ag641
aI0
aI0
aI0
aI0
ag426
ag426
ag426
ag426
ag426
ag484
aI0
aI0
aI0
aI0
aI0
aI0
aI0
aI0
aI0
aI0
aI0
aI0
aI0
aI0
aI0
aI0
aI0
aI0
aI0
ag0
(g180
g2
Ntp680
Rp681
(dp682
g184
I37
sg185
(lp683
(I7
I12
I0
tp684
a(I6
I12
I0
tp685
a(I6
I11
I0
tp686
a(I5
I11
I0
tp687
a(I5
I10
I0
tp688
a(I5
I9
I0
tp689
a(I5
I9
I1
tp690
a(I4
I9
I1
tp691
a(I4
I9
I2
tp692
a(I3
I9
I2
tp693
a(I3
I9
I3
tp694
a(I2
I9
I3
tp695
a(I2
I8
I3
tp696
a(I2
I7
I3
tp697
a(I2
I7
I4
tp698
a(I2
I7
I5
tp699
a(I2
I7
I6
tp700
a(I2
I7
I7
tp701
a(I2
I7
I8
tp702
a(I2
I6
I8
tp703
a(I2
I5
I8
tp704
a(I2
I5
I9
tp705
a(I2
I4
I9
tp706
a(I2
I3
I9
tp707
a(I2
I2
I9
tp708
a(I3
I2
I9
tp709
a(I3
I1
I9
tp710
a(I4
I1
I9
tp711
a(I5
I1
I9
tp712
a(I6
I1
I9
tp713
a(I7
I1
I9
tp714
a(I8
I1
I9
tp715
a(I8
I1
I8
tp716
a(I8
I1
I7
tp717
a(I8
I1
I6
tp718
a(I8
I1
I5
tp719
a(I8
I1
I4
tp720
a(I8
I1
I3
tp721
a(I9
I1
I3
tp722
a(I9
I1
I2
tp723
a(I9
I1
I1
tp724
a(I9
I1
I0
tp725
a(I10
I1
I0
tp726
asg229
I2
sg230
I65
sbag0
(g180
g2
Ntp727
Rp728
(dp729
g184
I11
sg185
(lp730
(I2
I4
I0
tp731
a(I2
I3
I0
tp732
a(I2
I3
I1
tp733
a(I2
I3
I2
tp734
a(I2
I3
I3
tp735
a(I2
I3
I4
tp736
a(I2
I3
I5
tp737
a(I2
I3
I6
tp738
a(I2
I3
I7
tp739
a(I2
I3
I8
tp740
a(I3
I3
I8
tp741
a(I4
I3
I8
tp742
a(I5
I3
I8
tp743
a(I5
I3
I9
tp744
a(I6
I3
I9
tp745
a(I7
I3
I9
tp746
a(I8
I3
I9
tp747
a(I9
I3
I9
tp748
a(I10
I3
I9
tp749
a(I11
I3
I9
tp750
a(I12
I3
I9
tp751
a(I13
I3
I9
tp752
a(I14
I3
I9
tp753
a(I15
I3
I9
tp754
a(I16
I3
I9
tp755
a(I17
I3
I9
tp756
a(I17
I3
I8
tp757
a(I17
I3
I7
tp758
a(I17
I3
I6
tp759
a(I17
I3
I5
tp760
a(I17
I3
I4
tp761
a(I17
I3
I3
tp762
a(I17
I3
I2
tp763
a(I17
I3
I1
tp764
a(I16
I3
I1
tp765
a(I15
I3
I1
tp766
a(I15
I3
I0
tp767
asg229
I10
sg230
I29
sbag728
ag728
ag728
ag728
ag728
ag728
ag728
ag728
ag681
ag47
ag0
(g180
g2
Ntp768
Rp769
(dp770
g184
I1
sg185
(lp771
(I6
I1
I0
tp772
a(I6
I1
I1
tp773
a(I6
I1
I2
tp774
a(I6
I1
I3
tp775
a(I5
I1
I3
tp776
a(I4
I1
I3
tp777
a(I3
I1
I3
tp778
a(I3
I2
I3
tp779
a(I3
I3
I3
tp780
a(I3
I4
I3
tp781
a(I2
I4
I3
tp782
a(I2
I4
I2
tp783
a(I2
I4
I1
tp784
a(I2
I4
I0
tp785
asg229
I11
sg230
I24
sbag769
ag769
ag559
aI0
aI0
aI0
ag232
ag681
ag0
(g180
g2
Ntp786
Rp787
(dp788
g184
I11
sg185
(lp789
(I2
I4
I0
tp790
a(I2
I5
I0
tp791
a(I2
I5
I1
tp792
a(I2
I5
I2
tp793
a(I2
I5
I3
tp794
a(I2
I5
I4
tp795
a(I2
I5
I5
tp796
a(I2
I5
I6
tp797
a(I2
I6
I6
tp798
a(I3
I6
I6
tp799
a(I3
I7
I6
tp800
a(I4
I7
I6
tp801
a(I4
I8
I6
tp802
a(I4
I9
I6
tp803
a(I4
I10
I6
tp804
a(I4
I11
I6
tp805
a(I4
I12
I6
tp806
a(I4
I13
I6
tp807
a(I5
I13
I6
tp808
a(I6
I13
I6
tp809
a(I6
I14
I6
tp810
a(I6
I15
I6
tp811
a(I6
I15
I5
tp812
a(I6
I15
I4
tp813
a(I6
I15
I3
tp814
a(I6
I15
I2
tp815
a(I6
I15
I1
tp816
a(I6
I15
I0
tp817
asg229
I45
sg230
I30
sbag787
ag787
ag787
ag787
ag787
ag787
aI0
ag681
ag681
ag68
ag0
(g180
g2
Ntp818
Rp819
(dp820
g184
I18
sg185
(lp821
(I2
I6
I0
tp822
a(I2
I6
I1
tp823
a(I2
I6
I2
tp824
a(I2
I7
I2
tp825
a(I2
I8
I2
tp826
a(I2
I9
I2
tp827
a(I2
I10
I2
tp828
a(I2
I11
I2
tp829
a(I3
I11
I2
tp830
a(I3
I12
I2
tp831
a(I3
I13
I2
tp832
a(I3
I14
I2
tp833
a(I3
I14
I1
tp834
a(I3
I14
I0
tp835
a(I4
I14
I0
tp836
asg229
I42
sg230
I66
sbag819
aI0
aI0
aI0
ag787
aI0
ag681
ag0
(g180
g2
Ntp837
Rp838
(dp839
g184
I17
sg185
(lp840
(I16
I5
I0
tp841
a(I17
I5
I0
tp842
a(I17
I5
I1
tp843
a(I17
I5
I2
tp844
a(I17
I5
I3
tp845
a(I17
I5
I4
tp846
a(I17
I5
I5
tp847
a(I17
I5
I6
tp848
a(I17
I5
I7
tp849
a(I17
I5
I8
tp850
a(I16
I5
I8
tp851
a(I16
I5
I9
tp852
a(I16
I6
I9
tp853
a(I15
I6
I9
tp854
a(I14
I6
I9
tp855
a(I13
I6
I9
tp856
a(I12
I6
I9
tp857
a(I11
I6
I9
tp858
a(I10
I6
I9
tp859
a(I9
I6
I9
tp860
a(I8
I6
I9
tp861
a(I7
I6
I9
tp862
a(I6
I6
I9
tp863
a(I5
I6
I9
tp864
a(I4
I6
I9
tp865
a(I3
I6
I9
tp866
a(I2
I6
I9
tp867
a(I2
I7
I9
tp868
a(I2
I8
I9
tp869
a(I2
I9
I9
tp870
a(I2
I10
I9
tp871
a(I2
I11
I9
tp872
a(I2
I12
I9
tp873
a(I2
I12
I8
tp874
a(I2
I12
I7
tp875
a(I2
I12
I6
tp876
a(I2
I12
I5
tp877
a(I2
I12
I4
tp878
a(I2
I12
I3
tp879
a(I2
I12
I2
tp880
a(I2
I12
I1
tp881
a(I2
I12
I0
tp882
asg229
I35
sg230
I10
sbaI0
aI0
ag819
ag681
ag681
ag681
ag681
ag681
ag681
ag838
aI0
aI0
ag819
ag681
ag0
(g180
g2
Ntp883
Rp884
(dp885
g184
I26
sg185
(lp886
(I6
I8
I0
tp887
a(I5
I8
I0
tp888
a(I5
I8
I1
tp889
a(I4
I8
I1
tp890
a(I4
I8
I2
tp891
a(I3
I8
I2
tp892
a(I3
I8
I3
tp893
a(I3
I8
I4
tp894
a(I2
I8
I4
tp895
a(I2
I8
I5
tp896
a(I2
I8
I6
tp897
a(I2
I8
I7
tp898
a(I2
I8
I8
tp899
a(I3
I8
I8
tp900
a(I3
I9
I8
tp901
a(I4
I9
I8
tp902
a(I5
I9
I8
tp903
a(I5
I10
I8
tp904
a(I6
I10
I8
tp905
a(I7
I10
I8
tp906
a(I8
I10
I8
tp907
a(I9
I10
I8
tp908
a(I9
I10
I9
tp909
a(I10
I10
I9
tp910
a(I11
I10
I9
tp911
a(I12
I10
I9
tp912
a(I13
I10
I9
tp913
a(I14
I10
I9
tp914
a(I15
I10
I9
tp915
a(I15
I11
I9
tp916
a(I15
I12
I9
tp917
a(I16
I12
I9
tp918
a(I16
I12
I8
tp919
a(I16
I12
I7
tp920
a(I16
I12
I6
tp921
a(I16
I12
I5
tp922
a(I16
I12
I4
tp923
a(I16
I12
I3
tp924
a(I16
I12
I2
tp925
a(I16
I12
I1
tp926
a(I16
I12
I0
tp927
a(I15
I12
I0
tp928
asg229
I39
sg230
I52
sbag884
ag884
ag884
ag884
ag838
aI0
aI0
ag819
ag681
ag581
aI0
ag0
(g180
g2
Ntp929
Rp930
(dp931
g184
I1
sg185
(lp932
(I6
I1
I0
tp933
a(I5
I1
I0
tp934
a(I5
I1
I1
tp935
a(I5
I1
I2
tp936
a(I5
I0
I2
tp937
a(I5
I0
I3
tp938
a(I5
I0
I4
tp939
a(I5
I0
I5
tp940
a(I5
I0
I6
tp941
a(I5
I0
I7
tp942
a(I4
I0
I7
tp943
a(I3
I0
I7
tp944
a(I3
I1
I7
tp945
a(I3
I2
I7
tp946
a(I3
I3
I7
tp947
a(I3
I4
I7
tp948
a(I3
I5
I7
tp949
a(I3
I6
I7
tp950
a(I3
I7
I7
tp951
a(I3
I8
I7
tp952
a(I3
I9
I7
tp953
a(I2
I9
I7
tp954
a(I2
I9
I6
tp955
a(I2
I10
I6
tp956
a(I2
I10
I5
tp957
a(I2
I10
I4
tp958
a(I3
I10
I4
tp959
a(I3
I10
I3
tp960
a(I3
I10
I2
tp961
a(I4
I10
I2
tp962
a(I4
I10
I1
tp963
a(I5
I10
I1
tp964
a(I5
I11
I1
tp965
a(I6
I11
I1
tp966
a(I7
I11
I1
tp967
a(I7
I11
I0
tp968
a(I7
I12
I0
tp969
asg229
I37
sg230
I64
sbag930
aI0
ag838
aI0
aI0
ag819
aI0
ag930
ag930
ag930
ag523
aI0
ag838
aI0
aI0
ag819
aI0
aI0
aI0
aI0
aI0
ag378
ag838
ag119
ag838
ag838
ag838
ag838
ag838
ag838
ag838
ag838
ag838
aI0
aI0
aI0
aI0
ag353
aI0
aI0
aI0
ag274
aI0
aI0
aI0
aI0
aI0
aI0
aI0
ag319
aI0
aI0
ag182
ag0
(g180
g2
Ntp970
Rp971
(dp972
g184
I47
sg185
(lp973
(I11
I15
I0
tp974
a(I11
I16
I0
tp975
a(I11
I16
I1
tp976
a(I11
I16
I2
tp977
a(I10
I16
I2
tp978
a(I9
I16
I2
tp979
a(I9
I16
I3
tp980
a(I9
I16
I4
tp981
a(I9
I16
I5
tp982
a(I9
I16
I6
tp983
a(I8
I16
I6
tp984
a(I7
I16
I6
tp985
a(I6
I16
I6
tp986
a(I5
I16
I6
tp987
a(I4
I16
I6
tp988
a(I3
I16
I6
tp989
a(I2
I16
I6
tp990
a(I2
I15
I6
tp991
a(I2
I15
I5
tp992
a(I2
I15
I4
tp993
a(I2
I15
I3
tp994
a(I2
I15
I2
tp995
a(I2
I15
I1
tp996
a(I2
I15
I0
tp997
a(I1
I15
I0
tp998
asg229
I44
sg230
I53
sbag971
ag971
ag971
ag971
ag971
ag971
aI0
aI0
ag603
aI0
aI0
aI0
aI0
aI0
aI0
ag971
aI0
aI0
ag641
aI0
aI0
aI0
aI0
aI0
aI0
aI0
ag930
ag426
ag484
aI0
aI0
aI0
ag769
aI0
aI0
aI0
ag930
aI0
ag681
ag26
aI0
aI0
ag769
aI0
aI0
aI0
ag930
aI0
ag681
aI0
aI0
aI0
ag769
aI0
aI0
aI0
ag930
ag728
aI0
aI0
aI0
aI0
ag769
ag559
aI0
aI0
ag930
ag232
aI0
ag0
(g180
g2
Ntp999
Rp1000
(dp1001
g184
I14
sg185
(lp1002
(I4
I5
I0
tp1003
a(I3
I5
I0
tp1004
a(I3
I5
I1
tp1005
a(I3
I5
I2
tp1006
a(I3
I5
I3
tp1007
a(I3
I5
I4
tp1008
a(I3
I5
I5
tp1009
a(I3
I6
I5
tp1010
a(I3
I7
I5
tp1011
a(I3
I8
I5
tp1012
a(I3
I9
I5
tp1013
a(I3
I10
I5
tp1014
a(I3
I11
I5
tp1015
a(I3
I12
I5
tp1016
a(I3
I13
I5
tp1017
a(I3
I14
I5
tp1018
a(I3
I15
I5
tp1019
a(I3
I16
I5
tp1020
a(I4
I16
I5
tp1021
a(I5
I16
I5
tp1022
a(I6
I16
I5
tp1023
a(I7
I16
I5
tp1024
a(I8
I16
I5
tp1025
a(I8
I16
I4
tp1026
a(I8
I16
I3
tp1027
a(I8
I16
I2
tp1028
a(I8
I16
I1
tp1029
a(I8
I16
I0
tp1030
a(I8
I15
I0
tp1031
asg229
I46
sg230
I49
sbag1000
ag1000
ag1000
ag1000
ag1000
aI0
ag930
aI0
aI0
aI0
aI0
aI0
aI0
aI0
ag1000
ag787
ag930
aI0
ag838
aI0
aI0
aI0
aI0
aI0
ag1000
ag787
ag930
aI0
aI0
aI0
aI0
ag884
ag884
ag884
ag1000
aI0
ag930
ag884
aI0
aI0
aI0
ag681
ag681
ag581
ag1000
aI0
ag930
ag884
aI0
aI0
aI0
ag930
ag930
ag930
ag1000
aI0
ag523
aI0
aI0
aI0
aI0
ag819
aI0
aI0
ag1000
aI0
ag523
ag378
aI0
aI0
aI0
ag819
aI0
aI0
ag1000
aI0
aI0
aI0
aI0
aI0
aI0
ag819
aI0
ag353
ag1000
aI0
aI0
ag274
aI0
ag819
ag819
ag819
aI0
aI0
ag1000
ag319
aI0
ag182
ag182
aI0
aI0
aI0
aI0
aI0
ag1000
ag319
aI0
ag182
ag603
aI0
aI0
aI0
aI0
aI0
ag1000
ag971
aI0
aI0
ag641
aI0
aI0
aI0
aI0
aI0
aI0
aI0
ag930
ag426
ag484
aI0
aI0
aI0
ag769
aI0
aI0
aI0
aI0
aI0
ag681
ag0
(g180
g2
Ntp1032
Rp1033
(dp1034
g184
I8
sg185
(lp1035
(I6
I3
I0
tp1036
a(I5
I3
I0
tp1037
a(I4
I3
I0
tp1038
a(I4
I2
I0
tp1039
a(I3
I2
I0
tp1040
asg229
I4
sg230
I68
sbaI0
aI0
aI0
ag559
aI0
aI0
aI0
aI0
ag0
(g180
g2
Ntp1041
Rp1042
(dp1043
g184
I3
sg185
(lp1044
(I15
I1
I0
tp1045
a(I16
I1
I0
tp1046
a(I16
I1
I1
tp1047
a(I16
I1
I2
tp1048
a(I16
I1
I3
tp1049
a(I16
I1
I4
tp1050
a(I16
I1
I5
tp1051
a(I16
I1
I6
tp1052
a(I16
I1
I7
tp1053
a(I16
I1
I8
tp1054
a(I16
I1
I9
tp1055
a(I16
I2
I9
tp1056
a(I15
I2
I9
tp1057
a(I14
I2
I9
tp1058
a(I13
I2
I9
tp1059
a(I12
I2
I9
tp1060
a(I11
I2
I9
tp1061
a(I10
I2
I9
tp1062
a(I9
I2
I9
tp1063
a(I8
I2
I9
tp1064
a(I7
I2
I9
tp1065
a(I6
I2
I9
tp1066
a(I5
I2
I9
tp1067
a(I4
I2
I9
tp1068
a(I4
I3
I9
tp1069
a(I4
I4
I9
tp1070
a(I4
I5
I9
tp1071
a(I4
I5
I8
tp1072
a(I4
I5
I7
tp1073
a(I4
I5
I6
tp1074
a(I4
I5
I5
tp1075
a(I4
I5
I4
tp1076
a(I4
I5
I3
tp1077
a(I4
I5
I2
tp1078
a(I4
I5
I1
tp1079
a(I4
I5
I0
tp1080
asg229
I14
sg230
I11
sbag1033
aI0
aI0
aI0
ag559
aI0
aI0
aI0
ag728
ag1042
ag0
(g180
g2
Ntp1081
Rp1082
(dp1083
g184
I14
sg185
(lp1084
(I4
I5
I0
tp1085
a(I4
I4
I0
tp1086
a(I4
I4
I1
tp1087
a(I4
I4
I2
tp1088
a(I4
I4
I3
tp1089
a(I5
I4
I3
tp1090
a(I5
I4
I4
tp1091
a(I5
I3
I4
tp1092
a(I5
I3
I5
tp1093
a(I5
I3
I6
tp1094
a(I5
I3
I7
tp1095
a(I5
I4
I7
tp1096
a(I5
I5
I7
tp1097
a(I5
I5
I8
tp1098
a(I5
I6
I8
tp1099
a(I5
I7
I8
tp1100
a(I6
I7
I8
tp1101
a(I7
I7
I8
tp1102
a(I8
I7
I8
tp1103
a(I9
I7
I8
tp1104
a(I10
I7
I8
tp1105
a(I10
I8
I8
tp1106
a(I11
I8
I8
tp1107
a(I12
I8
I8
tp1108
a(I13
I8
I8
tp1109
a(I13
I8
I7
tp1110
a(I13
I9
I7
tp1111
a(I13
I9
I6
tp1112
a(I13
I10
I6
tp1113
a(I13
I11
I6
tp1114
a(I13
I11
I5
tp1115
a(I13
I11
I4
tp1116
a(I13
I11
I3
tp1117
a(I13
I11
I2
tp1118
a(I13
I11
I1
tp1119
a(I13
I11
I0
tp1120
a(I12
I11
I0
tp1121
asg229
I34
sg230
I51
sbag1082
ag1082
ag1082
ag559
aI0
aI0
aI0
ag232
ag1042
ag56
ag1042
ag1042
ag1042
ag1042
ag1042
ag1042
ag1042
ag1042
ag1042
ag0
(g180
g2
Ntp1122
Rp1123
(dp1124
g184
I14
sg185
(lp1125
(I4
I5
I0
tp1126
a(I4
I6
I0
tp1127
a(I4
I6
I1
tp1128
a(I4
I6
I2
tp1129
a(I4
I6
I3
tp1130
a(I4
I6
I4
tp1131
a(I4
I6
I5
tp1132
a(I4
I7
I5
tp1133
a(I4
I8
I5
tp1134
a(I4
I9
I5
tp1135
a(I4
I10
I5
tp1136
a(I4
I11
I5
tp1137
a(I4
I12
I5
tp1138
a(I4
I13
I5
tp1139
a(I5
I13
I5
tp1140
a(I6
I13
I5
tp1141
a(I6
I14
I5
tp1142
a(I6
I14
I4
tp1143
a(I6
I14
I3
tp1144
a(I6
I14
I2
tp1145
a(I6
I14
I1
tp1146
a(I6
I14
I0
tp1147
asg229
I43
sg230
I48
sbag1123
ag1123
ag1123
ag1123
ag1123
aI0
aI0
aI0
ag838
aI0
aI0
aI0
aI0
aI0
ag1123
ag787
aI0
aI0
aI0
aI0
ag884
ag884
ag0
(g180
g2
Ntp1148
Rp1149
(dp1150
g184
I27
sg185
(lp1151
(I7
I8
I0
tp1152
a(I7
I8
I1
tp1153
a(I7
I8
I2
tp1154
a(I7
I8
I3
tp1155
a(I6
I8
I3
tp1156
a(I5
I8
I3
tp1157
a(I4
I8
I3
tp1158
a(I4
I9
I3
tp1159
a(I4
I10
I3
tp1160
a(I4
I11
I3
tp1161
a(I4
I12
I3
tp1162
a(I4
I12
I2
tp1163
a(I4
I12
I1
tp1164
a(I4
I12
I0
tp1165
asg229
I36
sg230
I7
sbaI0
ag1123
ag787
aI0
aI0
ag0
(g180
g2
Ntp1166
Rp1167
(dp1168
g184
I21
sg185
(lp1169
(I12
I6
I0
tp1170
a(I11
I6
I0
tp1171
a(I11
I6
I1
tp1172
a(I11
I6
I2
tp1173
a(I11
I6
I3
tp1174
a(I11
I6
I4
tp1175
a(I11
I6
I5
tp1176
a(I11
I6
I6
tp1177
a(I11
I6
I7
tp1178
a(I11
I6
I8
tp1179
a(I11
I7
I8
tp1180
a(I11
I7
I9
tp1181
a(I10
I7
I9
tp1182
a(I9
I7
I9
tp1183
a(I8
I7
I9
tp1184
a(I7
I7
I9
tp1185
a(I6
I7
I9
tp1186
a(I6
I8
I9
tp1187
a(I5
I8
I9
tp1188
a(I4
I8
I9
tp1189
a(I4
I9
I9
tp1190
a(I4
I10
I9
tp1191
a(I4
I11
I9
tp1192
a(I4
I12
I9
tp1193
a(I4
I13
I9
tp1194
a(I4
I14
I9
tp1195
a(I4
I14
I8
tp1196
a(I4
I14
I7
tp1197
a(I4
I14
I6
tp1198
a(I4
I14
I5
tp1199
a(I4
I14
I4
tp1200
a(I4
I14
I3
tp1201
a(I4
I14
I2
tp1202
a(I4
I14
I1
tp1203
a(I4
I14
I0
tp1204
asg229
I42
sg230
I31
sbaI0
ag681
ag681
ag1149
ag581
ag1123
ag787
aI0
ag884
ag1167
aI0
ag930
ag930
ag1149
aI0
ag1123
ag787
aI0
aI0
ag1167
ag0
(g180
g2
Ntp1205
Rp1206
(dp1207
g184
I36
sg185
(lp1208
(I4
I12
I0
tp1209
a(I4
I11
I0
tp1210
a(I4
I11
I1
tp1211
a(I4
I11
I2
tp1212
a(I5
I11
I2
tp1213
a(I5
I10
I2
tp1214
a(I5
I9
I2
tp1215
a(I5
I8
I2
tp1216
a(I5
I7
I2
tp1217
a(I6
I7
I2
tp1218
a(I7
I7
I2
tp1219
a(I8
I7
I2
tp1220
a(I8
I6
I2
tp1221
a(I9
I6
I2
tp1222
a(I9
I6
I1
tp1223
a(I9
I6
I0
tp1224
a(I10
I6
I0
tp1225
asg229
I20
sg230
I32
sbag1206
ag1206
ag1149
aI0
ag1123
ag787
ag523
ag378
ag1167
ag122
ag1149
ag1149
ag1149
aI0
ag1123
ag787
aI0
aI0
ag1167
aI0
aI0
aI0
aI0
ag353
ag1123
ag787
aI0
ag274
ag1167
ag140
ag1167
ag1167
ag1167
ag1167
ag1167
ag1167
ag1167
ag1167
ag1167
aI0
aI0
aI0
aI0
aI0
aI0
ag319
aI0
ag182
ag603
aI0
aI0
aI0
aI0
aI0
ag1000
ag971
aI0
aI0
ag641
aI0
aI0
ag930
ag930
ag930
ag930
ag930
ag930
ag426
ag484
ag930
ag930
ag930
ag769
aI0
aI0
aI0
aI0
aI0
ag681
aI0
aI0
aI0
aI0
ag559
aI0
aI0
aI0
aI0
ag1042
ag1033
aI0
aI0
aI0
ag1082
ag1082
ag1082
ag1082
ag728
ag728
aI0
aI0
aI0
ag1082
ag1082
ag0
(g180
g2
Ntp1226
Rp1227
(dp1228
g184
I12
sg185
(lp1229
(I8
I4
I0
tp1230
a(I7
I4
I0
tp1231
a(I7
I4
I1
tp1232
a(I7
I4
I2
tp1233
a(I7
I4
I3
tp1234
a(I7
I4
I4
tp1235
a(I7
I4
I5
tp1236
a(I6
I4
I5
tp1237
a(I5
I4
I5
tp1238
a(I5
I5
I5
tp1239
a(I5
I6
I5
tp1240
a(I5
I7
I5
tp1241
a(I5
I8
I5
tp1242
a(I5
I9
I5
tp1243
a(I5
I10
I5
tp1244
a(I5
I11
I5
tp1245
a(I5
I12
I5
tp1246
a(I5
I12
I4
tp1247
a(I5
I12
I3
tp1248
a(I5
I12
I2
tp1249
a(I5
I12
I1
tp1250
a(I5
I12
I0
tp1251
a(I4
I12
I0
tp1252
asg229
I36
sg230
I27
sbaI0
ag1082
ag232
aI0
ag0
(g180
g2
Ntp1253
Rp1254
(dp1255
g184
I14
sg185
(lp1256
(I4
I5
I0
tp1257
a(I5
I5
I0
tp1258
a(I5
I5
I1
tp1259
a(I5
I5
I2
tp1260
a(I5
I5
I3
tp1261
a(I6
I5
I3
tp1262
a(I7
I5
I3
tp1263
a(I8
I5
I3
tp1264
a(I9
I5
I3
tp1265
a(I9
I4
I3
tp1266
a(I10
I4
I3
tp1267
a(I11
I4
I3
tp1268
a(I11
I4
I2
tp1269
a(I11
I4
I1
tp1270
a(I11
I5
I1
tp1271
a(I11
I5
I0
tp1272
asg229
I16
sg230
I38
sbag1254
ag1254
ag1254
aI0
ag1227
aI0
ag1082
ag1082
aI0
aI0
aI0
aI0
aI0
aI0
ag1227
aI0
aI0
ag1082
ag838
aI0
aI0
ag1206
aI0
aI0
ag1227
aI0
aI0
ag1082
aI0
ag884
ag884
ag1206
ag1149
aI0
ag1227
aI0
aI0
aI0
ag1167
ag681
ag681
ag1206
aI0
ag581
ag1227
aI0
aI0
ag884
aI0
ag681
ag930
ag1206
aI0
ag581
ag1227
aI0
aI0
ag884
aI0
ag681
ag930
ag1206
aI0
aI0
ag1227
aI0
ag523
ag378
aI0
ag1227
ag1227
ag1227
ag1227
ag1227
ag1227
aI0
aI0
aI0
aI0
aI0
aI0
aI0
aI0
ag353
ag1123
ag787
aI0
ag274
aI0
aI0
aI0
aI0
aI0
aI0
aI0
aI0
aI0
aI0
aI0
ag319
ag319
ag319
ag319
ag319
ag319
ag319
aI0
ag182
ag603
aI0
aI0
aI0
aI0
aI0
ag1000
ag971
aI0
aI0
ag641
ag0
(g180
g2
Ntp1273
Rp1274
(dp1275
g184
I1
sg185
(lp1276
(I6
I1
I0
tp1277
a(I6
I0
I0
tp1278
a(I6
I0
I1
tp1279
a(I6
I0
I2
tp1280
a(I6
I0
I3
tp1281
a(I6
I0
I4
tp1282
a(I7
I0
I4
tp1283
a(I8
I0
I4
tp1284
a(I9
I0
I4
tp1285
a(I9
I1
I4
tp1286
a(I9
I2
I4
tp1287
a(I9
I3
I4
tp1288
a(I9
I4
I4
tp1289
a(I9
I5
I4
tp1290
a(I10
I5
I4
tp1291
a(I10
I6
I4
tp1292
a(I10
I6
I3
tp1293
a(I10
I6
I2
tp1294
a(I10
I6
I1
tp1295
a(I10
I6
I0
tp1296
asg229
I20
sg230
I26
sbag1274
ag1274
ag1274
ag1274
aI0
aI0
aI0
ag426
ag484
ag17
ag769
ag769
ag769
aI0
aI0
aI0
aI0
aI0
ag681
ag559
ag559
ag559
ag559
ag559
aI0
aI0
aI0
aI0
ag1042
ag38
ag0
(g180
g2
Ntp1297
Rp1298
(dp1299
g184
I16
sg185
(lp1300
(I11
I5
I0
tp1301
a(I11
I4
I0
tp1302
a(I10
I4
I0
tp1303
a(I10
I4
I1
tp1304
a(I10
I4
I2
tp1305
a(I10
I3
I2
tp1306
a(I9
I3
I2
tp1307
a(I8
I3
I2
tp1308
a(I7
I3
I2
tp1309
a(I6
I3
I2
tp1310
a(I6
I3
I1
tp1311
a(I6
I3
I0
tp1312
asg229
I8
sg230
I40
sbag1298
aI0
aI0
aI0
aI0
aI0
aI0
ag728
aI0
aI0
ag0
(g180
g2
Ntp1313
Rp1314
(dp1315
g184
I27
sg185
(lp1316
(I7
I8
I0
tp1317
a(I7
I7
I0
tp1318
a(I7
I7
I1
tp1319
a(I8
I7
I1
tp1320
a(I8
I6
I1
tp1321
a(I8
I5
I1
tp1322
a(I8
I5
I2
tp1323
a(I7
I5
I2
tp1324
a(I6
I5
I2
tp1325
a(I6
I4
I2
tp1326
a(I6
I4
I3
tp1327
a(I6
I4
I4
tp1328
a(I6
I5
I4
tp1329
a(I6
I5
I5
tp1330
a(I6
I5
I6
tp1331
a(I6
I5
I7
tp1332
a(I6
I6
I7
tp1333
a(I6
I7
I7
tp1334
a(I6
I8
I7
tp1335
a(I6
I9
I7
tp1336
a(I6
I10
I7
tp1337
a(I6
I10
I6
tp1338
a(I6
I11
I6
tp1339
a(I6
I12
I6
tp1340
a(I7
I12
I6
tp1341
a(I8
I12
I6
tp1342
a(I8
I12
I5
tp1343
a(I8
I12
I4
tp1344
a(I9
I12
I4
tp1345
a(I9
I12
I3
tp1346
a(I9
I12
I2
tp1347
a(I9
I12
I1
tp1348
a(I9
I12
I0
tp1349
a(I10
I12
I0
tp1350
asg229
I38
sg230
I50
sbag1314
ag1314
ag1227
aI0
aI0
ag232
aI0
aI0
aI0
ag1314
ag1254
ag1314
ag1314
ag1314
ag1314
ag232
aI0
aI0
ag0
(g180
g2
Ntp1351
Rp1352
(dp1353
g184
I26
sg185
(lp1354
(I6
I8
I0
tp1355
a(I6
I8
I1
tp1356
a(I6
I7
I1
tp1357
a(I6
I6
I1
tp1358
a(I6
I6
I2
tp1359
a(I6
I6
I3
tp1360
a(I6
I6
I4
tp1361
a(I6
I6
I5
tp1362
a(I6
I6
I6
tp1363
a(I7
I6
I6
tp1364
a(I8
I6
I6
tp1365
a(I9
I6
I6
tp1366
a(I9
I7
I6
tp1367
a(I10
I7
I6
tp1368
a(I10
I8
I6
tp1369
a(I10
I9
I6
tp1370
a(I10
I10
I6
tp1371
a(I10
I11
I6
tp1372
a(I10
I12
I6
tp1373
a(I11
I12
I6
tp1374
a(I12
I12
I6
tp1375
a(I13
I12
I6
tp1376
a(I13
I12
I5
tp1377
a(I13
I12
I4
tp1378
a(I13
I12
I3
tp1379
a(I13
I12
I2
tp1380
a(I13
I12
I1
tp1381
a(I13
I13
I1
tp1382
a(I13
I13
I0
tp1383
asg229
I41
sg230
I42
sbag1352
ag1352
ag1352
ag1352
ag1352
ag1314
aI0
ag838
ag83
ag1352
ag1206
aI0
aI0
ag0
(g180
g2
Ntp1384
Rp1385
(dp1386
g184
I32
sg185
(lp1387
(I6
I9
I0
tp1388
a(I6
I9
I1
tp1389
a(I6
I9
I2
tp1390
a(I6
I9
I3
tp1391
a(I6
I9
I4
tp1392
a(I6
I9
I5
tp1393
a(I6
I8
I5
tp1394
a(I6
I7
I5
tp1395
a(I7
I7
I5
tp1396
a(I7
I6
I5
tp1397
a(I8
I6
I5
tp1398
a(I9
I6
I5
tp1399
a(I10
I6
I5
tp1400
a(I10
I5
I5
tp1401
a(I10
I4
I5
tp1402
a(I10
I3
I5
tp1403
a(I10
I2
I5
tp1404
a(I10
I1
I5
tp1405
a(I10
I1
I4
tp1406
a(I10
I1
I3
tp1407
a(I10
I1
I2
tp1408
a(I10
I1
I1
tp1409
a(I10
I1
I0
tp1410
asg229
I2
sg230
I25
sbaI0
ag1314
ag1082
ag1167
ag92
ag1352
aI0
ag1149
aI0
ag1385
aI0
ag1314
aI0
ag1167
ag110
ag1385
ag1385
ag1385
ag1385
ag1385
aI0
ag1314
aI0
aI0
ag0
(g180
g2
Ntp1411
Rp1412
(dp1413
g184
I30
sg185
(lp1414
(I15
I8
I0
tp1415
a(I16
I8
I0
tp1416
a(I16
I8
I1
tp1417
a(I16
I8
I2
tp1418
a(I16
I8
I3
tp1419
a(I16
I8
I4
tp1420
a(I16
I8
I5
tp1421
a(I16
I8
I6
tp1422
a(I16
I8
I7
tp1423
a(I16
I9
I7
tp1424
a(I16
I10
I7
tp1425
a(I16
I10
I8
tp1426
a(I16
I11
I8
tp1427
a(I15
I11
I8
tp1428
a(I14
I11
I8
tp1429
a(I14
I12
I8
tp1430
a(I13
I12
I8
tp1431
a(I12
I12
I8
tp1432
a(I11
I12
I8
tp1433
a(I10
I12
I8
tp1434
a(I9
I12
I8
tp1435
a(I8
I12
I8
tp1436
a(I7
I12
I8
tp1437
a(I7
I12
I7
tp1438
a(I7
I13
I7
tp1439
a(I7
I13
I6
tp1440
a(I7
I13
I5
tp1441
a(I7
I12
I5
tp1442
a(I7
I11
I5
tp1443
a(I6
I11
I5
tp1444
a(I6
I11
I4
tp1445
a(I6
I11
I3
tp1446
a(I6
I10
I3
tp1447
a(I6
I10
I2
tp1448
a(I6
I10
I1
tp1449
a(I6
I10
I0
tp1450
a(I6
I9
I0
tp1451
asg229
I32
sg230
I57
sbag1412
ag1412
ag1412
ag581
aI0
ag1314
ag1314
ag884
aI0
ag681
ag930
aI0
ag1412
ag1412
ag1412
ag1314
ag523
ag378
aI0
ag681
aI0
aI0
aI0
aI0
aI0
ag1314
aI0
aI0
aI0
ag353
ag353
ag353
ag353
ag353
ag1123
ag787
aI0
ag274
aI0
ag143
ag1123
ag1123
ag1123
ag1123
ag1123
ag787
aI0
aI0
aI0
ag149
ag787
ag787
ag787
ag787
ag787
ag787
aI0
ag182
ag603
ag0
(g180
g2
Ntp1452
Rp1453
(dp1454
g184
I45
sg185
(lp1455
(I6
I15
I0
tp1456
a(I6
I16
I0
tp1457
a(I6
I16
I1
tp1458
a(I6
I16
I2
tp1459
a(I6
I16
I3
tp1460
a(I6
I16
I4
tp1461
a(I7
I16
I4
tp1462
a(I7
I15
I4
tp1463
a(I7
I15
I5
tp1464
a(I7
I15
I6
tp1465
a(I7
I15
I7
tp1466
a(I7
I16
I7
tp1467
a(I8
I16
I7
tp1468
a(I9
I16
I7
tp1469
a(I10
I16
I7
tp1470
a(I11
I16
I7
tp1471
a(I12
I16
I7
tp1472
a(I12
I15
I7
tp1473
a(I12
I14
I7
tp1474
a(I12
I13
I7
tp1475
a(I12
I13
I6
tp1476
a(I12
I13
I5
tp1477
a(I12
I12
I5
tp1478
a(I12
I12
I4
tp1479
a(I12
I12
I3
tp1480
a(I12
I12
I2
tp1481
a(I12
I12
I1
tp1482
a(I11
I12
I1
tp1483
a(I11
I12
I0
tp1484
a(I10
I12
I0
tp1485
asg229
I38
sg230
I61
sbag1453
ag1453
ag1453
ag1453
ag1000
ag971
aI0
aI0
ag641
aI0
aI0
aI0
aI0
ag1274
aI0
aI0
aI0
ag426
ag484
aI0
aI0
aI0
aI0
aI0
aI0
aI0
aI0
aI0
ag681
aI0
aI0
aI0
aI0
aI0
aI0
aI0
aI0
aI0
ag1042
aI0
aI0
ag1298
aI0
aI0
aI0
aI0
aI0
aI0
ag728
ag1227
ag1227
ag1227
ag1227
ag1227
ag1227
aI0
aI0
aI0
aI0
aI0
aI0
ag1314
ag1254
aI0
aI0
aI0
aI0
ag232
aI0
ag71
ag0
(g180
g2
Ntp1486
Rp1487
(dp1488
g184
I34
sg185
(lp1489
(I12
I11
I0
tp1490
a(I12
I10
I0
tp1491
a(I12
I10
I1
tp1492
a(I12
I10
I2
tp1493
a(I12
I10
I3
tp1494
a(I12
I9
I3
tp1495
a(I12
I8
I3
tp1496
a(I11
I8
I3
tp1497
a(I10
I8
I3
tp1498
a(I9
I8
I3
tp1499
a(I9
I7
I3
tp1500
a(I8
I7
I3
tp1501
a(I8
I6
I3
tp1502
a(I7
I6
I3
tp1503
a(I7
I6
I2
tp1504
a(I7
I6
I1
tp1505
a(I7
I6
I0
tp1506
asg229
I19
sg230
I28
sbag1487
ag1487
aI0
ag1385
ag1352
aI0
aI0
ag838
ag1314
ag1314
ag1206
aI0
aI0
ag1385
aI0
aI0
ag1082
ag1167
ag95
ag1149
ag1149
ag1149
aI0
aI0
aI0
aI0
aI0
aI0
ag0
(g180
g2
Ntp1507
Rp1508
(dp1509
g184
I32
sg185
(lp1510
(I6
I9
I0
tp1511
a(I7
I9
I0
tp1512
a(I7
I9
I1
tp1513
a(I7
I9
I2
tp1514
a(I7
I9
I3
tp1515
a(I7
I9
I4
tp1516
a(I7
I9
I5
tp1517
a(I7
I9
I6
tp1518
a(I7
I9
I7
tp1519
a(I7
I9
I8
tp1520
a(I8
I9
I8
tp1521
a(I9
I9
I8
tp1522
a(I10
I9
I8
tp1523
a(I11
I9
I8
tp1524
a(I12
I9
I8
tp1525
a(I13
I9
I8
tp1526
a(I14
I9
I8
tp1527
a(I15
I9
I8
tp1528
a(I16
I9
I8
tp1529
a(I17
I9
I8
tp1530
a(I17
I8
I8
tp1531
a(I17
I7
I8
tp1532
a(I17
I7
I7
tp1533
a(I17
I7
I6
tp1534
a(I17
I7
I5
tp1535
a(I17
I7
I4
tp1536
a(I17
I7
I3
tp1537
a(I17
I7
I2
tp1538
a(I17
I7
I1
tp1539
a(I17
I7
I0
tp1540
a(I16
I7
I0
tp1541
asg229
I25
sg230
I35
sbag1508
ag1508
ag1508
ag1508
ag1508
ag1508
ag1508
ag1508
aI0
aI0
aI0
aI0
aI0
ag581
aI0
aI0
aI0
ag884
aI0
ag930
ag930
aI0
aI0
aI0
ag1412
aI0
ag523
ag378
aI0
ag125
ag0
(g180
g2
Ntp1542
Rp1543
(dp1544
g184
I29
sg185
(lp1545
(I11
I8
I0
tp1546
a(I11
I9
I0
tp1547
a(I12
I9
I0
tp1548
a(I12
I9
I1
tp1549
a(I12
I9
I2
tp1550
a(I13
I9
I2
tp1551
a(I13
I9
I3
tp1552
a(I13
I10
I3
tp1553
a(I13
I10
I4
tp1554
a(I13
I10
I5
tp1555
a(I14
I10
I5
tp1556
a(I15
I10
I5
tp1557
a(I16
I10
I5
tp1558
a(I17
I10
I5
tp1559
a(I17
I10
I6
tp1560
a(I17
I10
I7
tp1561
a(I17
I11
I7
tp1562
a(I17
I11
I8
tp1563
a(I17
I12
I8
tp1564
a(I17
I13
I8
tp1565
a(I17
I14
I8
tp1566
a(I16
I14
I8
tp1567
a(I15
I14
I8
tp1568
a(I14
I14
I8
tp1569
a(I13
I14
I8
tp1570
a(I12
I14
I8
tp1571
a(I11
I14
I8
tp1572
a(I10
I14
I8
tp1573
a(I9
I14
I8
tp1574
a(I8
I14
I8
tp1575
a(I7
I14
I8
tp1576
a(I7
I14
I7
tp1577
a(I7
I14
I6
tp1578
a(I7
I14
I5
tp1579
a(I7
I14
I4
tp1580
a(I7
I13
I4
tp1581
a(I7
I12
I4
tp1582
a(I7
I12
I3
tp1583
a(I7
I12
I2
tp1584
a(I7
I12
I1
tp1585
a(I7
I12
I0
tp1586
asg229
I37
sg230
I60
sbag1543
ag1543
ag1543
ag1412
ag1314
ag1412
ag1412
aI0
ag0
(g180
g2
Ntp1587
Rp1588
(dp1589
g184
I37
sg185
(lp1590
(I7
I12
I0
tp1591
a(I7
I13
I0
tp1592
a(I7
I14
I0
tp1593
a(I6
I14
I0
tp1594
asg229
I43
sg230
I67
sbaI0
aI0
aI0
ag1543
ag1412
ag1412
ag1412
ag274
aI0
ag1588
aI0
aI0
aI0
ag1543
ag1543
ag1543
ag1543
ag1543
aI0
aI0
aI0
aI0
aI0
ag1453
ag1453
ag1453
ag1453
ag182
ag603
aI0
aI0
aI0
aI0
ag1453
ag1000
ag971
ag1453
aI0
ag641
aI0
aI0
aI0
aI0
ag1274
aI0
aI0
aI0
ag426
ag484
aI0
aI0
aI0
ag681
ag681
ag681
ag681
ag681
ag681
ag681
aI0
aI0
aI0
aI0
aI0
aI0
aI0
aI0
aI0
ag1042
ag0
(g180
g2
Ntp1595
Rp1596
(dp1597
g184
I12
sg185
(lp1598
(I8
I4
I0
tp1599
a(I8
I3
I0
tp1600
a(I8
I3
I1
tp1601
a(I9
I3
I1
tp1602
a(I10
I3
I1
tp1603
a(I11
I3
I1
tp1604
a(I12
I3
I1
tp1605
a(I12
I3
I0
tp1606
asg229
I9
sg230
I55
sbag1596
ag1298
aI0
aI0
aI0
aI0
aI0
aI0
ag728
ag50
ag0
(g180
g2
Ntp1607
Rp1608
(dp1609
g184
I49
sg185
(lp1610
(I16
I15
I0
tp1611
a(I16
I15
I1
tp1612
a(I16
I15
I2
tp1613
a(I16
I15
I3
tp1614
a(I16
I15
I4
tp1615
a(I16
I15
I5
tp1616
a(I17
I15
I5
tp1617
a(I17
I15
I6
tp1618
a(I17
I15
I7
tp1619
a(I17
I15
I8
tp1620
a(I17
I15
I9
tp1621
a(I17
I14
I9
tp1622
a(I17
I13
I9
tp1623
a(I17
I12
I9
tp1624
a(I17
I11
I9
tp1625
a(I17
I10
I9
tp1626
a(I17
I9
I9
tp1627
a(I17
I8
I9
tp1628
a(I17
I7
I9
tp1629
a(I17
I6
I9
tp1630
a(I17
I5
I9
tp1631
a(I17
I4
I9
tp1632
a(I16
I4
I9
tp1633
a(I15
I4
I9
tp1634
a(I14
I4
I9
tp1635
a(I13
I4
I9
tp1636
a(I12
I4
I9
tp1637
a(I11
I4
I9
tp1638
a(I10
I4
I9
tp1639
a(I9
I4
I9
tp1640
a(I8
I4
I9
tp1641
a(I8
I4
I8
tp1642
a(I8
I4
I7
tp1643
a(I8
I4
I6
tp1644
a(I8
I4
I5
tp1645
a(I8
I4
I4
tp1646
a(I8
I4
I3
tp1647
a(I8
I4
I2
tp1648
a(I8
I4
I1
tp1649
a(I8
I4
I0
tp1650
asg229
I12
sg230
I4
sbag1608
ag1608
ag1608
ag1608
ag1608
ag1608
ag1608
ag1608
aI0
ag1314
ag1314
ag1254
aI0
aI0
aI0
aI0
ag232
aI0
aI0
ag1314
ag1206
ag1487
aI0
ag1385
ag1352
aI0
aI0
ag838
aI0
ag1314
ag1206
ag1487
aI0
aI0
aI0
aI0
ag1082
ag1167
ag0
(g180
g2
Ntp1651
Rp1652
(dp1653
g184
I27
sg185
(lp1654
(I7
I8
I0
tp1655
a(I8
I8
I0
tp1656
a(I8
I9
I0
tp1657
a(I8
I9
I1
tp1658
a(I8
I9
I2
tp1659
a(I8
I9
I3
tp1660
a(I8
I9
I4
tp1661
a(I8
I9
I5
tp1662
a(I8
I9
I6
tp1663
a(I8
I10
I6
tp1664
a(I9
I10
I6
tp1665
a(I9
I11
I6
tp1666
a(I9
I12
I6
tp1667
a(I9
I13
I6
tp1668
a(I9
I14
I6
tp1669
a(I10
I14
I6
tp1670
a(I11
I14
I6
tp1671
a(I11
I15
I6
tp1672
a(I11
I15
I5
tp1673
a(I11
I15
I4
tp1674
a(I11
I15
I3
tp1675
a(I11
I15
I2
tp1676
a(I11
I15
I1
tp1677
a(I11
I15
I0
tp1678
asg229
I47
sg230
I46
sbag603
ag603
ag603
ag603
ag603
ag603
ag603
ag603
ag603
ag1652
ag1652
ag1652
ag1652
ag1652
ag1652
ag1652
aI0
ag1508
ag603
ag581
ag581
ag581
ag581
ag581
aI0
ag1652
aI0
ag884
ag603
aI0
aI0
aI0
aI0
ag523
ag523
ag523
ag523
ag378
ag603
ag0
(g180
g2
Ntp1679
Rp1680
(dp1681
g184
I37
sg185
(lp1682
(I7
I12
I0
tp1683
a(I8
I12
I0
tp1684
a(I8
I13
I0
tp1685
a(I9
I13
I0
tp1686
asg229
I40
sg230
I15
sbaI0
aI0
aI0
ag1314
ag1314
ag1314
aI0
ag1412
ag603
ag1680
aI0
aI0
aI0
aI0
aI0
aI0
ag0
(g180
g2
Ntp1687
Rp1688
(dp1689
g184
I46
sg185
(lp1690
(I8
I15
I0
tp1691
a(I8
I14
I0
tp1692
a(I8
I14
I1
tp1693
a(I8
I14
I2
tp1694
a(I8
I14
I3
tp1695
a(I8
I14
I4
tp1696
a(I8
I14
I5
tp1697
a(I8
I14
I6
tp1698
a(I8
I14
I7
tp1699
a(I8
I13
I7
tp1700
a(I9
I13
I7
tp1701
a(I9
I12
I7
tp1702
a(I9
I11
I7
tp1703
a(I9
I10
I7
tp1704
a(I9
I9
I7
tp1705
a(I9
I8
I7
tp1706
a(I9
I8
I6
tp1707
a(I9
I8
I5
tp1708
a(I9
I8
I4
tp1709
a(I9
I9
I4
tp1710
a(I10
I9
I4
tp1711
a(I10
I9
I3
tp1712
a(I11
I9
I3
tp1713
a(I11
I9
I2
tp1714
a(I11
I9
I1
tp1715
a(I11
I8
I1
tp1716
a(I11
I8
I0
tp1717
asg229
I29
sg230
I54
sbag274
ag603
ag1688
ag1688
ag1688
ag1688
ag1688
ag1688
ag1688
ag1688
ag1543
ag603
ag152
ag182
ag182
ag182
ag182
ag182
ag182
ag182
ag182
ag603
ag1000
ag1000
ag1000
ag1000
ag1000
ag1000
ag971
ag1453
aI0
ag641
aI0
aI0
aI0
aI0
ag1274
aI0
aI0
aI0
ag426
ag484
ag681
ag681
ag681
ag681
ag1274
aI0
aI0
aI0
aI0
aI0
aI0
aI0
aI0
aI0
ag1274
aI0
aI0
aI0
aI0
ag1042
ag0
(g180
g2
Ntp1718
Rp1719
(dp1720
g184
I12
sg185
(lp1721
(I8
I4
I0
tp1722
a(I9
I4
I0
tp1723
a(I9
I3
I0
tp1724
a(I10
I3
I0
tp1725
a(I11
I3
I0
tp1726
a(I11
I2
I0
tp1727
a(I12
I2
I0
tp1728
asg229
I5
sg230
I12
sbag1596
ag1298
aI0
ag1274
aI0
aI0
aI0
aI0
ag728
ag1719
aI0
aI0
ag1254
ag1274
aI0
aI0
aI0
aI0
ag1608
aI0
aI0
aI0
ag1254
ag1274
aI0
aI0
aI0
ag232
aI0
ag1206
ag1206
ag1206
aI0
aI0
ag1385
ag1352
aI0
aI0
ag838
aI0
aI0
ag0
(g180
g2
Ntp1729
Rp1730
(dp1731
g184
I21
sg185
(lp1732
(I12
I6
I0
tp1733
a(I12
I7
I0
tp1734
a(I12
I7
I1
tp1735
a(I12
I7
I2
tp1736
a(I11
I7
I2
tp1737
a(I10
I7
I2
tp1738
a(I9
I7
I2
tp1739
a(I9
I8
I2
tp1740
a(I9
I9
I2
tp1741
a(I9
I10
I2
tp1742
a(I9
I10
I1
tp1743
a(I9
I10
I0
tp1744
asg229
I33
sg230
I5
sbag1487
aI0
aI0
ag1352
aI0
ag1082
ag1167
ag98
ag603
ag1730
ag1487
ag1688
ag1688
ag1688
ag1688
aI0
aI0
aI0
aI0
ag1730
aI0
ag1688
ag0
(g180
g2
Ntp1745
Rp1746
(dp1747
g184
I30
sg185
(lp1748
(I15
I8
I0
tp1749
a(I15
I8
I1
tp1750
a(I15
I8
I2
tp1751
a(I15
I8
I3
tp1752
a(I15
I8
I4
tp1753
a(I15
I8
I5
tp1754
a(I14
I8
I5
tp1755
a(I13
I8
I5
tp1756
a(I12
I8
I5
tp1757
a(I11
I8
I5
tp1758
a(I10
I8
I5
tp1759
a(I10
I9
I5
tp1760
a(I9
I9
I5
tp1761
a(I9
I10
I5
tp1762
a(I9
I11
I5
tp1763
a(I9
I12
I5
tp1764
a(I9
I13
I5
tp1765
a(I9
I13
I4
tp1766
a(I9
I13
I3
tp1767
a(I9
I13
I2
tp1768
a(I9
I13
I1
tp1769
a(I9
I13
I0
tp1770
asg229
I40
sg230
I13
sbaI0
ag1688
ag1508
aI0
ag113
ag1730
ag1730
aI0
aI0
ag1746
ag1652
ag1688
ag884
ag884
ag523
ag523
ag523
ag523
ag523
ag1746
ag1652
ag1688
ag378
aI0
ag1314
ag1314
ag1314
ag1314
ag1314
ag1746
ag1652
ag1688
ag1412
aI0
ag134
ag1746
ag1746
ag1746
ag1746
ag1746
ag1652
ag1688
ag274
aI0
ag0
(g180
g2
Ntp1771
Rp1772
(dp1773
g184
I40
sg185
(lp1774
(I9
I13
I0
tp1775
a(I9
I14
I0
tp1776
a(I10
I14
I0
tp1777
a(I10
I15
I0
tp1778
a(I11
I15
I0
tp1779
asg229
I47
sg230
I47
sbaI0
aI0
aI0
aI0
aI0
ag1652
aI0
ag1543
aI0
aI0
aI0
aI0
aI0
aI0
aI0
aI0
aI0
aI0
aI0
aI0
aI0
ag971
ag971
ag971
ag971
ag971
ag1453
aI0
ag641
ag0
(g180
g2
Ntp1780
Rp1781
(dp1782
g184
I48
sg185
(lp1783
(I13
I15
I0
tp1784
a(I13
I15
I1
tp1785
a(I13
I15
I2
tp1786
a(I13
I15
I3
tp1787
a(I13
I15
I4
tp1788
a(I13
I15
I5
tp1789
a(I13
I15
I6
tp1790
a(I13
I15
I7
tp1791
a(I13
I14
I7
tp1792
a(I13
I13
I7
tp1793
a(I13
I12
I7
tp1794
a(I13
I11
I7
tp1795
a(I13
I10
I7
tp1796
a(I12
I10
I7
tp1797
a(I12
I9
I7
tp1798
a(I12
I8
I7
tp1799
a(I12
I7
I7
tp1800
a(I12
I6
I7
tp1801
a(I12
I5
I7
tp1802
a(I12
I4
I7
tp1803
a(I12
I3
I7
tp1804
a(I12
I2
I7
tp1805
a(I12
I1
I7
tp1806
a(I12
I0
I7
tp1807
a(I11
I0
I7
tp1808
a(I10
I0
I7
tp1809
a(I10
I0
I6
tp1810
a(I10
I0
I5
tp1811
a(I10
I0
I4
tp1812
a(I10
I0
I3
tp1813
a(I10
I0
I2
tp1814
a(I10
I0
I1
tp1815
a(I10
I0
I0
tp1816
a(I10
I1
I0
tp1817
asg229
I2
sg230
I34
sbag1781
ag1781
ag1781
ag1781
ag1781
ag1781
ag1781
ag426
ag484
ag20
ag1385
ag1385
ag1385
ag1385
ag1385
aI0
aI0
ag426
aI0
aI0
aI0
aI0
aI0
aI0
ag1385
aI0
aI0
ag426
ag1042
ag1719
ag1596
ag1298
aI0
aI0
ag1385
aI0
aI0
ag426
ag728
ag1298
ag1298
ag1298
ag1254
aI0
ag1385
aI0
ag426
ag426
ag1608
ag59
ag0
(g180
g2
Ntp1818
Rp1819
(dp1820
g184
I15
sg185
(lp1821
(I10
I5
I0
tp1822
a(I10
I5
I1
tp1823
a(I10
I5
I2
tp1824
a(I11
I5
I2
tp1825
a(I12
I5
I2
tp1826
a(I13
I5
I2
tp1827
a(I14
I5
I2
tp1828
a(I14
I6
I2
tp1829
a(I15
I6
I2
tp1830
a(I15
I6
I1
tp1831
a(I15
I6
I0
tp1832
asg229
I22
sg230
I33
sbag1819
aI0
ag1274
ag1385
aI0
ag426
ag232
aI0
ag74
ag1274
ag1274
ag1274
ag1274
ag1385
aI0
ag426
aI0
ag838
aI0
aI0
ag1730
aI0
aI0
aI0
ag1352
ag426
ag1082
ag1167
ag0
(g180
g2
Ntp1833
Rp1834
(dp1835
g184
I49
sg185
(lp1836
(I16
I15
I0
tp1837
a(I17
I15
I0
tp1838
a(I17
I15
I1
tp1839
a(I17
I15
I2
tp1840
a(I17
I15
I3
tp1841
a(I17
I15
I4
tp1842
a(I17
I14
I4
tp1843
a(I17
I13
I4
tp1844
a(I17
I12
I4
tp1845
a(I17
I11
I4
tp1846
a(I17
I10
I4
tp1847
a(I17
I9
I4
tp1848
a(I16
I9
I4
tp1849
a(I15
I9
I4
tp1850
a(I14
I9
I4
tp1851
a(I13
I9
I4
tp1852
a(I13
I8
I4
tp1853
a(I13
I8
I3
tp1854
a(I13
I8
I2
tp1855
a(I12
I8
I2
tp1856
a(I11
I8
I2
tp1857
a(I10
I8
I2
tp1858
a(I10
I8
I1
tp1859
a(I10
I8
I0
tp1860
a(I9
I8
I0
tp1861
asg229
I28
sg230
I45
sbag1834
ag1834
ag1487
aI0
ag1746
ag1352
ag426
ag1082
aI0
aI0
aI0
aI0
ag1688
ag1688
ag1746
ag1352
ag426
ag1508
aI0
ag0
(g180
g2
Ntp1862
Rp1863
(dp1864
g184
I6
sg185
(lp1865
(I14
I2
I0
tp1866
a(I14
I3
I0
tp1867
a(I14
I3
I1
tp1868
a(I14
I4
I1
tp1869
a(I14
I4
I2
tp1870
a(I14
I4
I3
tp1871
a(I14
I4
I4
tp1872
a(I14
I5
I4
tp1873
a(I13
I5
I4
tp1874
a(I13
I6
I4
tp1875
a(I13
I7
I4
tp1876
a(I12
I7
I4
tp1877
a(I11
I7
I4
tp1878
a(I11
I8
I4
tp1879
a(I11
I9
I4
tp1880
a(I11
I10
I4
tp1881
a(I10
I10
I4
tp1882
a(I10
I10
I3
tp1883
a(I10
I10
I2
tp1884
a(I10
I10
I1
tp1885
a(I10
I10
I0
tp1886
a(I9
I10
I0
tp1887
asg229
I33
sg230
I20
sbag1863
ag1863
ag1863
ag1863
aI0
ag1352
ag426
aI0
ag884
ag274
ag274
ag274
ag274
ag274
ag274
ag1352
ag426
ag378
aI0
ag128
ag0
(g180
g2
Ntp1888
Rp1889
(dp1890
g184
I39
sg185
(lp1891
(I15
I12
I0
tp1892
a(I15
I13
I0
tp1893
a(I15
I13
I1
tp1894
a(I15
I13
I2
tp1895
a(I14
I13
I2
tp1896
a(I13
I13
I2
tp1897
a(I12
I13
I2
tp1898
a(I11
I13
I2
tp1899
a(I11
I12
I2
tp1900
a(I10
I12
I2
tp1901
a(I10
I12
I1
tp1902
a(I10
I12
I0
tp1903
asg229
I38
sg230
I19
sbag1889
aI0
aI0
ag274
ag1352
aI0
ag1412
aI0
ag0
(g180
g2
Ntp1904
Rp1905
(dp1906
g184
I38
sg185
(lp1907
(I10
I12
I0
tp1908
a(I10
I13
I0
tp1909
a(I10
I13
I1
tp1910
a(I10
I13
I2
tp1911
a(I10
I13
I3
tp1912
a(I10
I14
I3
tp1913
a(I10
I15
I3
tp1914
a(I10
I16
I3
tp1915
a(I11
I16
I3
tp1916
a(I12
I16
I3
tp1917
a(I13
I16
I3
tp1918
a(I14
I16
I3
tp1919
a(I15
I16
I3
tp1920
a(I16
I16
I3
tp1921
a(I16
I16
I2
tp1922
a(I16
I16
I1
tp1923
a(I16
I16
I0
tp1924
a(I16
I15
I0
tp1925
asg229
I49
sg230
I36
sbag1905
ag1905
ag1905
aI0
ag274
ag274
ag274
ag274
aI0
ag1772
aI0
aI0
ag1905
aI0
aI0
ag1652
aI0
ag1543
aI0
ag1772
aI0
aI0
ag1905
aI0
aI0
aI0
aI0
aI0
aI0
aI0
aI0
ag971
ag1905
aI0
aI0
aI0
ag1453
aI0
ag641
aI0
aI0
aI0
aI0
aI0
aI0
aI0
ag1781
aI0
ag484
ag0
(g180
g2
Ntp1926
Rp1927
(dp1928
g184
I34
sg185
(lp1929
(I12
I11
I0
tp1930
a(I11
I11
I0
tp1931
a(I11
I11
I1
tp1932
a(I11
I11
I2
tp1933
a(I11
I11
I3
tp1934
a(I11
I11
I4
tp1935
a(I11
I11
I5
tp1936
a(I11
I11
I6
tp1937
a(I11
I10
I6
tp1938
a(I11
I9
I6
tp1939
a(I12
I9
I6
tp1940
a(I12
I8
I6
tp1941
a(I12
I7
I6
tp1942
a(I12
I6
I6
tp1943
a(I12
I5
I6
tp1944
a(I11
I5
I6
tp1945
a(I11
I4
I6
tp1946
a(I11
I3
I6
tp1947
a(I11
I2
I6
tp1948
a(I11
I1
I6
tp1949
a(I11
I1
I5
tp1950
a(I11
I1
I4
tp1951
a(I11
I1
I3
tp1952
a(I11
I1
I2
tp1953
a(I11
I1
I1
tp1954
a(I11
I1
I0
tp1955
a(I10
I1
I0
tp1956
asg229
I2
sg230
I43
sbag1927
ag1927
ag1927
ag1927
ag1927
ag1927
aI0
aI0
aI0
ag1719
aI0
aI0
aI0
aI0
aI0
ag1927
aI0
aI0
ag1042
ag1719
ag1596
aI0
aI0
aI0
aI0
ag1927
aI0
aI0
ag728
ag1298
ag1254
ag1254
ag1254
aI0
aI0
ag1927
aI0
aI0
ag1608
ag62
ag1254
ag1819
aI0
aI0
aI0
ag1927
aI0
ag232
aI0
ag1167
ag1167
ag1167
ag1167
ag1167
ag1167
ag1167
ag1167
ag1167
ag838
aI0
aI0
ag1730
aI0
ag1863
ag378
ag378
ag378
ag1167
ag1167
ag101
ag1688
ag1834
ag1487
ag1863
ag1746
aI0
ag378
ag1082
aI0
ag1543
ag1688
ag1688
ag1688
ag1863
aI0
ag1927
ag378
ag1508
aI0
aI0
aI0
aI0
aI0
ag1863
aI0
ag1927
ag378
ag378
ag884
ag1927
ag1927
ag1927
ag1927
ag1927
ag1927
ag1927
ag426
ag378
aI0
ag1453
ag1453
ag1889
aI0
aI0
aI0
ag1352
ag426
ag1412
aI0
aI0
aI0
ag1889
aI0
aI0
aI0
aI0
ag426
ag426
aI0
aI0
aI0
aI0
aI0
aI0
aI0
ag1652
aI0
ag1543
aI0
ag155
ag1652
ag1652
ag1652
ag1652
ag1652
ag1652
aI0
aI0
aI0
ag971
ag971
ag971
ag1905
aI0
aI0
aI0
ag1453
aI0
ag641
aI0
aI0
ag0
(g180
g2
Ntp1957
Rp1958
(dp1959
g184
I5
sg185
(lp1960
(I12
I2
I0
tp1961
a(I12
I1
I0
tp1962
a(I12
I1
I1
tp1963
a(I12
I1
I2
tp1964
a(I12
I0
I2
tp1965
a(I12
I0
I3
tp1966
a(I12
I0
I4
tp1967
a(I12
I0
I5
tp1968
a(I12
I0
I6
tp1969
a(I13
I0
I6
tp1970
a(I13
I0
I7
tp1971
a(I13
I0
I8
tp1972
a(I14
I0
I8
tp1973
a(I14
I1
I8
tp1974
a(I14
I2
I8
tp1975
a(I15
I2
I8
tp1976
a(I15
I3
I8
tp1977
a(I15
I4
I8
tp1978
a(I15
I5
I8
tp1979
a(I15
I6
I8
tp1980
a(I15
I7
I8
tp1981
a(I15
I8
I8
tp1982
a(I15
I8
I7
tp1983
a(I15
I9
I7
tp1984
a(I15
I10
I7
tp1985
a(I15
I11
I7
tp1986
a(I15
I12
I7
tp1987
a(I15
I13
I7
tp1988
a(I15
I14
I7
tp1989
a(I14
I14
I7
tp1990
a(I14
I14
I6
tp1991
a(I13
I14
I6
tp1992
a(I13
I14
I5
tp1993
a(I13
I14
I4
tp1994
a(I13
I14
I3
tp1995
a(I13
I14
I2
tp1996
a(I13
I14
I1
tp1997
a(I13
I14
I0
tp1998
a(I13
I13
I0
tp1999
asg229
I41
sg230
I59
sbag1958
ag1958
ag1958
ag1958
ag1781
aI0
ag484
ag1958
ag1958
ag1958
ag0
(g180
g2
Ntp2000
Rp2001
(dp2002
g184
I3
sg185
(lp2003
(I15
I1
I0
tp2004
a(I15
I1
I1
tp2005
a(I15
I1
I2
tp2006
a(I15
I1
I3
tp2007
a(I14
I1
I3
tp2008
a(I13
I1
I3
tp2009
a(I12
I1
I3
tp2010
a(I12
I2
I3
tp2011
a(I12
I3
I3
tp2012
a(I12
I4
I3
tp2013
a(I12
I5
I3
tp2014
a(I12
I6
I3
tp2015
a(I12
I6
I2
tp2016
a(I12
I6
I1
tp2017
a(I12
I6
I0
tp2018
asg229
I21
sg230
I0
sbaI0
aI0
aI0
ag1781
aI0
aI0
ag29
ag0
(g180
g2
Ntp2019
Rp2020
(dp2021
g184
I5
sg185
(lp2022
(I12
I2
I0
tp2023
a(I12
I2
I1
tp2024
a(I12
I2
I2
tp2025
a(I13
I2
I2
tp2026
a(I14
I2
I2
tp2027
a(I14
I3
I2
tp2028
a(I15
I3
I2
tp2029
a(I16
I3
I2
tp2030
a(I16
I4
I2
tp2031
a(I16
I5
I2
tp2032
a(I16
I5
I1
tp2033
a(I16
I5
I0
tp2034
asg229
I17
sg230
I3
sbag2020
ag2001
aI0
aI0
aI0
ag1781
aI0
ag1042
ag41
ag1596
aI0
ag2001
aI0
aI0
aI0
ag1781
aI0
ag728
aI0
aI0
aI0
ag2001
aI0
aI0
aI0
ag1781
aI0
ag1608
ag0
(g180
g2
Ntp2035
Rp2036
(dp2037
g184
I16
sg185
(lp2038
(I11
I5
I0
tp2039
a(I12
I5
I0
tp2040
a(I13
I5
I0
tp2041
a(I14
I5
I0
tp2042
a(I14
I4
I0
tp2043
a(I15
I4
I0
tp2044
a(I15
I3
I0
tp2045
asg229
I10
sg230
I22
sbaI0
ag1819
ag2001
aI0
aI0
ag1927
ag1781
ag232
aI0
ag77
ag2001
ag2001
ag2001
aI0
ag378
ag1927
ag1781
aI0
ag838
ag1730
ag1730
ag1730
aI0
ag1863
ag378
ag1927
ag1781
aI0
aI0
ag0
(g180
g2
Ntp2046
Rp2047
(dp2048
g184
I24
sg185
(lp2049
(I13
I7
I0
tp2050
a(I13
I8
I0
tp2051
a(I12
I8
I0
tp2052
a(I11
I8
I0
tp2053
asg229
I29
sg230
I37
sbaI0
ag1834
ag1487
aI0
ag1746
ag1927
ag1781
ag1082
aI0
ag1543
ag1543
ag1543
ag1487
aI0
aI0
ag1927
ag1781
ag1508
aI0
ag1487
ag1487
ag1487
ag1487
aI0
aI0
aI0
ag1781
aI0
ag884
ag116
ag641
ag641
ag641
ag641
ag641
ag641
ag641
ag641
ag641
ag0
(g180
g2
Ntp2054
Rp2055
(dp2056
g184
I48
sg185
(lp2057
(I13
I15
I0
tp2058
a(I12
I15
I0
tp2059
a(I12
I14
I0
tp2060
a(I12
I13
I0
tp2061
a(I12
I12
I0
tp2062
a(I12
I11
I0
tp2063
asg229
I34
sg230
I18
sbag1453
ag1453
ag1453
ag1453
ag1453
ag1352
aI0
ag1412
ag641
ag2055
aI0
ag1889
aI0
aI0
ag1453
ag1453
ag1453
ag426
ag641
ag2055
aI0
aI0
aI0
aI0
aI0
aI0
ag1453
ag1543
ag641
ag2055
aI0
aI0
aI0
aI0
aI0
aI0
ag1453
aI0
ag641
aI0
aI0
aI0
ag1905
aI0
aI0
aI0
ag1453
aI0
ag641
aI0
aI0
aI0
aI0
aI0
aI0
ag1958
ag1958
ag1958
ag484
aI0
aI0
aI0
ag2001
aI0
aI0
aI0
aI0
aI0
aI0
ag0
(g180
g2
Ntp2064
Rp2065
(dp2066
g184
I5
sg185
(lp2067
(I12
I2
I0
tp2068
a(I13
I2
I0
tp2069
a(I13
I2
I1
tp2070
a(I13
I3
I1
tp2071
a(I13
I3
I2
tp2072
a(I13
I3
I3
tp2073
a(I13
I3
I4
tp2074
a(I13
I3
I5
tp2075
a(I13
I3
I6
tp2076
a(I14
I3
I6
tp2077
a(I15
I3
I6
tp2078
a(I15
I4
I6
tp2079
a(I15
I5
I6
tp2080
a(I15
I6
I6
tp2081
a(I15
I7
I6
tp2082
a(I15
I8
I6
tp2083
a(I15
I9
I6
tp2084
a(I15
I10
I6
tp2085
a(I15
I11
I6
tp2086
a(I15
I12
I6
tp2087
a(I15
I12
I5
tp2088
a(I15
I12
I4
tp2089
a(I15
I12
I3
tp2090
a(I15
I12
I2
tp2091
a(I15
I12
I1
tp2092
a(I15
I12
I0
tp2093
asg229
I39
sg230
I14
sbag2065
ag2020
aI0
aI0
aI0
aI0
aI0
aI0
ag1042
aI0
ag2065
ag2065
ag2065
ag2065
ag2065
ag2065
aI0
aI0
ag728
aI0
aI0
aI0
aI0
aI0
aI0
aI0
aI0
aI0
ag1608
ag2036
aI0
ag1819
aI0
ag1863
aI0
aI0
aI0
ag232
aI0
aI0
aI0
aI0
aI0
ag1863
ag378
aI0
aI0
ag232
ag838
ag86
aI0
aI0
aI0
ag1863
aI0
ag232
ag232
ag232
aI0
ag2047
aI0
ag1834
ag1834
ag1834
ag1746
aI0
ag1082
ag1082
aI0
aI0
aI0
ag1543
ag1543
ag1834
aI0
ag1082
ag1082
ag1508
aI0
aI0
aI0
aI0
ag1543
ag1543
ag1543
ag1082
ag1781
aI0
ag884
ag1082
ag1082
ag1082
ag1082
ag1082
ag1082
ag1082
ag1781
aI0
aI0
aI0
ag1352
ag1352
ag1352
ag1352
ag1352
ag1352
ag1781
ag1412
aI0
ag137
ag1352
ag1889
aI0
aI0
aI0
aI0
ag1781
ag426
aI0
ag1958
ag1958
ag1958
ag1958
ag1958
ag1958
ag1958
ag1781
ag1543
aI0
ag158
ag1781
ag1781
ag1781
ag1781
ag1781
ag1781
ag1781
aI0
aI0
aI0
aI0
aI0
ag1905
aI0
aI0
aI0
aI0
aI0
aI0
aI0
aI0
ag0
(g180
g2
Ntp2094
Rp2095
(dp2096
g184
I39
sg185
(lp2097
(I15
I12
I0
tp2098
a(I14
I12
I0
tp2099
a(I14
I12
I1
tp2100
a(I14
I12
I2
tp2101
a(I14
I12
I3
tp2102
a(I14
I12
I4
tp2103
a(I14
I12
I5
tp2104
a(I14
I12
I6
tp2105
a(I14
I12
I7
tp2106
a(I14
I11
I7
tp2107
a(I14
I10
I7
tp2108
a(I14
I9
I7
tp2109
a(I14
I8
I7
tp2110
a(I14
I7
I7
tp2111
a(I14
I6
I7
tp2112
a(I14
I5
I7
tp2113
a(I14
I4
I7
tp2114
a(I14
I3
I7
tp2115
a(I14
I2
I7
tp2116
a(I14
I1
I7
tp2117
a(I14
I0
I7
tp2118
a(I14
I0
I6
tp2119
a(I14
I0
I5
tp2120
a(I14
I0
I4
tp2121
a(I14
I0
I3
tp2122
a(I14
I0
I2
tp2123
a(I14
I1
I2
tp2124
a(I14
I1
I1
tp2125
a(I14
I1
I0
tp2126
a(I15
I1
I0
tp2127
asg229
I3
sg230
I17
sbag2095
ag2095
ag2095
ag2095
ag2095
ag1958
ag484
ag2095
ag2095
ag2095
ag2001
aI0
aI0
aI0
ag2095
ag1958
aI0
ag32
ag0
(g180
g2
Ntp2128
Rp2129
(dp2130
g184
I25
sg185
(lp2131
(I16
I7
I0
tp2132
a(I16
I7
I1
tp2133
a(I16
I7
I2
tp2134
a(I16
I7
I3
tp2135
a(I15
I7
I3
tp2136
a(I15
I6
I3
tp2137
a(I15
I5
I3
tp2138
a(I15
I4
I3
tp2139
a(I15
I3
I3
tp2140
a(I15
I2
I3
tp2141
a(I15
I2
I2
tp2142
a(I15
I2
I1
tp2143
a(I14
I2
I1
tp2144
a(I14
I2
I0
tp2145
asg229
I6
sg230
I9
sbag2020
aI0
aI0
aI0
aI0
ag2095
ag1958
ag1042
ag1863
ag1863
ag2020
aI0
aI0
aI0
ag2065
ag2095
aI0
ag728
ag2036
ag1863
ag1863
ag1863
ag1863
aI0
aI0
ag2095
aI0
ag1608
ag2036
aI0
ag1819
aI0
ag1863
aI0
aI0
ag2095
aI0
aI0
aI0
aI0
ag1819
ag378
ag378
ag378
aI0
ag2095
aI0
ag838
aI0
aI0
ag378
ag378
ag232
ag232
ag232
ag2095
aI0
aI0
ag232
ag232
ag232
ag232
ag232
ag1746
aI0
ag2095
aI0
aI0
aI0
aI0
aI0
aI0
ag1834
aI0
aI0
ag2095
ag1508
aI0
aI0
aI0
aI0
aI0
aI0
ag1543
aI0
ag2095
aI0
ag884
aI0
aI0
aI0
aI0
aI0
aI0
aI0
ag2095
ag1412
aI0
ag2095
ag2095
ag2095
ag2095
ag2095
ag2095
ag2095
ag2095
ag1412
aI0
aI0
aI0
ag1889
aI0
aI0
aI0
aI0
aI0
ag426
aI0
aI0
aI0
aI0
aI0
aI0
aI0
ag1958
ag1958
ag1543
aI0
aI0
aI0
aI0
aI0
aI0
aI0
aI0
aI0
aI0
aI0
aI0
aI0
aI0
ag1905
aI0
aI0
aI0
aI0
aI0
aI0
ag484
ag484
ag484
ag484
ag484
ag484
ag484
ag484
ag484
ag484
ag23
ag2001
ag2001
ag2001
aI0
aI0
aI0
aI0
aI0
aI0
ag0
(g180
g2
Ntp2146
Rp2147
(dp2148
g184
I3
sg185
(lp2149
(I15
I1
I0
tp2150
a(I15
I2
I0
tp2151
a(I15
I3
I0
tp2152
asg229
I10
sg230
I2
sbag2129
ag2129
ag2129
aI0
aI0
aI0
aI0
ag1958
ag1042
ag44
ag728
ag2020
ag2129
aI0
aI0
ag2065
aI0
ag1958
ag728
ag2036
aI0
aI0
ag2129
aI0
aI0
ag2065
aI0
ag1958
ag1608
aI0
aI0
aI0
ag2129
aI0
aI0
ag2065
aI0
ag1958
aI0
ag80
ag1819
ag1819
ag2129
aI0
aI0
ag2065
aI0
ag1958
ag838
ag378
ag378
ag378
ag2129
aI0
aI0
ag2065
aI0
ag1958
aI0
ag104
ag1746
ag1746
ag1746
ag1746
ag1746
ag2065
ag1958
ag1958
aI0
aI0
aI0
aI0
aI0
ag1834
aI0
ag2065
ag1958
ag1508
aI0
aI0
aI0
aI0
aI0
aI0
ag1543
ag2065
ag1958
aI0
ag884
ag426
ag426
ag426
ag426
ag426
ag426
ag2065
ag1958
ag1412
ag884
ag131
ag2065
ag2065
ag2065
ag2065
ag2065
ag2065
ag1958
aI0
ag884
ag1889
ag1889
ag1889
aI0
aI0
aI0
aI0
ag1958
ag426
aI0
aI0
aI0
aI0
aI0
aI0
aI0
aI0
ag1958
ag1543
aI0
aI0
aI0
aI0
aI0
aI0
aI0
aI0
aI0
aI0
aI0
aI0
aI0
aI0
ag1905
aI0
aI0
aI0
aI0
aI0
aI0
aI0
aI0
aI0
aI0
aI0
aI0
aI0
aI0
aI0
aI0
ag1042
ag1042
ag1042
ag1042
ag1042
ag1042
ag1042
ag1042
ag1042
ag1042
aI0
aI0
aI0
aI0
aI0
aI0
aI0
aI0
aI0
ag1042
aI0
ag728
ag2020
aI0
aI0
aI0
aI0
aI0
aI0
ag728
aI0
aI0
ag2020
aI0
aI0
aI0
aI0
aI0
aI0
ag1608
ag65
ag2020
ag2020
aI0
aI0
aI0
aI0
aI0
ag838
ag838
ag0
(g180
g2
Ntp2153
Rp2154
(dp2155
g184
I25
sg185
(lp2156
(I16
I7
I0
tp2157
a(I16
I6
I0
tp2158
a(I16
I5
I0
tp2159
asg229
I17
sg230
I23
sbaI0
aI0
aI0
aI0
aI0
aI0
aI0
aI0
ag838
ag89
ag2129
ag2129
ag2129
aI0
aI0
aI0
aI0
aI0
aI0
ag1412
ag1412
ag1412
ag1412
ag1412
ag1412
ag1412
ag1412
aI0
aI0
aI0
aI0
aI0
aI0
ag1834
aI0
aI0
ag1412
ag1508
aI0
aI0
aI0
aI0
aI0
aI0
ag1543
aI0
ag1412
ag1412
aI0
aI0
aI0
aI0
aI0
aI0
ag426
aI0
aI0
ag1412
aI0
ag884
ag884
ag884
ag884
ag884
ag884
ag884
ag884
ag884
ag884
aI0
aI0
aI0
aI0
aI0
aI0
aI0
ag426
ag426
aI0
aI0
aI0
aI0
aI0
aI0
aI0
aI0
aI0
ag1543
aI0
ag161
ag1608
ag1608
ag1608
ag1608
ag1608
aI0
aI0
aI0
aI0
ag1905
ag1905
ag1905
ag1905
aI0
aI0
aI0
aI0
aI0
aI0
aI0
aI0
aI0
aI0
aI0
aI0
aI0
aI0
aI0
aI0
aI0
aI0
aI0
aI0
aI0
aI0
aI0
aI0
aI0
aI0
aI0
aI0
aI0
aI0
aI0
aI0
aI0
aI0
aI0
aI0
aI0
ag728
ag728
ag728
ag728
ag728
ag728
ag728
ag728
ag728
aI0
aI0
aI0
aI0
aI0
aI0
aI0
aI0
aI0
ag1608
ag838
ag838
ag838
ag838
ag838
ag838
ag838
ag838
ag838
ag1608
aI0
aI0
aI0
aI0
aI0
aI0
aI0
aI0
aI0
ag1608
ag1508
ag1508
ag1508
ag1508
ag1508
ag1508
ag1508
ag1508
ag1508
ag1608
aI0
aI0
aI0
aI0
aI0
aI0
aI0
aI0
ag1508
ag1608
aI0
aI0
aI0
aI0
ag1834
aI0
aI0
aI0
ag1508
ag1608
aI0
aI0
aI0
aI0
ag1834
ag1543
ag1543
ag1543
aI0
ag1608
aI0
aI0
aI0
aI0
ag1834
ag426
ag426
ag1543
ag1543
ag1608
aI0
aI0
aI0
aI0
ag1834
aI0
ag426
ag426
ag1543
ag1608
aI0
aI0
aI0
aI0
ag1834
aI0
aI0
ag426
ag1543
ag1608
aI0
aI0
aI0
aI0
ag1834
aI0
aI0
aI0
ag1543
ag1608
ag1834
ag1834
ag1834
ag1834
ag1834
ag1608
ag1608
ag1608
ag1608
ag1608
aI0
aI0
aI0
aI0
aI0
aI0
aI0
aI0
aI0
aI0
atp2160
bsS'x_dim'
p2161
I18
sS'nets'
p2162
(dp2163
I0
g2001
sI1
g484
sI2
g2147
sI3
g2020
sI4
g1608
sI5
g1730
sI6
g603
sI7
g1149
sI8
g581
sI9
g2129
sI10
g838
sI11
g1042
sI12
g1719
sI13
g1746
sI14
g2065
sI15
g1680
sI16
g641
sI17
g2095
sI18
g2055
sI19
g1889
sI20
g1863
sI21
g523
sI22
g2036
sI23
g2154
sI24
g769
sI25
g1385
sI26
g1274
sI27
g1227
sI28
g1487
sI29
g728
sI30
g787
sI31
g1167
sI32
g1206
sI33
g1819
sI34
g1781
sI35
g1508
sI36
g1905
sI37
g2047
sI38
g1254
sI39
g232
sI40
g1298
sI41
g182
sI42
g1352
sI43
g1927
sI44
g559
sI45
g1834
sI46
g1652
sI47
g1772
sI48
g1123
sI49
g1000
sI50
g1314
sI51
g1082
sI52
g884
sI53
g971
sI54
g1688
sI55
g1596
sI56
g274
sI57
g1412
sI58
g319
sI59
g1958
sI60
g1543
sI61
g1453
sI62
g378
sI63
g353
sI64
g930
sI65
g681
sI66
g819
sI67
g1588
sI68
g1033
sI69
g426
ssb.