ccopy_reg
_reconstructor
p0
(cmodules.Objects
Board
p1
c__builtin__
object
p2
Ntp3
Rp4
(dp5
S'gates'
p6
(dp7
I0
(I1
I1
I0
tp8
sI1
(I6
I1
I0
tp9
sI2
(I10
I1
I0
tp10
sI3
(I15
I1
I0
tp11
sI4
(I3
I2
I0
tp12
sI5
(I12
I2
I0
tp13
sI6
(I14
I2
I0
tp14
sI7
(I12
I3
I0
tp15
sI8
(I8
I4
I0
tp16
sI9
(I1
I5
I0
tp17
sI10
(I4
I5
I0
tp18
sI11
(I11
I5
I0
tp19
sI12
(I16
I5
I0
tp20
sI13
(I13
I7
I0
tp21
sI14
(I16
I7
I0
tp22
sI15
(I2
I8
I0
tp23
sI16
(I6
I8
I0
tp24
sI17
(I9
I8
I0
tp25
sI18
(I11
I8
I0
tp26
sI19
(I15
I8
I0
tp27
sI20
(I1
I9
I0
tp28
sI21
(I2
I10
I0
tp29
sI22
(I9
I10
I0
tp30
sI23
(I1
I11
I0
tp31
sI24
(I12
I11
I0
tp32
ssS'y_dim'
p33
I13
sS'z_dim'
p34
I6
sS'board'
p35
cnumpy.core.multiarray
_reconstruct
p36
(cnumpy
ndarray
p37
(I0
tp38
S'b'
p39
tp40
Rp41
(I1
(I18
I13
I6
tp42
cnumpy
dtype
p43
(S'O8'
p44
I0
I1
tp45
Rp46
(I3
S'|'
p47
NNNI-1
I-1
I63
tp48
bI00
(lp49
I0
aI0
aI0
aI0
ag0
(cmodules.Objects
Net
p50
g2
Ntp51
Rp52
(dp53
S'start_gate'
p54
g10
sS'path'
p55
(lp56
(I10
I1
I0
tp57
a(I10
I0
I0
tp58
a(I10
I0
I1
tp59
a(I10
I0
I2
tp60
a(I10
I0
I3
tp61
a(I9
I0
I3
tp62
a(I8
I0
I3
tp63
a(I7
I0
I3
tp64
a(I7
I0
I4
tp65
a(I6
I0
I4
tp66
a(I5
I0
I4
tp67
a(I4
I0
I4
tp68
a(I3
I0
I4
tp69
a(I2
I0
I4
tp70
a(I1
I0
I4
tp71
a(I0
I0
I4
tp72
a(I0
I1
I4
tp73
a(I0
I2
I4
tp74
a(I0
I3
I4
tp75
a(I0
I4
I4
tp76
a(I0
I5
I4
tp77
a(I0
I6
I4
tp78
a(I0
I7
I4
tp79
a(I0
I8
I4
tp80
a(I0
I9
I4
tp81
a(I0
I9
I3
tp82
a(I0
I9
I2
tp83
a(I0
I9
I1
tp84
a(I0
I9
I0
tp85
ag28
asS'end_gate'
p86
g28
sS'net_id'
p87
I18
sbag0
(g50
g2
Ntp88
Rp89
(dp90
g54
g11
sg55
(lp91
(I15
I1
I0
tp92
a(I15
I1
I1
tp93
a(I15
I1
I2
tp94
a(I15
I1
I3
tp95
a(I15
I1
I4
tp96
a(I15
I1
I5
tp97
a(I15
I0
I5
tp98
a(I14
I0
I5
tp99
a(I13
I0
I5
tp100
a(I12
I0
I5
tp101
a(I11
I0
I5
tp102
a(I10
I0
I5
tp103
a(I9
I0
I5
tp104
a(I8
I0
I5
tp105
a(I7
I0
I5
tp106
a(I6
I0
I5
tp107
a(I5
I0
I5
tp108
a(I4
I0
I5
tp109
a(I3
I0
I5
tp110
a(I2
I0
I5
tp111
a(I1
I0
I5
tp112
a(I0
I0
I5
tp113
a(I0
I1
I5
tp114
a(I0
I2
I5
tp115
a(I0
I3
I5
tp116
a(I0
I4
I5
tp117
a(I0
I5
I5
tp118
a(I0
I6
I5
tp119
a(I0
I7
I5
tp120
a(I0
I8
I5
tp121
a(I0
I9
I5
tp122
a(I0
I10
I5
tp123
a(I0
I11
I5
tp124
a(I0
I11
I4
tp125
a(I0
I11
I3
tp126
a(I0
I11
I2
tp127
a(I0
I11
I1
tp128
a(I0
I11
I0
tp129
ag31
asg86
g31
sg87
I6
sbaI0
aI0
aI0
aI0
ag52
ag89
aI0
aI0
aI0
aI0
ag52
ag89
aI0
aI0
aI0
aI0
ag52
ag89
aI0
aI0
aI0
ag0
(g50
g2
Ntp130
Rp131
(dp132
g54
g23
sg55
(lp133
(I2
I8
I0
tp134
a(I1
I8
I0
tp135
a(I1
I8
I1
tp136
a(I1
I8
I2
tp137
a(I0
I8
I2
tp138
a(I0
I8
I3
tp139
a(I0
I7
I3
tp140
a(I0
I6
I3
tp141
a(I0
I5
I3
tp142
a(I0
I4
I3
tp143
a(I1
I4
I3
tp144
a(I2
I4
I3
tp145
a(I3
I4
I3
tp146
a(I4
I4
I3
tp147
a(I5
I4
I3
tp148
a(I6
I4
I3
tp149
a(I6
I3
I3
tp150
a(I6
I2
I3
tp151
a(I7
I2
I3
tp152
a(I8
I2
I3
tp153
a(I9
I2
I3
tp154
a(I10
I2
I3
tp155
a(I11
I2
I3
tp156
a(I11
I2
I2
tp157
a(I11
I2
I1
tp158
a(I11
I2
I0
tp159
ag13
asg86
g13
sg87
I24
sbag52
ag89
aI0
aI0
aI0
ag131
ag52
ag89
aI0
aI0
aI0
ag131
ag52
ag89
aI0
aI0
aI0
ag131
ag52
ag89
aI0
aI0
ag131
ag131
ag52
ag89
ag52
ag52
ag52
ag52
ag52
ag89
aI0
aI0
aI0
aI0
aI0
ag89
ag89
ag89
ag89
ag89
ag89
ag89
aI0
aI0
aI0
aI0
aI0
aI0
aI0
aI0
aI0
aI0
ag52
ag89
ag0
(cmodules.Objects
Gate
p160
g2
Ntp161
Rp162
(dp163
S'gate_id'
p164
I0
sS'x'
p165
I1
sS'z'
p166
I0
sS'y'
p167
I1
sbag0
(g50
g2
Ntp168
Rp169
(dp170
g54
g11
sg55
(lp171
(I15
I1
I0
tp172
a(I16
I1
I0
tp173
a(I16
I1
I1
tp174
a(I16
I1
I2
tp175
a(I16
I1
I3
tp176
a(I16
I1
I4
tp177
a(I16
I1
I5
tp178
a(I16
I2
I5
tp179
a(I16
I3
I5
tp180
a(I15
I3
I5
tp181
a(I14
I3
I5
tp182
a(I13
I3
I5
tp183
a(I12
I3
I5
tp184
a(I11
I3
I5
tp185
a(I11
I3
I4
tp186
a(I10
I3
I4
tp187
a(I9
I3
I4
tp188
a(I8
I3
I4
tp189
a(I7
I3
I4
tp190
a(I6
I3
I4
tp191
a(I5
I3
I4
tp192
a(I4
I3
I4
tp193
a(I3
I3
I4
tp194
a(I2
I3
I4
tp195
a(I1
I3
I4
tp196
a(I1
I2
I4
tp197
a(I1
I1
I4
tp198
a(I1
I1
I3
tp199
a(I1
I1
I2
tp200
a(I1
I1
I1
tp201
ag8
asg86
g8
sg87
I23
sbag169
ag169
ag169
aI0
aI0
aI0
aI0
aI0
ag169
aI0
aI0
aI0
ag0
(g50
g2
Ntp202
Rp203
(dp204
g54
g15
sg55
(lp205
(I12
I3
I0
tp206
a(I12
I3
I1
tp207
a(I12
I3
I2
tp208
a(I11
I3
I2
tp209
a(I10
I3
I2
tp210
a(I9
I3
I2
tp211
a(I8
I3
I2
tp212
a(I7
I3
I2
tp213
a(I6
I3
I2
tp214
a(I5
I3
I2
tp215
a(I4
I3
I2
tp216
a(I3
I3
I2
tp217
a(I2
I3
I2
tp218
a(I1
I3
I2
tp219
a(I1
I4
I2
tp220
a(I1
I4
I1
tp221
a(I1
I4
I0
tp222
ag17
asg86
g17
sg87
I26
sbaI0
ag169
aI0
ag203
ag203
ag203
ag131
aI0
aI0
ag0
(g160
g2
Ntp223
Rp224
(dp225
g164
I9
sg165
I1
sg166
I0
sg167
I5
sbag0
(g50
g2
Ntp226
Rp227
(dp228
g54
g24
sg55
(lp229
(I6
I8
I0
tp230
a(I6
I8
I1
tp231
a(I6
I8
I2
tp232
a(I6
I7
I2
tp233
a(I5
I7
I2
tp234
a(I4
I7
I2
tp235
a(I3
I7
I2
tp236
a(I3
I6
I2
tp237
a(I3
I5
I2
tp238
a(I2
I5
I2
tp239
a(I1
I5
I2
tp240
a(I1
I5
I1
tp241
ag17
asg86
g17
sg87
I21
sbag227
aI0
aI0
aI0
ag0
(g50
g2
Ntp242
Rp243
(dp244
g54
g17
sg55
(lp245
(I1
I5
I0
tp246
a(I1
I6
I0
tp247
a(I1
I6
I1
tp248
a(I2
I6
I1
tp249
a(I3
I6
I1
tp250
a(I4
I6
I1
tp251
a(I4
I6
I2
tp252
a(I5
I6
I2
tp253
a(I5
I6
I3
tp254
a(I6
I6
I3
tp255
a(I7
I6
I3
tp256
a(I8
I6
I3
tp257
a(I8
I6
I4
tp258
a(I9
I6
I4
tp259
a(I9
I7
I4
tp260
a(I10
I7
I4
tp261
a(I11
I7
I4
tp262
a(I12
I7
I4
tp263
a(I13
I7
I4
tp264
a(I14
I7
I4
tp265
a(I14
I7
I3
tp266
a(I14
I7
I2
tp267
a(I14
I7
I1
tp268
a(I14
I7
I0
tp269
ag21
asg86
g21
sg87
I27
sbag243
aI0
ag0
(g50
g2
Ntp270
Rp271
(dp272
g54
g28
sg55
(lp273
(I1
I9
I0
tp274
a(I1
I9
I1
tp275
a(I1
I9
I2
tp276
a(I1
I9
I3
tp277
a(I1
I8
I3
tp278
a(I1
I7
I3
tp279
a(I1
I6
I3
tp280
a(I2
I6
I3
tp281
a(I3
I6
I3
tp282
a(I4
I6
I3
tp283
a(I4
I5
I3
tp284
a(I4
I5
I2
tp285
a(I4
I5
I1
tp286
ag18
asg86
g18
sg87
I10
sbaI0
aI0
aI0
aI0
aI0
ag271
aI0
aI0
ag131
ag131
ag131
ag271
aI0
aI0
ag0
(g160
g2
Ntp287
Rp288
(dp289
g164
I20
sg165
I1
sg166
I0
sg167
I9
sbag271
ag271
ag271
aI0
aI0
ag0
(g50
g2
Ntp290
Rp291
(dp292
g54
g28
sg55
(lp293
(I1
I9
I0
tp294
a(I1
I10
I0
tp295
a(I1
I10
I1
tp296
a(I1
I10
I2
tp297
a(I1
I10
I3
tp298
a(I1
I10
I4
tp299
a(I2
I10
I4
tp300
a(I3
I10
I4
tp301
a(I4
I10
I4
tp302
a(I5
I10
I4
tp303
a(I6
I10
I4
tp304
a(I7
I10
I4
tp305
a(I8
I10
I4
tp306
a(I9
I10
I4
tp307
a(I9
I10
I5
tp308
a(I10
I10
I5
tp309
a(I11
I10
I5
tp310
a(I12
I10
I5
tp311
a(I13
I10
I5
tp312
a(I14
I10
I5
tp313
a(I15
I10
I5
tp314
a(I15
I9
I5
tp315
a(I15
I9
I4
tp316
a(I15
I9
I3
tp317
a(I15
I9
I2
tp318
a(I15
I9
I1
tp319
a(I15
I9
I0
tp320
ag27
asg86
g27
sg87
I20
sbag291
ag291
ag291
ag291
aI0
ag0
(g160
g2
Ntp321
Rp322
(dp323
g164
I23
sg165
I1
sg166
I0
sg167
I11
sbag0
(g50
g2
Ntp324
Rp325
(dp326
g54
g31
sg55
(lp327
(I1
I11
I0
tp328
a(I1
I11
I1
tp329
a(I1
I11
I2
tp330
a(I1
I11
I3
tp331
a(I1
I11
I4
tp332
a(I1
I11
I5
tp333
a(I2
I11
I5
tp334
a(I3
I11
I5
tp335
a(I3
I10
I5
tp336
a(I3
I9
I5
tp337
a(I3
I8
I5
tp338
a(I3
I7
I5
tp339
a(I3
I6
I5
tp340
a(I3
I5
I5
tp341
a(I3
I4
I5
tp342
a(I3
I3
I5
tp343
a(I3
I2
I5
tp344
a(I3
I2
I4
tp345
a(I3
I2
I3
tp346
a(I3
I2
I2
tp347
a(I3
I2
I1
tp348
ag12
asg86
g12
sg87
I0
sbag325
ag325
ag325
ag325
ag0
(g50
g2
Ntp349
Rp350
(dp351
g54
g31
sg55
(lp352
(I1
I11
I0
tp353
a(I1
I12
I0
tp354
a(I1
I12
I1
tp355
a(I1
I12
I2
tp356
a(I1
I12
I3
tp357
a(I1
I12
I4
tp358
a(I1
I12
I5
tp359
a(I2
I12
I5
tp360
a(I3
I12
I5
tp361
a(I4
I12
I5
tp362
a(I5
I12
I5
tp363
a(I6
I12
I5
tp364
a(I7
I12
I5
tp365
a(I8
I12
I5
tp366
a(I8
I11
I5
tp367
a(I8
I10
I5
tp368
a(I8
I9
I5
tp369
a(I8
I8
I5
tp370
a(I8
I7
I5
tp371
a(I8
I6
I5
tp372
a(I8
I5
I5
tp373
a(I8
I4
I5
tp374
a(I8
I4
I4
tp375
a(I8
I4
I3
tp376
a(I8
I4
I2
tp377
a(I8
I4
I1
tp378
ag16
asg86
g16
sg87
I7
sbag350
ag350
ag350
ag350
ag350
aI0
aI0
aI0
aI0
ag52
ag89
ag0
(g50
g2
Ntp379
Rp380
(dp381
g54
g9
sg55
(lp382
(I6
I1
I0
tp383
a(I5
I1
I0
tp384
a(I4
I1
I0
tp385
a(I3
I1
I0
tp386
a(I2
I1
I0
tp387
ag8
asg86
g8
sg87
I2
sbaI0
aI0
aI0
aI0
aI0
aI0
aI0
aI0
aI0
aI0
aI0
aI0
aI0
ag203
aI0
ag169
aI0
aI0
aI0
aI0
ag131
aI0
aI0
aI0
aI0
ag227
aI0
aI0
aI0
aI0
ag243
aI0
ag271
aI0
aI0
ag0
(g50
g2
Ntp388
Rp389
(dp390
g54
g23
sg55
(lp391
(I2
I8
I0
tp392
a(I2
I7
I0
tp393
a(I2
I7
I1
tp394
a(I2
I7
I2
tp395
a(I2
I7
I3
tp396
a(I2
I7
I4
tp397
a(I3
I7
I4
tp398
a(I4
I7
I4
tp399
a(I5
I7
I4
tp400
a(I6
I7
I4
tp401
a(I7
I7
I4
tp402
a(I7
I6
I4
tp403
a(I7
I5
I4
tp404
a(I7
I4
I4
tp405
a(I7
I4
I3
tp406
a(I7
I4
I2
tp407
a(I7
I4
I1
tp408
a(I7
I4
I0
tp409
ag16
asg86
g16
sg87
I11
sbag389
ag389
ag389
ag389
aI0
ag0
(g160
g2
Ntp410
Rp411
(dp412
g164
I15
sg165
I2
sg166
I0
sg167
I8
sbag0
(g50
g2
Ntp413
Rp414
(dp415
g54
g23
sg55
(lp416
(I2
I8
I0
tp417
a(I2
I8
I1
tp418
a(I2
I8
I2
tp419
a(I2
I8
I3
tp420
a(I3
I8
I3
tp421
a(I4
I8
I3
tp422
a(I5
I8
I3
tp423
a(I6
I8
I3
tp424
a(I7
I8
I3
tp425
a(I8
I8
I3
tp426
a(I9
I8
I3
tp427
a(I9
I8
I2
tp428
a(I9
I8
I1
tp429
ag25
asg86
g25
sg87
I9
sbag414
ag414
aI0
aI0
ag0
(g50
g2
Ntp430
Rp431
(dp432
g54
g23
sg55
(lp433
(I2
I8
I0
tp434
a(I2
I9
I0
tp435
ag29
asg86
g29
sg87
I3
sbaI0
aI0
aI0
aI0
aI0
ag0
(g160
g2
Ntp436
Rp437
(dp438
g164
I21
sg165
I2
sg166
I0
sg167
I10
sbaI0
aI0
aI0
ag291
aI0
aI0
aI0
aI0
aI0
aI0
ag325
aI0
aI0
aI0
aI0
aI0
ag350
aI0
aI0
aI0
aI0
ag52
ag89
ag380
aI0
aI0
aI0
aI0
aI0
ag0
(g160
g2
Ntp439
Rp440
(dp441
g164
I4
sg165
I3
sg166
I0
sg167
I2
sbag325
ag325
ag325
ag325
ag325
ag0
(g50
g2
Ntp442
Rp443
(dp444
g54
g18
sg55
(lp445
(I4
I5
I0
tp446
a(I3
I5
I0
tp447
a(I3
I4
I0
tp448
a(I3
I3
I0
tp449
ag12
asg86
g12
sg87
I15
sbaI0
ag203
aI0
ag169
ag325
ag443
aI0
aI0
ag131
aI0
ag325
ag443
aI0
ag227
aI0
aI0
ag325
aI0
ag243
ag227
ag271
aI0
ag325
aI0
aI0
ag227
aI0
ag389
ag325
ag0
(g50
g2
Ntp450
Rp451
(dp452
g54
g11
sg55
(lp453
(I15
I1
I0
tp454
a(I15
I0
I0
tp455
a(I15
I0
I1
tp456
a(I15
I0
I2
tp457
a(I15
I0
I3
tp458
a(I15
I0
I4
tp459
a(I14
I0
I4
tp460
a(I13
I0
I4
tp461
a(I12
I0
I4
tp462
a(I11
I0
I4
tp463
a(I10
I0
I4
tp464
a(I9
I0
I4
tp465
a(I8
I0
I4
tp466
a(I8
I1
I4
tp467
a(I8
I1
I5
tp468
a(I8
I2
I5
tp469
a(I7
I2
I5
tp470
a(I6
I2
I5
tp471
a(I5
I2
I5
tp472
a(I5
I3
I5
tp473
a(I5
I4
I5
tp474
a(I5
I5
I5
tp475
a(I5
I6
I5
tp476
a(I5
I7
I5
tp477
a(I5
I8
I5
tp478
a(I5
I9
I5
tp479
a(I4
I9
I5
tp480
a(I4
I9
I4
tp481
a(I3
I9
I4
tp482
a(I3
I9
I3
tp483
a(I3
I9
I2
tp484
a(I3
I8
I2
tp485
a(I3
I8
I1
tp486
a(I3
I8
I0
tp487
ag23
asg86
g23
sg87
I17
sbag451
ag451
ag414
aI0
ag325
aI0
aI0
ag451
ag451
ag451
ag325
aI0
aI0
aI0
aI0
ag291
ag325
aI0
aI0
aI0
aI0
aI0
ag325
aI0
aI0
aI0
aI0
aI0
ag350
aI0
aI0
aI0
aI0
ag52
ag89
ag380
aI0
aI0
aI0
aI0
aI0
ag0
(g50
g2
Ntp488
Rp489
(dp490
g54
g11
sg55
(lp491
(I15
I1
I0
tp492
a(I15
I2
I0
tp493
a(I15
I2
I1
tp494
a(I15
I2
I2
tp495
a(I15
I2
I3
tp496
a(I15
I2
I4
tp497
a(I14
I2
I4
tp498
a(I13
I2
I4
tp499
a(I12
I2
I4
tp500
a(I11
I2
I4
tp501
a(I10
I2
I4
tp502
a(I9
I2
I4
tp503
a(I8
I2
I4
tp504
a(I7
I2
I4
tp505
a(I6
I2
I4
tp506
a(I5
I2
I4
tp507
a(I4
I2
I4
tp508
a(I4
I2
I3
tp509
a(I4
I2
I2
tp510
a(I4
I2
I1
tp511
a(I4
I2
I0
tp512
ag12
asg86
g12
sg87
I19
sbag489
ag489
ag489
ag489
aI0
aI0
aI0
ag203
aI0
ag169
aI0
aI0
aI0
aI0
ag131
aI0
aI0
ag0
(g160
g2
Ntp513
Rp514
(dp515
g164
I10
sg165
I4
sg166
I0
sg167
I5
sbag271
ag271
ag271
aI0
aI0
aI0
ag243
ag243
ag271
aI0
aI0
aI0
aI0
ag227
aI0
ag389
aI0
aI0
aI0
aI0
ag414
aI0
aI0
aI0
aI0
aI0
aI0
ag451
ag451
aI0
aI0
aI0
aI0
ag291
aI0
aI0
aI0
aI0
aI0
aI0
aI0
aI0
aI0
aI0
aI0
aI0
ag350
aI0
aI0
aI0
aI0
ag52
ag89
ag380
aI0
aI0
aI0
aI0
aI0
aI0
aI0
aI0
aI0
ag489
ag451
aI0
aI0
ag203
aI0
ag169
ag451
aI0
aI0
aI0
ag131
aI0
ag451
ag0
(g50
g2
Ntp516
Rp517
(dp518
g54
g18
sg55
(lp519
(I4
I5
I0
tp520
a(I5
I5
I0
tp521
a(I5
I5
I1
tp522
a(I5
I5
I2
tp523
a(I6
I5
I2
tp524
a(I7
I5
I2
tp525
a(I8
I5
I2
tp526
a(I9
I5
I2
tp527
a(I10
I5
I2
tp528
a(I10
I4
I2
tp529
a(I11
I4
I2
tp530
a(I12
I4
I2
tp531
a(I12
I4
I1
tp532
a(I12
I4
I0
tp533
ag15
asg86
g15
sg87
I29
sbag517
ag517
aI0
aI0
ag451
aI0
aI0
ag243
ag243
aI0
ag451
aI0
aI0
ag227
aI0
ag389
ag451
aI0
aI0
aI0
ag414
aI0
ag451
aI0
aI0
aI0
aI0
aI0
ag451
aI0
aI0
aI0
aI0
ag291
aI0
aI0
aI0
aI0
aI0
aI0
aI0
aI0
aI0
aI0
aI0
aI0
ag350
aI0
aI0
aI0
aI0
ag52
ag89
ag0
(g160
g2
Ntp534
Rp535
(dp536
g164
I1
sg165
I6
sg166
I0
sg167
I1
sbaI0
aI0
aI0
aI0
aI0
aI0
aI0
aI0
ag131
ag489
ag451
aI0
aI0
ag203
ag131
ag169
aI0
aI0
aI0
aI0
ag131
aI0
aI0
aI0
aI0
ag517
aI0
aI0
aI0
aI0
aI0
aI0
ag243
aI0
aI0
aI0
aI0
ag227
aI0
ag389
aI0
ag0
(g160
g2
Ntp537
Rp538
(dp539
g164
I16
sg165
I6
sg166
I0
sg167
I8
sbag227
ag227
ag414
aI0
aI0
ag0
(g50
g2
Ntp540
Rp541
(dp542
g54
g30
sg55
(lp543
(I9
I10
I0
tp544
a(I8
I10
I0
tp545
a(I7
I10
I0
tp546
a(I6
I10
I0
tp547
a(I6
I9
I0
tp548
ag24
asg86
g24
sg87
I28
sbaI0
aI0
aI0
aI0
aI0
ag541
aI0
aI0
aI0
ag291
aI0
aI0
aI0
aI0
aI0
aI0
aI0
aI0
aI0
aI0
aI0
aI0
ag350
aI0
aI0
aI0
ag52
ag52
ag89
aI0
aI0
aI0
aI0
aI0
aI0
aI0
aI0
aI0
ag131
ag489
ag451
aI0
aI0
ag203
aI0
ag169
aI0
ag389
ag389
ag389
ag389
ag389
aI0
aI0
aI0
ag517
aI0
ag389
aI0
aI0
aI0
aI0
ag243
ag389
aI0
aI0
aI0
aI0
aI0
ag389
aI0
aI0
aI0
aI0
ag414
aI0
aI0
aI0
aI0
aI0
aI0
aI0
aI0
ag541
aI0
aI0
aI0
ag291
aI0
aI0
aI0
aI0
aI0
aI0
aI0
aI0
aI0
aI0
aI0
aI0
ag350
aI0
aI0
aI0
ag52
ag451
ag89
aI0
aI0
aI0
aI0
ag451
ag451
aI0
aI0
aI0
ag131
ag489
ag451
aI0
aI0
ag203
aI0
ag169
aI0
ag0
(g160
g2
Ntp549
Rp550
(dp551
g164
I8
sg165
I8
sg166
I0
sg167
I4
sbag350
ag350
ag350
ag350
ag350
aI0
aI0
ag517
aI0
aI0
ag350
aI0
aI0
aI0
ag243
ag243
ag350
aI0
aI0
aI0
aI0
aI0
ag350
aI0
aI0
aI0
ag414
aI0
ag350
aI0
aI0
aI0
aI0
aI0
ag350
ag541
aI0
aI0
aI0
ag291
ag350
aI0
aI0
aI0
aI0
aI0
ag350
aI0
aI0
aI0
aI0
aI0
ag350
aI0
aI0
aI0
ag52
ag451
ag89
aI0
aI0
aI0
aI0
aI0
aI0
aI0
aI0
aI0
ag131
ag489
aI0
aI0
aI0
ag203
aI0
ag169
aI0
aI0
aI0
aI0
aI0
aI0
aI0
aI0
aI0
ag517
aI0
aI0
aI0
aI0
aI0
aI0
aI0
ag243
aI0
aI0
aI0
aI0
aI0
ag243
aI0
ag0
(g160
g2
Ntp552
Rp553
(dp554
g164
I17
sg165
I9
sg166
I0
sg167
I8
sbag414
ag414
ag414
aI0
aI0
aI0
aI0
aI0
aI0
aI0
aI0
ag0
(g160
g2
Ntp555
Rp556
(dp557
g164
I22
sg165
I9
sg166
I0
sg167
I10
sbag0
(g50
g2
Ntp558
Rp559
(dp560
g54
g30
sg55
(lp561
(I9
I10
I0
tp562
a(I9
I10
I1
tp563
a(I9
I10
I2
tp564
a(I9
I10
I3
tp565
a(I10
I10
I3
tp566
a(I11
I10
I3
tp567
a(I12
I10
I3
tp568
a(I13
I10
I3
tp569
a(I13
I9
I3
tp570
a(I13
I8
I3
tp571
a(I13
I7
I3
tp572
a(I13
I7
I2
tp573
a(I13
I7
I1
tp574
ag21
asg86
g21
sg87
I8
sbag559
ag559
ag291
ag291
aI0
aI0
aI0
aI0
aI0
aI0
aI0
aI0
aI0
aI0
aI0
aI0
ag52
ag52
ag52
ag52
ag451
ag89
ag0
(g160
g2
Ntp575
Rp576
(dp577
g164
I2
sg165
I10
sg166
I0
sg167
I1
sbag0
(g50
g2
Ntp578
Rp579
(dp580
g54
g27
sg55
(lp581
(I15
I8
I0
tp582
a(I15
I8
I1
tp583
a(I15
I8
I2
tp584
a(I15
I8
I3
tp585
a(I15
I8
I4
tp586
a(I15
I8
I5
tp587
a(I14
I8
I5
tp588
a(I13
I8
I5
tp589
a(I12
I8
I5
tp590
a(I11
I8
I5
tp591
a(I10
I8
I5
tp592
a(I10
I7
I5
tp593
a(I10
I6
I5
tp594
a(I10
I5
I5
tp595
a(I10
I4
I5
tp596
a(I10
I3
I5
tp597
a(I10
I2
I5
tp598
a(I10
I1
I5
tp599
a(I10
I1
I4
tp600
a(I10
I1
I3
tp601
a(I10
I1
I2
tp602
a(I10
I1
I1
tp603
ag10
asg86
g10
sg87
I13
sbag579
ag579
ag579
ag579
aI0
aI0
aI0
ag131
ag489
ag579
aI0
aI0
ag203
aI0
ag169
ag579
aI0
aI0
ag517
aI0
aI0
ag579
aI0
aI0
ag517
aI0
aI0
ag579
aI0
aI0
aI0
aI0
aI0
ag579
aI0
aI0
aI0
aI0
ag243
ag579
aI0
aI0
aI0
aI0
aI0
ag579
aI0
aI0
ag0
(g50
g2
Ntp604
Rp605
(dp606
g54
g30
sg55
(lp607
(I9
I10
I0
tp608
a(I10
I10
I0
tp609
a(I10
I10
I1
tp610
a(I10
I10
I2
tp611
a(I10
I9
I2
tp612
a(I11
I9
I2
tp613
a(I11
I8
I2
tp614
a(I11
I7
I2
tp615
a(I11
I6
I2
tp616
a(I11
I5
I2
tp617
a(I11
I5
I1
tp618
ag19
asg86
g19
sg87
I14
sbaI0
aI0
aI0
ag605
ag605
ag605
ag559
aI0
ag291
aI0
aI0
aI0
aI0
aI0
aI0
aI0
aI0
aI0
aI0
aI0
aI0
aI0
aI0
aI0
aI0
ag451
ag89
aI0
aI0
aI0
aI0
aI0
aI0
ag131
ag131
ag131
ag131
ag489
aI0
aI0
aI0
ag203
aI0
ag169
ag169
aI0
aI0
ag517
aI0
aI0
aI0
ag0
(g160
g2
Ntp619
Rp620
(dp621
g164
I11
sg165
I11
sg166
I0
sg167
I5
sbag605
ag605
aI0
aI0
aI0
aI0
aI0
ag605
aI0
aI0
aI0
ag0
(g50
g2
Ntp622
Rp623
(dp624
g54
g21
sg55
(lp625
(I13
I7
I0
tp626
a(I12
I7
I0
tp627
a(I11
I7
I0
tp628
ag26
asg86
g26
sg87
I12
sbaI0
ag605
aI0
ag243
aI0
ag0
(g160
g2
Ntp629
Rp630
(dp631
g164
I18
sg165
I11
sg166
I0
sg167
I8
sbaI0
ag605
aI0
aI0
ag579
aI0
aI0
ag605
aI0
aI0
aI0
aI0
aI0
aI0
ag559
aI0
ag291
aI0
aI0
aI0
aI0
aI0
aI0
aI0
aI0
aI0
aI0
aI0
aI0
aI0
aI0
aI0
aI0
ag451
ag89
ag0
(g50
g2
Ntp632
Rp633
(dp634
g54
g11
sg55
(lp635
(I15
I1
I0
tp636
a(I14
I1
I0
tp637
a(I13
I1
I0
tp638
a(I12
I1
I0
tp639
ag13
asg86
g13
sg87
I4
sbaI0
aI0
aI0
aI0
aI0
ag0
(g160
g2
Ntp640
Rp641
(dp642
g164
I5
sg165
I12
sg166
I0
sg167
I2
sbag0
(g50
g2
Ntp643
Rp644
(dp645
g54
g27
sg55
(lp646
(I15
I8
I0
tp647
a(I15
I7
I0
tp648
a(I15
I7
I1
tp649
a(I15
I7
I2
tp650
a(I15
I7
I3
tp651
a(I15
I6
I3
tp652
a(I14
I6
I3
tp653
a(I14
I5
I3
tp654
a(I13
I5
I3
tp655
a(I13
I4
I3
tp656
a(I12
I4
I3
tp657
a(I12
I3
I3
tp658
a(I12
I2
I3
tp659
a(I12
I2
I2
tp660
a(I12
I2
I1
tp661
ag13
asg86
g13
sg87
I22
sbag644
ag644
ag489
aI0
ag0
(g160
g2
Ntp662
Rp663
(dp664
g164
I7
sg165
I12
sg166
I0
sg167
I3
sbag203
ag203
ag644
aI0
ag169
ag517
ag517
ag517
ag644
aI0
aI0
ag0
(g50
g2
Ntp665
Rp666
(dp667
g54
g19
sg55
(lp668
(I11
I5
I0
tp669
a(I12
I5
I0
tp670
a(I12
I5
I1
tp671
a(I12
I5
I2
tp672
a(I12
I6
I2
tp673
a(I12
I7
I2
tp674
a(I12
I8
I2
tp675
a(I12
I9
I2
tp676
a(I12
I10
I2
tp677
a(I12
I11
I2
tp678
a(I12
I11
I1
tp679
ag32
asg86
g32
sg87
I16
sbag666
ag666
aI0
aI0
aI0
aI0
aI0
ag666
aI0
aI0
aI0
ag623
aI0
ag666
aI0
ag243
aI0
aI0
aI0
ag666
aI0
aI0
ag579
aI0
aI0
ag666
aI0
aI0
aI0
aI0
aI0
ag666
ag559
aI0
ag291
ag0
(g160
g2
Ntp680
Rp681
(dp682
g164
I24
sg165
I12
sg166
I0
sg167
I11
sbag666
ag666
aI0
aI0
aI0
aI0
aI0
aI0
aI0
aI0
aI0
aI0
aI0
aI0
aI0
ag451
ag89
ag633
aI0
aI0
aI0
aI0
aI0
aI0
aI0
aI0
aI0
ag489
aI0
ag0
(g50
g2
Ntp683
Rp684
(dp685
g54
g15
sg55
(lp686
(I12
I3
I0
tp687
a(I13
I3
I0
tp688
a(I13
I4
I0
tp689
a(I13
I5
I0
tp690
a(I13
I6
I0
tp691
ag21
asg86
g21
sg87
I5
sbaI0
aI0
aI0
aI0
ag169
ag684
aI0
aI0
ag644
aI0
aI0
ag684
aI0
aI0
ag644
aI0
aI0
ag684
aI0
aI0
aI0
aI0
aI0
ag0
(g160
g2
Ntp692
Rp693
(dp694
g164
I13
sg165
I13
sg166
I0
sg167
I7
sbag559
ag559
ag559
ag243
aI0
aI0
aI0
aI0
ag559
aI0
ag579
aI0
aI0
aI0
ag559
aI0
aI0
aI0
aI0
aI0
ag559
aI0
ag291
aI0
aI0
aI0
aI0
aI0
aI0
aI0
aI0
aI0
aI0
aI0
aI0
aI0
aI0
aI0
aI0
ag451
ag89
ag633
aI0
aI0
aI0
aI0
aI0
ag0
(g160
g2
Ntp695
Rp696
(dp697
g164
I6
sg165
I14
sg166
I0
sg167
I2
sbag0
(g50
g2
Ntp698
Rp699
(dp700
g54
g14
sg55
(lp701
(I14
I2
I0
tp702
a(I14
I2
I1
tp703
a(I14
I2
I2
tp704
a(I14
I3
I2
tp705
a(I14
I4
I2
tp706
a(I15
I4
I2
tp707
a(I16
I4
I2
tp708
a(I16
I5
I2
tp709
a(I16
I6
I2
tp710
a(I16
I7
I2
tp711
a(I16
I7
I1
tp712
ag22
asg86
g22
sg87
I25
sbag699
aI0
ag489
aI0
aI0
aI0
ag699
aI0
aI0
ag169
aI0
aI0
ag699
aI0
aI0
aI0
aI0
aI0
aI0
ag644
aI0
aI0
aI0
aI0
aI0
ag644
aI0
aI0
ag243
ag243
ag243
ag243
ag243
aI0
aI0
aI0
aI0
aI0
aI0
ag579
aI0
aI0
aI0
aI0
aI0
aI0
aI0
aI0
aI0
aI0
aI0
ag291
aI0
aI0
aI0
aI0
aI0
aI0
aI0
aI0
aI0
aI0
aI0
aI0
ag451
ag451
ag451
ag451
ag451
ag89
ag0
(g160
g2
Ntp713
Rp714
(dp715
g164
I3
sg165
I15
sg166
I0
sg167
I1
sbag89
ag89
ag89
ag89
ag89
ag489
ag489
ag489
ag489
ag489
aI0
aI0
aI0
aI0
aI0
aI0
ag169
aI0
aI0
ag699
aI0
aI0
aI0
aI0
aI0
aI0
aI0
aI0
aI0
aI0
aI0
aI0
ag644
aI0
aI0
ag644
ag644
ag644
ag644
aI0
aI0
ag0
(g160
g2
Ntp716
Rp717
(dp718
g164
I19
sg165
I15
sg166
I0
sg167
I8
sbag579
ag579
ag579
ag579
ag579
ag291
ag291
ag291
ag291
ag291
ag291
aI0
aI0
aI0
aI0
aI0
ag291
aI0
aI0
aI0
aI0
aI0
aI0
aI0
aI0
aI0
aI0
aI0
aI0
aI0
aI0
aI0
aI0
aI0
aI0
ag169
ag169
ag169
ag169
ag169
ag169
aI0
aI0
aI0
aI0
aI0
ag169
aI0
aI0
aI0
aI0
aI0
ag169
aI0
aI0
ag699
aI0
aI0
aI0
ag0
(g160
g2
Ntp719
Rp720
(dp721
g164
I12
sg165
I16
sg166
I0
sg167
I5
sbaI0
ag699
aI0
aI0
aI0
aI0
aI0
ag699
aI0
aI0
aI0
ag0
(g160
g2
Ntp722
Rp723
(dp724
g164
I14
sg165
I16
sg166
I0
sg167
I7
sbag699
ag699
aI0
aI0
aI0
aI0
aI0
aI0
aI0
aI0
aI0
aI0
aI0
aI0
aI0
aI0
aI0
aI0
aI0
aI0
aI0
aI0
aI0
aI0
aI0
aI0
aI0
aI0
aI0
aI0
aI0
aI0
aI0
aI0
aI0
aI0
aI0
aI0
aI0
aI0
aI0
aI0
aI0
aI0
aI0
aI0
aI0
aI0
aI0
aI0
aI0
aI0
aI0
aI0
aI0
aI0
aI0
aI0
aI0
aI0
aI0
aI0
aI0
aI0
aI0
aI0
aI0
aI0
aI0
aI0
aI0
aI0
aI0
aI0
aI0
aI0
aI0
aI0
aI0
aI0
aI0
aI0
aI0
aI0
aI0
aI0
aI0
aI0
aI0
aI0
aI0
aI0
aI0
aI0
aI0
aI0
aI0
aI0
aI0
aI0
aI0
aI0
aI0
aI0
aI0
aI0
aI0
aI0
aI0
aI0
aI0
aI0
aI0
atp725
bsS'x_dim'
p726
I18
sS'nets'
p727
(dp728
I0
g325
sI1
g0
(g50
g2
Ntp729
Rp730
(dp731
g54
g13
sg55
(lp732
(I12
I2
I0
tp733
ag15
asg86
g15
sg87
I1
sbsI2
g380
sI3
g431
sI4
g633
sI5
g684
sI6
g89
sI7
g350
sI8
g559
sI9
g414
sI10
g271
sI11
g389
sI12
g623
sI13
g579
sI14
g605
sI15
g443
sI16
g666
sI17
g451
sI18
g52
sI19
g489
sI20
g291
sI21
g227
sI22
g644
sI23
g169
sI24
g131
sI25
g699
sI26
g203
sI27
g243
sI28
g541
sI29
g517
ssb.