ccopy_reg
_reconstructor
p0
(cmodules.Objects
Board
p1
c__builtin__
object
p2
Ntp3
Rp4
(dp5
S'gates'
p6
(dp7
I0
(I1
I1
I0
tp8
sI1
(I6
I1
I0
tp9
sI2
(I10
I1
I0
tp10
sI3
(I15
I1
I0
tp11
sI4
(I3
I2
I0
tp12
sI5
(I12
I2
I0
tp13
sI6
(I14
I2
I0
tp14
sI7
(I12
I3
I0
tp15
sI8
(I8
I4
I0
tp16
sI9
(I1
I5
I0
tp17
sI10
(I4
I5
I0
tp18
sI11
(I11
I5
I0
tp19
sI12
(I16
I5
I0
tp20
sI13
(I13
I7
I0
tp21
sI14
(I16
I7
I0
tp22
sI15
(I2
I8
I0
tp23
sI16
(I6
I8
I0
tp24
sI17
(I9
I8
I0
tp25
sI18
(I11
I8
I0
tp26
sI19
(I15
I8
I0
tp27
sI20
(I1
I9
I0
tp28
sI21
(I2
I10
I0
tp29
sI22
(I9
I10
I0
tp30
sI23
(I1
I11
I0
tp31
sI24
(I12
I11
I0
tp32
ssS'y_dim'
p33
I13
sS'z_dim'
p34
I10
sS'board'
p35
cnumpy.core.multiarray
_reconstruct
p36
(cnumpy
ndarray
p37
(I0
tp38
S'b'
p39
tp40
Rp41
(I1
(I18
I13
I10
tp42
cnumpy
dtype
p43
(S'O8'
p44
I0
I1
tp45
Rp46
(I3
S'|'
p47
NNNI-1
I-1
I63
tp48
bI00
(lp49
I0
aI0
aI0
aI0
aI0
aI0
aI0
ag0
(cmodules.Objects
Net
p50
g2
Ntp51
Rp52
(dp53
S'start_gate'
p54
g11
sS'path'
p55
(lp56
(I15
I1
I0
tp57
a(I15
I0
I0
tp58
a(I15
I0
I1
tp59
a(I15
I0
I2
tp60
a(I15
I0
I3
tp61
a(I15
I0
I4
tp62
a(I14
I0
I4
tp63
a(I14
I0
I5
tp64
a(I14
I0
I6
tp65
a(I14
I0
I7
tp66
a(I13
I0
I7
tp67
a(I12
I0
I7
tp68
a(I11
I0
I7
tp69
a(I10
I0
I7
tp70
a(I9
I0
I7
tp71
a(I8
I0
I7
tp72
a(I7
I0
I7
tp73
a(I6
I0
I7
tp74
a(I5
I0
I7
tp75
a(I4
I0
I7
tp76
a(I3
I0
I7
tp77
a(I2
I0
I7
tp78
a(I1
I0
I7
tp79
a(I0
I0
I7
tp80
a(I0
I1
I7
tp81
a(I0
I2
I7
tp82
a(I0
I3
I7
tp83
a(I0
I4
I7
tp84
a(I0
I5
I7
tp85
a(I0
I6
I7
tp86
a(I0
I7
I7
tp87
a(I0
I8
I7
tp88
a(I0
I8
I6
tp89
a(I0
I8
I5
tp90
a(I0
I8
I4
tp91
a(I0
I8
I3
tp92
a(I0
I8
I2
tp93
a(I1
I8
I2
tp94
a(I1
I8
I1
tp95
a(I1
I8
I0
tp96
ag23
asS'end_gate'
p97
g23
sS'net_id'
p98
I17
sbaI0
ag0
(g50
g2
Ntp99
Rp100
(dp101
g54
g11
sg55
(lp102
(I15
I1
I0
tp103
a(I15
I1
I1
tp104
a(I15
I1
I2
tp105
a(I15
I1
I3
tp106
a(I15
I1
I4
tp107
a(I15
I1
I5
tp108
a(I15
I0
I5
tp109
a(I15
I0
I6
tp110
a(I15
I0
I7
tp111
a(I15
I0
I8
tp112
a(I15
I0
I9
tp113
a(I14
I0
I9
tp114
a(I13
I0
I9
tp115
a(I12
I0
I9
tp116
a(I11
I0
I9
tp117
a(I10
I0
I9
tp118
a(I9
I0
I9
tp119
a(I8
I0
I9
tp120
a(I7
I0
I9
tp121
a(I6
I0
I9
tp122
a(I5
I0
I9
tp123
a(I4
I0
I9
tp124
a(I3
I0
I9
tp125
a(I2
I0
I9
tp126
a(I1
I0
I9
tp127
a(I0
I0
I9
tp128
a(I0
I1
I9
tp129
a(I0
I2
I9
tp130
a(I0
I3
I9
tp131
a(I0
I4
I9
tp132
a(I0
I5
I9
tp133
a(I0
I6
I9
tp134
a(I0
I7
I9
tp135
a(I0
I8
I9
tp136
a(I0
I9
I9
tp137
a(I0
I10
I9
tp138
a(I0
I11
I9
tp139
a(I0
I11
I8
tp140
a(I0
I11
I7
tp141
a(I0
I11
I6
tp142
a(I0
I11
I5
tp143
a(I0
I11
I4
tp144
a(I0
I11
I3
tp145
a(I0
I11
I2
tp146
a(I0
I11
I1
tp147
a(I0
I11
I0
tp148
ag31
asg97
g31
sg98
I6
sbaI0
aI0
aI0
aI0
aI0
aI0
aI0
ag52
aI0
ag100
aI0
aI0
aI0
aI0
aI0
aI0
aI0
ag52
aI0
ag100
aI0
aI0
aI0
aI0
aI0
aI0
ag0
(g50
g2
Ntp149
Rp150
(dp151
g54
g15
sg55
(lp152
(I12
I3
I0
tp153
a(I12
I3
I1
tp154
a(I12
I3
I2
tp155
a(I11
I3
I2
tp156
a(I10
I3
I2
tp157
a(I10
I3
I3
tp158
a(I10
I3
I4
tp159
a(I9
I3
I4
tp160
a(I9
I3
I5
tp161
a(I9
I3
I6
tp162
a(I8
I3
I6
tp163
a(I7
I3
I6
tp164
a(I6
I3
I6
tp165
a(I5
I3
I6
tp166
a(I4
I3
I6
tp167
a(I3
I3
I6
tp168
a(I2
I3
I6
tp169
a(I1
I3
I6
tp170
a(I0
I3
I6
tp171
a(I0
I4
I6
tp172
a(I0
I5
I6
tp173
a(I0
I5
I5
tp174
a(I0
I5
I4
tp175
a(I0
I5
I3
tp176
a(I0
I5
I2
tp177
a(I0
I5
I1
tp178
a(I0
I5
I0
tp179
ag17
asg97
g17
sg98
I26
sbag52
aI0
ag100
aI0
aI0
aI0
aI0
aI0
aI0
ag150
ag52
aI0
ag100
ag150
ag150
ag150
ag150
ag150
ag150
ag150
ag52
aI0
ag100
aI0
aI0
aI0
aI0
aI0
aI0
aI0
ag52
aI0
ag100
aI0
aI0
aI0
aI0
aI0
aI0
aI0
ag52
aI0
ag100
aI0
aI0
ag52
ag52
ag52
ag52
ag52
ag52
aI0
ag100
ag0
(g50
g2
Ntp180
Rp181
(dp182
g54
g10
sg55
(lp183
(I10
I1
I0
tp184
a(I10
I0
I0
tp185
a(I10
I0
I1
tp186
a(I10
I0
I2
tp187
a(I10
I0
I3
tp188
a(I10
I0
I4
tp189
a(I10
I0
I5
tp190
a(I10
I0
I6
tp191
a(I10
I1
I6
tp192
a(I10
I1
I7
tp193
a(I10
I1
I8
tp194
a(I10
I1
I9
tp195
a(I10
I2
I9
tp196
a(I9
I2
I9
tp197
a(I8
I2
I9
tp198
a(I7
I2
I9
tp199
a(I6
I2
I9
tp200
a(I5
I2
I9
tp201
a(I4
I2
I9
tp202
a(I3
I2
I9
tp203
a(I2
I2
I9
tp204
a(I2
I3
I9
tp205
a(I2
I4
I9
tp206
a(I2
I5
I9
tp207
a(I2
I6
I9
tp208
a(I2
I7
I9
tp209
a(I2
I8
I9
tp210
a(I2
I9
I9
tp211
a(I1
I9
I9
tp212
a(I1
I9
I8
tp213
a(I0
I9
I8
tp214
a(I0
I9
I7
tp215
a(I0
I9
I6
tp216
a(I0
I9
I5
tp217
a(I0
I9
I4
tp218
a(I0
I9
I3
tp219
a(I0
I9
I2
tp220
a(I0
I9
I1
tp221
a(I0
I9
I0
tp222
ag28
asg97
g28
sg98
I18
sbag181
ag181
ag181
ag181
ag181
ag181
ag181
ag181
ag100
aI0
aI0
aI0
aI0
aI0
aI0
aI0
aI0
aI0
ag100
ag100
ag100
ag100
ag100
ag100
ag100
ag100
ag100
ag100
ag100
aI0
aI0
aI0
aI0
aI0
aI0
aI0
aI0
aI0
aI0
aI0
aI0
aI0
aI0
aI0
aI0
aI0
ag52
ag0
(g50
g2
Ntp223
Rp224
(dp225
g54
g11
sg55
(lp226
(I15
I1
I0
tp227
a(I16
I1
I0
tp228
a(I16
I1
I1
tp229
a(I16
I1
I2
tp230
a(I16
I1
I3
tp231
a(I16
I1
I4
tp232
a(I16
I1
I5
tp233
a(I16
I1
I6
tp234
a(I16
I1
I7
tp235
a(I16
I1
I8
tp236
a(I15
I1
I8
tp237
a(I14
I1
I8
tp238
a(I14
I0
I8
tp239
a(I13
I0
I8
tp240
a(I12
I0
I8
tp241
a(I11
I0
I8
tp242
a(I10
I0
I8
tp243
a(I9
I0
I8
tp244
a(I8
I0
I8
tp245
a(I7
I0
I8
tp246
a(I6
I0
I8
tp247
a(I5
I0
I8
tp248
a(I4
I0
I8
tp249
a(I3
I0
I8
tp250
a(I2
I0
I8
tp251
a(I1
I0
I8
tp252
a(I1
I1
I8
tp253
a(I1
I1
I7
tp254
a(I1
I1
I6
tp255
a(I1
I1
I5
tp256
a(I1
I1
I4
tp257
a(I1
I1
I3
tp258
a(I1
I1
I2
tp259
a(I1
I1
I1
tp260
ag8
asg97
g8
sg98
I23
sbag100
ag0
(cmodules.Objects
Gate
p261
g2
Ntp262
Rp263
(dp264
S'gate_id'
p265
I0
sS'x'
p266
I1
sS'z'
p267
I0
sS'y'
p268
I1
sbag224
ag224
ag224
ag224
ag224
ag224
ag224
ag224
aI0
aI0
aI0
aI0
aI0
aI0
aI0
aI0
aI0
aI0
aI0
aI0
aI0
aI0
aI0
aI0
aI0
ag150
aI0
aI0
aI0
ag0
(g50
g2
Ntp269
Rp270
(dp271
g54
g17
sg55
(lp272
(I1
I5
I0
tp273
a(I1
I4
I0
tp274
a(I1
I4
I1
tp275
a(I1
I4
I2
tp276
a(I1
I4
I3
tp277
a(I1
I4
I4
tp278
a(I1
I4
I5
tp279
a(I1
I4
I6
tp280
a(I1
I4
I7
tp281
a(I2
I4
I7
tp282
a(I3
I4
I7
tp283
a(I4
I4
I7
tp284
a(I5
I4
I7
tp285
a(I6
I4
I7
tp286
a(I6
I5
I7
tp287
a(I7
I5
I7
tp288
a(I7
I6
I7
tp289
a(I8
I6
I7
tp290
a(I8
I7
I7
tp291
a(I9
I7
I7
tp292
a(I10
I7
I7
tp293
a(I11
I7
I7
tp294
a(I12
I7
I7
tp295
a(I13
I7
I7
tp296
a(I14
I7
I7
tp297
a(I14
I7
I6
tp298
a(I14
I7
I5
tp299
a(I14
I7
I4
tp300
a(I14
I7
I3
tp301
a(I14
I7
I2
tp302
a(I14
I7
I1
tp303
a(I14
I7
I0
tp304
ag21
asg97
g21
sg98
I27
sbag270
ag270
ag270
ag270
ag270
ag270
ag270
aI0
aI0
ag0
(g261
g2
Ntp305
Rp306
(dp307
g265
I9
sg266
I1
sg267
I0
sg268
I5
sbag0
(g50
g2
Ntp308
Rp309
(dp310
g54
g24
sg55
(lp311
(I6
I8
I0
tp312
a(I6
I8
I1
tp313
a(I6
I8
I2
tp314
a(I5
I8
I2
tp315
a(I5
I7
I2
tp316
a(I5
I6
I2
tp317
a(I4
I6
I2
tp318
a(I3
I6
I2
tp319
a(I3
I5
I2
tp320
a(I2
I5
I2
tp321
a(I1
I5
I2
tp322
a(I1
I5
I1
tp323
ag17
asg97
g17
sg98
I21
sbag309
aI0
aI0
aI0
aI0
aI0
aI0
aI0
aI0
aI0
aI0
ag0
(g50
g2
Ntp324
Rp325
(dp326
g54
g28
sg55
(lp327
(I1
I9
I0
tp328
a(I1
I9
I1
tp329
a(I1
I9
I2
tp330
a(I1
I9
I3
tp331
a(I1
I8
I3
tp332
a(I1
I7
I3
tp333
a(I1
I6
I3
tp334
a(I2
I6
I3
tp335
a(I3
I6
I3
tp336
a(I4
I6
I3
tp337
a(I4
I5
I3
tp338
a(I4
I5
I2
tp339
a(I4
I5
I1
tp340
ag18
asg97
g18
sg98
I10
sbaI0
aI0
aI0
aI0
aI0
aI0
aI0
aI0
aI0
ag325
aI0
aI0
aI0
aI0
aI0
aI0
ag52
ag52
ag52
ag325
aI0
aI0
aI0
aI0
aI0
aI0
ag0
(g261
g2
Ntp341
Rp342
(dp343
g265
I20
sg266
I1
sg267
I0
sg268
I9
sbag325
ag325
ag325
aI0
aI0
aI0
aI0
ag181
ag181
ag0
(g50
g2
Ntp344
Rp345
(dp346
g54
g28
sg55
(lp347
(I1
I9
I0
tp348
a(I1
I10
I0
tp349
a(I1
I10
I1
tp350
a(I1
I10
I2
tp351
a(I1
I10
I3
tp352
a(I1
I10
I4
tp353
a(I1
I10
I5
tp354
a(I1
I10
I6
tp355
a(I1
I10
I7
tp356
a(I2
I10
I7
tp357
a(I3
I10
I7
tp358
a(I4
I10
I7
tp359
a(I5
I10
I7
tp360
a(I6
I10
I7
tp361
a(I7
I10
I7
tp362
a(I8
I10
I7
tp363
a(I9
I10
I7
tp364
a(I10
I10
I7
tp365
a(I11
I10
I7
tp366
a(I12
I10
I7
tp367
a(I13
I10
I7
tp368
a(I14
I10
I7
tp369
a(I15
I10
I7
tp370
a(I15
I9
I7
tp371
a(I15
I9
I6
tp372
a(I15
I9
I5
tp373
a(I15
I9
I4
tp374
a(I15
I9
I3
tp375
a(I15
I9
I2
tp376
a(I15
I9
I1
tp377
a(I15
I9
I0
tp378
ag27
asg97
g27
sg98
I20
sbag345
ag345
ag345
ag345
ag345
ag345
ag345
aI0
aI0
ag0
(g261
g2
Ntp379
Rp380
(dp381
g265
I23
sg266
I1
sg267
I0
sg268
I11
sbag0
(g50
g2
Ntp382
Rp383
(dp384
g54
g31
sg55
(lp385
(I1
I11
I0
tp386
a(I1
I11
I1
tp387
a(I1
I11
I2
tp388
a(I1
I11
I3
tp389
a(I1
I11
I4
tp390
a(I1
I11
I5
tp391
a(I2
I11
I5
tp392
a(I3
I11
I5
tp393
a(I3
I10
I5
tp394
a(I3
I9
I5
tp395
a(I3
I8
I5
tp396
a(I3
I7
I5
tp397
a(I3
I6
I5
tp398
a(I3
I5
I5
tp399
a(I3
I4
I5
tp400
a(I3
I3
I5
tp401
a(I3
I2
I5
tp402
a(I3
I2
I4
tp403
a(I3
I2
I3
tp404
a(I3
I2
I2
tp405
a(I3
I2
I1
tp406
ag12
asg97
g12
sg98
I0
sbag383
ag383
ag383
ag383
aI0
aI0
aI0
aI0
ag0
(g50
g2
Ntp407
Rp408
(dp409
g54
g31
sg55
(lp410
(I1
I11
I0
tp411
a(I1
I12
I0
tp412
a(I1
I12
I1
tp413
a(I1
I12
I2
tp414
a(I1
I12
I3
tp415
a(I1
I12
I4
tp416
a(I1
I12
I5
tp417
a(I1
I12
I6
tp418
a(I1
I12
I7
tp419
a(I1
I12
I8
tp420
a(I1
I12
I9
tp421
a(I2
I12
I9
tp422
a(I3
I12
I9
tp423
a(I4
I12
I9
tp424
a(I5
I12
I9
tp425
a(I6
I12
I9
tp426
a(I7
I12
I9
tp427
a(I8
I12
I9
tp428
a(I8
I11
I9
tp429
a(I8
I10
I9
tp430
a(I8
I9
I9
tp431
a(I8
I8
I9
tp432
a(I8
I7
I9
tp433
a(I8
I6
I9
tp434
a(I8
I5
I9
tp435
a(I8
I4
I9
tp436
a(I8
I4
I8
tp437
a(I8
I4
I7
tp438
a(I8
I4
I6
tp439
a(I8
I4
I5
tp440
a(I8
I4
I4
tp441
a(I8
I4
I3
tp442
a(I8
I4
I2
tp443
a(I8
I4
I1
tp444
ag16
asg97
g16
sg98
I7
sbag408
ag408
ag408
ag408
ag408
ag408
ag408
ag408
ag408
aI0
aI0
aI0
aI0
aI0
aI0
aI0
ag52
ag224
ag100
ag0
(g50
g2
Ntp445
Rp446
(dp447
g54
g9
sg55
(lp448
(I6
I1
I0
tp449
a(I5
I1
I0
tp450
a(I4
I1
I0
tp451
a(I3
I1
I0
tp452
a(I2
I1
I0
tp453
ag8
asg97
g8
sg98
I2
sbaI0
aI0
aI0
aI0
aI0
aI0
aI0
aI0
aI0
aI0
aI0
aI0
aI0
aI0
aI0
aI0
aI0
aI0
ag181
aI0
aI0
aI0
aI0
aI0
aI0
ag150
aI0
aI0
ag181
aI0
aI0
aI0
aI0
aI0
aI0
aI0
ag270
aI0
ag181
aI0
aI0
ag309
aI0
aI0
aI0
aI0
aI0
aI0
ag181
aI0
aI0
aI0
ag325
aI0
aI0
aI0
aI0
aI0
ag181
ag0
(g50
g2
Ntp454
Rp455
(dp456
g54
g23
sg55
(lp457
(I2
I8
I0
tp458
a(I2
I7
I0
tp459
a(I2
I7
I1
tp460
a(I2
I7
I2
tp461
a(I2
I7
I3
tp462
a(I3
I7
I3
tp463
a(I4
I7
I3
tp464
a(I5
I7
I3
tp465
a(I6
I7
I3
tp466
a(I6
I6
I3
tp467
a(I7
I6
I3
tp468
a(I8
I6
I3
tp469
a(I8
I5
I3
tp470
a(I8
I5
I2
tp471
a(I8
I5
I1
tp472
a(I8
I5
I0
tp473
ag16
asg97
g16
sg98
I11
sbag455
ag455
ag455
aI0
aI0
aI0
aI0
aI0
ag181
ag0
(g261
g2
Ntp474
Rp475
(dp476
g265
I15
sg266
I2
sg267
I0
sg268
I8
sbag0
(g50
g2
Ntp477
Rp478
(dp479
g54
g23
sg55
(lp480
(I2
I8
I0
tp481
a(I2
I8
I1
tp482
a(I2
I8
I2
tp483
a(I2
I8
I3
tp484
a(I3
I8
I3
tp485
a(I4
I8
I3
tp486
a(I5
I8
I3
tp487
a(I6
I8
I3
tp488
a(I7
I8
I3
tp489
a(I8
I8
I3
tp490
a(I9
I8
I3
tp491
a(I9
I8
I2
tp492
a(I9
I8
I1
tp493
ag25
asg97
g25
sg98
I9
sbag478
ag478
aI0
aI0
aI0
aI0
aI0
ag181
ag0
(g50
g2
Ntp494
Rp495
(dp496
g54
g23
sg55
(lp497
(I2
I8
I0
tp498
a(I2
I9
I0
tp499
ag29
asg97
g29
sg98
I3
sbaI0
aI0
aI0
aI0
aI0
aI0
aI0
aI0
ag181
ag0
(g261
g2
Ntp500
Rp501
(dp502
g265
I21
sg266
I2
sg267
I0
sg268
I10
sbaI0
aI0
aI0
aI0
aI0
aI0
ag345
aI0
aI0
aI0
aI0
aI0
aI0
aI0
ag383
aI0
aI0
aI0
aI0
aI0
aI0
aI0
aI0
aI0
aI0
aI0
aI0
aI0
ag408
aI0
aI0
aI0
aI0
aI0
aI0
aI0
ag52
ag224
ag100
ag446
aI0
aI0
aI0
aI0
aI0
aI0
aI0
aI0
aI0
ag0
(g261
g2
Ntp503
Rp504
(dp505
g265
I4
sg266
I3
sg267
I0
sg268
I2
sbag383
ag383
ag383
ag383
ag383
aI0
aI0
aI0
ag181
ag0
(g50
g2
Ntp506
Rp507
(dp508
g54
g18
sg55
(lp509
(I4
I5
I0
tp510
a(I3
I5
I0
tp511
a(I3
I4
I0
tp512
a(I3
I3
I0
tp513
ag12
asg97
g12
sg98
I15
sbaI0
aI0
aI0
aI0
ag383
ag150
aI0
aI0
aI0
ag507
aI0
aI0
aI0
aI0
ag383
aI0
ag270
aI0
aI0
ag507
aI0
ag309
aI0
aI0
ag383
aI0
aI0
aI0
aI0
aI0
aI0
ag309
ag325
aI0
ag383
aI0
aI0
aI0
aI0
aI0
aI0
aI0
ag455
aI0
ag383
aI0
aI0
aI0
aI0
ag0
(g50
g2
Ntp514
Rp515
(dp516
g54
g23
sg55
(lp517
(I2
I8
I0
tp518
a(I3
I8
I0
tp519
a(I3
I8
I1
tp520
a(I3
I8
I2
tp521
a(I3
I9
I2
tp522
a(I3
I9
I3
tp523
a(I3
I9
I4
tp524
a(I4
I9
I4
tp525
a(I4
I9
I5
tp526
a(I4
I9
I6
tp527
a(I5
I9
I6
tp528
a(I6
I9
I6
tp529
a(I7
I9
I6
tp530
a(I8
I9
I6
tp531
a(I9
I9
I6
tp532
a(I9
I8
I6
tp533
a(I9
I7
I6
tp534
a(I9
I6
I6
tp535
a(I9
I5
I6
tp536
a(I10
I5
I6
tp537
a(I11
I5
I6
tp538
a(I11
I4
I6
tp539
a(I11
I3
I6
tp540
a(I11
I3
I5
tp541
a(I11
I3
I4
tp542
a(I11
I3
I3
tp543
a(I11
I2
I3
tp544
a(I11
I2
I2
tp545
a(I11
I2
I1
tp546
a(I11
I2
I0
tp547
ag13
asg97
g13
sg98
I24
sbag515
ag515
ag478
aI0
ag383
aI0
aI0
aI0
aI0
aI0
aI0
ag515
ag515
ag515
ag383
aI0
aI0
aI0
aI0
aI0
aI0
aI0
aI0
aI0
ag383
aI0
ag345
aI0
aI0
aI0
aI0
aI0
aI0
aI0
ag383
aI0
aI0
aI0
aI0
aI0
aI0
aI0
aI0
aI0
aI0
aI0
aI0
aI0
ag408
aI0
aI0
aI0
aI0
aI0
aI0
aI0
ag52
ag224
ag100
ag446
aI0
aI0
aI0
aI0
aI0
aI0
aI0
aI0
aI0
ag0
(g50
g2
Ntp548
Rp549
(dp550
g54
g11
sg55
(lp551
(I15
I1
I0
tp552
a(I15
I2
I0
tp553
a(I15
I2
I1
tp554
a(I15
I2
I2
tp555
a(I15
I2
I3
tp556
a(I15
I2
I4
tp557
a(I14
I2
I4
tp558
a(I13
I2
I4
tp559
a(I12
I2
I4
tp560
a(I11
I2
I4
tp561
a(I10
I2
I4
tp562
a(I9
I2
I4
tp563
a(I8
I2
I4
tp564
a(I7
I2
I4
tp565
a(I6
I2
I4
tp566
a(I5
I2
I4
tp567
a(I4
I2
I4
tp568
a(I4
I2
I3
tp569
a(I4
I2
I2
tp570
a(I4
I2
I1
tp571
a(I4
I2
I0
tp572
ag12
asg97
g12
sg98
I19
sbag549
ag549
ag549
ag549
aI0
aI0
aI0
aI0
ag181
aI0
aI0
aI0
aI0
aI0
aI0
ag150
aI0
aI0
aI0
aI0
aI0
aI0
aI0
aI0
aI0
aI0
ag270
aI0
aI0
ag0
(g261
g2
Ntp573
Rp574
(dp575
g265
I10
sg266
I4
sg267
I0
sg268
I5
sbag325
ag325
ag325
aI0
aI0
aI0
aI0
aI0
aI0
aI0
aI0
ag309
ag325
aI0
aI0
aI0
aI0
aI0
aI0
aI0
aI0
aI0
ag455
aI0
aI0
aI0
aI0
aI0
aI0
aI0
aI0
aI0
ag478
aI0
aI0
aI0
aI0
aI0
aI0
aI0
aI0
aI0
aI0
ag515
ag515
ag515
aI0
aI0
aI0
aI0
aI0
aI0
aI0
aI0
aI0
aI0
ag345
aI0
aI0
aI0
aI0
aI0
aI0
aI0
aI0
aI0
aI0
aI0
aI0
aI0
aI0
aI0
aI0
aI0
aI0
aI0
aI0
aI0
ag408
aI0
aI0
aI0
aI0
aI0
aI0
aI0
ag52
ag224
ag100
ag446
aI0
aI0
aI0
aI0
aI0
aI0
aI0
aI0
aI0
aI0
aI0
aI0
aI0
ag549
aI0
aI0
aI0
aI0
ag181
aI0
aI0
aI0
aI0
aI0
aI0
ag150
aI0
aI0
aI0
aI0
aI0
aI0
aI0
aI0
aI0
aI0
ag270
aI0
aI0
ag0
(g50
g2
Ntp576
Rp577
(dp578
g54
g18
sg55
(lp579
(I4
I5
I0
tp580
a(I5
I5
I0
tp581
a(I5
I5
I1
tp582
a(I5
I5
I2
tp583
a(I5
I5
I3
tp584
a(I5
I5
I4
tp585
a(I6
I5
I4
tp586
a(I7
I5
I4
tp587
a(I8
I5
I4
tp588
a(I9
I5
I4
tp589
a(I10
I5
I4
tp590
a(I11
I5
I4
tp591
a(I11
I4
I4
tp592
a(I11
I4
I3
tp593
a(I11
I4
I2
tp594
a(I12
I4
I2
tp595
a(I12
I4
I1
tp596
a(I12
I4
I0
tp597
ag15
asg97
g15
sg98
I29
sbag577
ag577
ag577
ag577
aI0
aI0
aI0
aI0
aI0
aI0
aI0
ag309
aI0
aI0
aI0
aI0
aI0
aI0
aI0
aI0
aI0
ag309
ag455
aI0
aI0
aI0
aI0
aI0
aI0
aI0
aI0
ag309
ag478
aI0
aI0
aI0
aI0
aI0
aI0
aI0
aI0
aI0
aI0
aI0
aI0
ag515
aI0
aI0
aI0
aI0
aI0
aI0
aI0
aI0
aI0
aI0
ag345
aI0
aI0
aI0
aI0
aI0
aI0
aI0
aI0
aI0
aI0
aI0
aI0
aI0
aI0
aI0
aI0
aI0
aI0
aI0
aI0
aI0
ag408
aI0
aI0
aI0
aI0
aI0
aI0
aI0
ag52
ag224
ag100
ag0
(g261
g2
Ntp598
Rp599
(dp600
g265
I1
sg266
I6
sg267
I0
sg268
I1
sbaI0
aI0
aI0
aI0
aI0
aI0
aI0
aI0
aI0
aI0
aI0
aI0
aI0
ag549
aI0
aI0
aI0
aI0
ag181
aI0
aI0
aI0
aI0
aI0
aI0
ag150
aI0
aI0
aI0
aI0
aI0
aI0
aI0
aI0
aI0
aI0
ag270
aI0
aI0
aI0
aI0
aI0
aI0
ag577
aI0
aI0
ag270
aI0
aI0
aI0
aI0
aI0
ag455
aI0
aI0
aI0
aI0
aI0
aI0
aI0
aI0
aI0
ag455
aI0
aI0
aI0
aI0
aI0
aI0
ag0
(g261
g2
Ntp601
Rp602
(dp603
g265
I16
sg266
I6
sg267
I0
sg268
I8
sbag309
ag309
ag478
aI0
aI0
aI0
aI0
aI0
aI0
ag0
(g50
g2
Ntp604
Rp605
(dp606
g54
g30
sg55
(lp607
(I9
I10
I0
tp608
a(I8
I10
I0
tp609
a(I7
I10
I0
tp610
a(I6
I10
I0
tp611
a(I6
I9
I0
tp612
ag24
asg97
g24
sg98
I28
sbaI0
aI0
aI0
aI0
aI0
ag515
aI0
aI0
aI0
ag605
aI0
aI0
aI0
aI0
aI0
aI0
ag345
aI0
aI0
aI0
aI0
aI0
aI0
aI0
aI0
aI0
aI0
aI0
aI0
aI0
aI0
aI0
aI0
aI0
aI0
aI0
aI0
aI0
ag408
aI0
aI0
aI0
aI0
aI0
aI0
aI0
ag52
ag224
ag100
aI0
aI0
aI0
aI0
aI0
aI0
aI0
aI0
aI0
aI0
aI0
aI0
aI0
aI0
ag549
aI0
aI0
aI0
aI0
ag181
aI0
aI0
aI0
aI0
aI0
aI0
ag150
aI0
aI0
aI0
aI0
aI0
aI0
aI0
aI0
aI0
aI0
aI0
aI0
aI0
aI0
aI0
aI0
aI0
ag577
aI0
aI0
ag270
aI0
aI0
aI0
aI0
aI0
ag455
aI0
aI0
aI0
ag270
aI0
aI0
aI0
aI0
aI0
aI0
aI0
aI0
aI0
aI0
aI0
aI0
aI0
aI0
aI0
ag478
aI0
aI0
aI0
aI0
aI0
aI0
aI0
aI0
aI0
aI0
aI0
aI0
ag515
aI0
aI0
aI0
ag605
aI0
aI0
aI0
aI0
aI0
aI0
ag345
aI0
aI0
aI0
aI0
aI0
aI0
aI0
aI0
aI0
aI0
aI0
aI0
aI0
aI0
aI0
aI0
aI0
aI0
aI0
aI0
aI0
ag408
aI0
aI0
aI0
aI0
aI0
aI0
aI0
ag52
ag224
ag100
aI0
aI0
aI0
aI0
aI0
aI0
aI0
aI0
aI0
aI0
aI0
aI0
aI0
aI0
ag549
aI0
aI0
aI0
aI0
ag181
aI0
aI0
aI0
aI0
aI0
aI0
ag150
aI0
aI0
aI0
ag0
(g261
g2
Ntp613
Rp614
(dp615
g265
I8
sg266
I8
sg267
I0
sg268
I4
sbag408
ag408
ag408
ag408
ag408
ag408
ag408
ag408
ag408
ag455
ag455
ag455
ag455
ag577
aI0
aI0
aI0
aI0
ag408
aI0
aI0
aI0
ag455
aI0
aI0
aI0
ag270
aI0
ag408
aI0
aI0
aI0
aI0
aI0
aI0
aI0
ag270
aI0
ag408
aI0
aI0
aI0
ag478
aI0
aI0
aI0
aI0
aI0
ag408
aI0
aI0
aI0
aI0
aI0
aI0
ag515
aI0
aI0
ag408
ag605
aI0
aI0
aI0
aI0
aI0
aI0
ag345
aI0
ag408
aI0
aI0
aI0
aI0
aI0
aI0
aI0
aI0
aI0
ag408
aI0
aI0
aI0
aI0
aI0
aI0
aI0
aI0
aI0
ag408
aI0
aI0
aI0
aI0
aI0
aI0
aI0
ag52
ag224
ag100
aI0
aI0
aI0
aI0
aI0
aI0
aI0
aI0
aI0
aI0
aI0
aI0
aI0
aI0
ag549
aI0
aI0
aI0
aI0
ag181
aI0
aI0
aI0
aI0
ag150
ag150
ag150
aI0
aI0
aI0
aI0
aI0
aI0
aI0
aI0
aI0
aI0
aI0
aI0
aI0
aI0
aI0
aI0
aI0
ag577
aI0
ag515
aI0
aI0
aI0
aI0
aI0
aI0
aI0
aI0
aI0
ag515
aI0
aI0
aI0
aI0
aI0
aI0
aI0
aI0
aI0
ag515
ag270
aI0
aI0
ag0
(g261
g2
Ntp616
Rp617
(dp618
g265
I17
sg266
I9
sg267
I0
sg268
I8
sbag478
ag478
ag478
aI0
aI0
ag515
aI0
aI0
aI0
aI0
aI0
aI0
aI0
aI0
aI0
ag515
aI0
aI0
aI0
ag0
(g261
g2
Ntp619
Rp620
(dp621
g265
I22
sg266
I9
sg267
I0
sg268
I10
sbag0
(g50
g2
Ntp622
Rp623
(dp624
g54
g30
sg55
(lp625
(I9
I10
I0
tp626
a(I9
I10
I1
tp627
a(I9
I10
I2
tp628
a(I9
I10
I3
tp629
a(I10
I10
I3
tp630
a(I11
I10
I3
tp631
a(I12
I10
I3
tp632
a(I13
I10
I3
tp633
a(I13
I9
I3
tp634
a(I13
I8
I3
tp635
a(I13
I7
I3
tp636
a(I13
I7
I2
tp637
a(I13
I7
I1
tp638
ag21
asg97
g21
sg98
I8
sbag623
ag623
aI0
aI0
aI0
ag345
aI0
aI0
aI0
aI0
aI0
aI0
aI0
aI0
aI0
aI0
aI0
aI0
aI0
aI0
aI0
aI0
aI0
aI0
aI0
aI0
aI0
aI0
ag181
ag181
ag181
ag181
ag181
ag181
ag181
ag52
ag224
ag100
ag0
(g261
g2
Ntp639
Rp640
(dp641
g265
I2
sg266
I10
sg267
I0
sg268
I1
sbag0
(g50
g2
Ntp642
Rp643
(dp644
g54
g27
sg55
(lp645
(I15
I8
I0
tp646
a(I15
I8
I1
tp647
a(I15
I8
I2
tp648
a(I15
I8
I3
tp649
a(I15
I8
I4
tp650
a(I15
I8
I5
tp651
a(I14
I8
I5
tp652
a(I13
I8
I5
tp653
a(I12
I8
I5
tp654
a(I11
I8
I5
tp655
a(I10
I8
I5
tp656
a(I10
I7
I5
tp657
a(I10
I6
I5
tp658
a(I10
I5
I5
tp659
a(I10
I4
I5
tp660
a(I10
I3
I5
tp661
a(I10
I2
I5
tp662
a(I10
I1
I5
tp663
a(I10
I1
I4
tp664
a(I10
I1
I3
tp665
a(I10
I1
I2
tp666
a(I10
I1
I1
tp667
ag10
asg97
g10
sg98
I13
sbag643
ag643
ag643
ag643
ag181
ag181
ag181
ag181
aI0
aI0
aI0
aI0
ag549
ag643
aI0
aI0
aI0
ag181
aI0
aI0
ag150
ag150
ag150
ag643
aI0
aI0
aI0
aI0
aI0
aI0
aI0
aI0
aI0
ag643
aI0
aI0
aI0
aI0
aI0
aI0
aI0
aI0
ag577
ag643
ag515
aI0
aI0
aI0
aI0
aI0
aI0
aI0
aI0
ag643
aI0
aI0
aI0
aI0
aI0
aI0
aI0
aI0
aI0
ag643
aI0
ag270
aI0
aI0
aI0
aI0
aI0
aI0
aI0
ag643
aI0
aI0
aI0
aI0
aI0
aI0
ag0
(g50
g2
Ntp668
Rp669
(dp670
g54
g30
sg55
(lp671
(I9
I10
I0
tp672
a(I10
I10
I0
tp673
a(I10
I10
I1
tp674
a(I10
I10
I2
tp675
a(I10
I9
I2
tp676
a(I11
I9
I2
tp677
a(I11
I8
I2
tp678
a(I11
I7
I2
tp679
a(I11
I6
I2
tp680
a(I11
I5
I2
tp681
a(I11
I5
I1
tp682
ag19
asg97
g19
sg98
I14
sbaI0
aI0
aI0
aI0
aI0
aI0
aI0
ag669
ag669
ag669
ag623
aI0
aI0
aI0
ag345
aI0
aI0
aI0
aI0
aI0
aI0
aI0
aI0
aI0
aI0
aI0
aI0
aI0
aI0
aI0
aI0
aI0
aI0
aI0
aI0
aI0
aI0
aI0
aI0
aI0
aI0
aI0
aI0
aI0
ag52
ag224
ag100
aI0
aI0
aI0
aI0
aI0
aI0
aI0
aI0
aI0
aI0
ag515
ag515
ag515
ag515
ag549
aI0
aI0
aI0
aI0
aI0
aI0
aI0
ag150
ag515
ag515
ag515
ag515
aI0
aI0
aI0
aI0
aI0
ag577
ag577
ag577
aI0
ag515
aI0
aI0
aI0
ag0
(g261
g2
Ntp683
Rp684
(dp685
g265
I11
sg266
I11
sg267
I0
sg268
I5
sbag669
ag669
aI0
ag577
aI0
ag515
aI0
aI0
aI0
aI0
aI0
ag669
aI0
aI0
aI0
aI0
aI0
aI0
aI0
ag0
(g50
g2
Ntp686
Rp687
(dp688
g54
g21
sg55
(lp689
(I13
I7
I0
tp690
a(I12
I7
I0
tp691
a(I11
I7
I0
tp692
ag26
asg97
g26
sg98
I12
sbaI0
ag669
aI0
aI0
aI0
aI0
ag270
aI0
aI0
ag0
(g261
g2
Ntp693
Rp694
(dp695
g265
I18
sg266
I11
sg267
I0
sg268
I8
sbaI0
ag669
aI0
aI0
ag643
aI0
aI0
aI0
aI0
aI0
aI0
ag669
aI0
aI0
aI0
aI0
aI0
aI0
aI0
aI0
aI0
aI0
ag623
aI0
aI0
aI0
ag345
aI0
aI0
aI0
aI0
aI0
aI0
aI0
aI0
aI0
aI0
aI0
aI0
aI0
aI0
aI0
aI0
aI0
aI0
aI0
aI0
aI0
aI0
aI0
aI0
aI0
aI0
aI0
aI0
aI0
ag52
ag224
ag100
ag0
(g50
g2
Ntp696
Rp697
(dp698
g54
g11
sg55
(lp699
(I15
I1
I0
tp700
a(I14
I1
I0
tp701
a(I13
I1
I0
tp702
a(I12
I1
I0
tp703
ag13
asg97
g13
sg98
I4
sbaI0
aI0
aI0
aI0
aI0
aI0
aI0
aI0
aI0
ag0
(g261
g2
Ntp704
Rp705
(dp706
g265
I5
sg266
I12
sg267
I0
sg268
I2
sbag0
(g50
g2
Ntp707
Rp708
(dp709
g54
g27
sg55
(lp710
(I15
I8
I0
tp711
a(I15
I7
I0
tp712
a(I15
I7
I1
tp713
a(I15
I7
I2
tp714
a(I15
I7
I3
tp715
a(I15
I6
I3
tp716
a(I14
I6
I3
tp717
a(I14
I5
I3
tp718
a(I13
I5
I3
tp719
a(I13
I4
I3
tp720
a(I12
I4
I3
tp721
a(I12
I3
I3
tp722
a(I12
I2
I3
tp723
a(I12
I2
I2
tp724
a(I12
I2
I1
tp725
ag13
asg97
g13
sg98
I22
sbag708
ag708
ag549
aI0
aI0
aI0
aI0
aI0
ag0
(g261
g2
Ntp726
Rp727
(dp728
g265
I7
sg266
I12
sg267
I0
sg268
I3
sbag150
ag150
ag708
aI0
aI0
aI0
aI0
aI0
aI0
ag577
ag577
ag577
ag708
aI0
aI0
aI0
aI0
aI0
aI0
ag0
(g50
g2
Ntp729
Rp730
(dp731
g54
g19
sg55
(lp732
(I11
I5
I0
tp733
a(I12
I5
I0
tp734
a(I12
I5
I1
tp735
a(I12
I5
I2
tp736
a(I12
I6
I2
tp737
a(I12
I7
I2
tp738
a(I12
I8
I2
tp739
a(I12
I9
I2
tp740
a(I12
I10
I2
tp741
a(I12
I11
I2
tp742
a(I12
I11
I1
tp743
ag32
asg97
g32
sg98
I16
sbag730
ag730
aI0
aI0
aI0
aI0
aI0
aI0
aI0
aI0
aI0
ag730
aI0
aI0
aI0
aI0
aI0
aI0
aI0
ag687
aI0
ag730
aI0
aI0
aI0
aI0
ag270
aI0
aI0
aI0
aI0
ag730
aI0
aI0
ag643
aI0
aI0
aI0
aI0
aI0
aI0
ag730
aI0
aI0
aI0
aI0
aI0
aI0
aI0
aI0
aI0
ag730
ag623
aI0
aI0
aI0
ag345
aI0
aI0
ag0
(g261
g2
Ntp744
Rp745
(dp746
g265
I24
sg266
I12
sg267
I0
sg268
I11
sbag730
ag730
aI0
aI0
aI0
aI0
aI0
aI0
aI0
aI0
aI0
aI0
aI0
aI0
aI0
aI0
aI0
aI0
aI0
aI0
aI0
aI0
aI0
aI0
aI0
aI0
ag52
ag224
ag100
ag697
aI0
aI0
aI0
aI0
aI0
aI0
aI0
aI0
aI0
aI0
aI0
aI0
aI0
ag549
aI0
aI0
aI0
aI0
aI0
ag0
(g50
g2
Ntp747
Rp748
(dp749
g54
g15
sg55
(lp750
(I12
I3
I0
tp751
a(I13
I3
I0
tp752
a(I13
I4
I0
tp753
a(I13
I5
I0
tp754
a(I13
I6
I0
tp755
ag21
asg97
g21
sg98
I5
sbaI0
aI0
aI0
aI0
aI0
aI0
aI0
aI0
aI0
ag748
aI0
aI0
ag708
aI0
aI0
aI0
aI0
aI0
aI0
ag748
aI0
aI0
ag708
aI0
aI0
aI0
aI0
aI0
aI0
ag748
aI0
aI0
aI0
aI0
aI0
aI0
aI0
aI0
aI0
ag0
(g261
g2
Ntp756
Rp757
(dp758
g265
I13
sg266
I13
sg267
I0
sg268
I7
sbag623
ag623
ag623
aI0
aI0
aI0
ag270
aI0
aI0
aI0
aI0
aI0
ag623
aI0
ag643
aI0
aI0
aI0
aI0
aI0
aI0
aI0
ag623
aI0
aI0
aI0
aI0
aI0
aI0
aI0
aI0
aI0
ag623
aI0
aI0
aI0
ag345
aI0
aI0
aI0
aI0
aI0
aI0
aI0
aI0
aI0
aI0
aI0
aI0
aI0
aI0
aI0
aI0
aI0
aI0
aI0
aI0
aI0
aI0
aI0
aI0
aI0
aI0
ag52
ag52
ag52
ag52
ag224
ag100
ag697
aI0
aI0
aI0
aI0
aI0
aI0
aI0
ag224
aI0
ag0
(g261
g2
Ntp759
Rp760
(dp761
g265
I6
sg266
I14
sg267
I0
sg268
I2
sbag0
(g50
g2
Ntp762
Rp763
(dp764
g54
g14
sg55
(lp765
(I14
I2
I0
tp766
a(I14
I2
I1
tp767
a(I14
I2
I2
tp768
a(I14
I2
I3
tp769
a(I14
I3
I3
tp770
a(I15
I3
I3
tp771
a(I16
I3
I3
tp772
a(I16
I4
I3
tp773
a(I16
I5
I3
tp774
a(I16
I6
I3
tp775
a(I16
I7
I3
tp776
a(I16
I7
I2
tp777
a(I16
I7
I1
tp778
ag22
asg97
g22
sg98
I25
sbag763
ag763
ag549
aI0
aI0
aI0
aI0
aI0
aI0
aI0
aI0
ag763
aI0
aI0
aI0
aI0
aI0
aI0
aI0
aI0
aI0
aI0
aI0
aI0
aI0
aI0
aI0
aI0
aI0
aI0
aI0
ag708
aI0
aI0
aI0
aI0
aI0
aI0
aI0
aI0
aI0
ag708
aI0
aI0
aI0
aI0
aI0
aI0
ag270
ag270
ag270
ag270
ag270
ag270
ag270
ag270
aI0
aI0
aI0
aI0
aI0
aI0
aI0
ag643
aI0
aI0
aI0
aI0
aI0
aI0
aI0
aI0
aI0
aI0
aI0
aI0
aI0
aI0
aI0
aI0
aI0
aI0
aI0
aI0
aI0
ag345
aI0
aI0
aI0
aI0
aI0
aI0
aI0
aI0
aI0
aI0
aI0
aI0
aI0
aI0
aI0
aI0
aI0
aI0
aI0
aI0
aI0
aI0
ag52
ag52
ag52
ag52
ag52
ag100
ag100
ag100
ag100
ag100
ag0
(g261
g2
Ntp779
Rp780
(dp781
g265
I3
sg266
I15
sg267
I0
sg268
I1
sbag100
ag100
ag100
ag100
ag100
aI0
aI0
ag224
aI0
ag549
ag549
ag549
ag549
ag549
aI0
aI0
aI0
aI0
aI0
aI0
aI0
aI0
ag763
aI0
aI0
aI0
aI0
aI0
aI0
aI0
aI0
aI0
aI0
aI0
aI0
aI0
aI0
aI0
aI0
aI0
aI0
aI0
aI0
aI0
aI0
aI0
aI0
aI0
aI0
aI0
aI0
aI0
ag708
aI0
aI0
aI0
aI0
aI0
aI0
ag708
ag708
ag708
ag708
aI0
aI0
aI0
aI0
aI0
aI0
ag0
(g261
g2
Ntp782
Rp783
(dp784
g265
I19
sg266
I15
sg267
I0
sg268
I8
sbag643
ag643
ag643
ag643
ag643
aI0
aI0
aI0
aI0
ag345
ag345
ag345
ag345
ag345
ag345
ag345
ag345
aI0
aI0
aI0
aI0
aI0
aI0
aI0
aI0
aI0
ag345
aI0
aI0
aI0
aI0
aI0
aI0
aI0
aI0
aI0
aI0
aI0
aI0
aI0
aI0
aI0
aI0
aI0
aI0
aI0
aI0
aI0
aI0
aI0
aI0
aI0
aI0
aI0
aI0
aI0
aI0
aI0
aI0
ag224
ag224
ag224
ag224
ag224
ag224
ag224
ag224
ag224
aI0
aI0
aI0
aI0
aI0
aI0
aI0
aI0
aI0
aI0
aI0
aI0
aI0
aI0
ag763
aI0
aI0
aI0
aI0
aI0
aI0
aI0
aI0
aI0
ag763
aI0
aI0
aI0
aI0
aI0
aI0
ag0
(g261
g2
Ntp785
Rp786
(dp787
g265
I12
sg266
I16
sg267
I0
sg268
I5
sbaI0
aI0
ag763
aI0
aI0
aI0
aI0
aI0
aI0
aI0
aI0
aI0
ag763
aI0
aI0
aI0
aI0
aI0
aI0
ag0
(g261
g2
Ntp788
Rp789
(dp790
g265
I14
sg266
I16
sg267
I0
sg268
I7
sbag763
ag763
ag763
aI0
aI0
aI0
aI0
aI0
aI0
aI0
aI0
aI0
aI0
aI0
aI0
aI0
aI0
aI0
aI0
aI0
aI0
aI0
aI0
aI0
aI0
aI0
aI0
aI0
aI0
aI0
aI0
aI0
aI0
aI0
aI0
aI0
aI0
aI0
aI0
aI0
aI0
aI0
aI0
aI0
aI0
aI0
aI0
aI0
aI0
aI0
aI0
aI0
aI0
aI0
aI0
aI0
aI0
aI0
aI0
aI0
aI0
aI0
aI0
aI0
aI0
aI0
aI0
aI0
aI0
aI0
aI0
aI0
aI0
aI0
aI0
aI0
aI0
aI0
aI0
aI0
aI0
aI0
aI0
aI0
aI0
aI0
aI0
aI0
aI0
aI0
aI0
aI0
aI0
aI0
aI0
aI0
aI0
aI0
aI0
aI0
aI0
aI0
aI0
aI0
aI0
aI0
aI0
aI0
aI0
aI0
aI0
aI0
aI0
aI0
aI0
aI0
aI0
aI0
aI0
aI0
aI0
aI0
aI0
aI0
aI0
aI0
aI0
aI0
aI0
aI0
aI0
aI0
aI0
aI0
aI0
aI0
aI0
aI0
aI0
aI0
aI0
aI0
aI0
aI0
aI0
aI0
aI0
aI0
aI0
aI0
aI0
aI0
aI0
aI0
aI0
aI0
aI0
aI0
aI0
aI0
aI0
aI0
aI0
aI0
aI0
aI0
aI0
aI0
aI0
aI0
aI0
aI0
aI0
aI0
aI0
aI0
aI0
aI0
aI0
aI0
aI0
aI0
aI0
aI0
aI0
aI0
aI0
aI0
aI0
atp791
bsS'x_dim'
p792
I18
sS'nets'
p793
(dp794
I0
g383
sI1
g0
(g50
g2
Ntp795
Rp796
(dp797
g54
g13
sg55
(lp798
(I12
I2
I0
tp799
ag15
asg97
g15
sg98
I1
sbsI2
g446
sI3
g495
sI4
g697
sI5
g748
sI6
g100
sI7
g408
sI8
g623
sI9
g478
sI10
g325
sI11
g455
sI12
g687
sI13
g643
sI14
g669
sI15
g507
sI16
g730
sI17
g52
sI18
g181
sI19
g549
sI20
g345
sI21
g309
sI22
g708
sI23
g224
sI24
g515
sI25
g763
sI26
g150
sI27
g270
sI28
g605
sI29
g577
ssb.