ccopy_reg
_reconstructor
p0
(cmodules.Objects
Board
p1
c__builtin__
object
p2
Ntp3
Rp4
(dp5
S'gates'
p6
(dp7
I0
(I1
I1
I0
tp8
sI1
(I6
I1
I0
tp9
sI2
(I10
I1
I0
tp10
sI3
(I15
I1
I0
tp11
sI4
(I3
I2
I0
tp12
sI5
(I12
I2
I0
tp13
sI6
(I14
I2
I0
tp14
sI7
(I12
I3
I0
tp15
sI8
(I8
I4
I0
tp16
sI9
(I1
I5
I0
tp17
sI10
(I4
I5
I0
tp18
sI11
(I11
I5
I0
tp19
sI12
(I16
I5
I0
tp20
sI13
(I13
I7
I0
tp21
sI14
(I16
I7
I0
tp22
sI15
(I2
I8
I0
tp23
sI16
(I6
I8
I0
tp24
sI17
(I9
I8
I0
tp25
sI18
(I11
I8
I0
tp26
sI19
(I15
I8
I0
tp27
sI20
(I1
I9
I0
tp28
sI21
(I2
I10
I0
tp29
sI22
(I9
I10
I0
tp30
sI23
(I1
I11
I0
tp31
sI24
(I12
I11
I0
tp32
ssS'y_dim'
p33
I13
sS'z_dim'
p34
I4
sS'board'
p35
cnumpy.core.multiarray
_reconstruct
p36
(cnumpy
ndarray
p37
(I0
tp38
S'b'
p39
tp40
Rp41
(I1
(I18
I13
I4
tp42
cnumpy
dtype
p43
(S'O8'
p44
I0
I1
tp45
Rp46
(I3
S'|'
p47
NNNI-1
I-1
I63
tp48
bI00
(lp49
I0
aI0
aI0
ag0
(cmodules.Objects
Net
p50
g2
Ntp51
Rp52
(dp53
S'start_gate'
p54
g11
sS'path'
p55
(lp56
(I15
I1
I0
tp57
a(I15
I1
I1
tp58
a(I15
I1
I2
tp59
a(I15
I1
I3
tp60
a(I15
I0
I3
tp61
a(I14
I0
I3
tp62
a(I13
I0
I3
tp63
a(I12
I0
I3
tp64
a(I11
I0
I3
tp65
a(I10
I0
I3
tp66
a(I9
I0
I3
tp67
a(I8
I0
I3
tp68
a(I7
I0
I3
tp69
a(I6
I0
I3
tp70
a(I5
I0
I3
tp71
a(I4
I0
I3
tp72
a(I3
I0
I3
tp73
a(I2
I0
I3
tp74
a(I1
I0
I3
tp75
a(I0
I0
I3
tp76
a(I0
I1
I3
tp77
a(I0
I2
I3
tp78
a(I0
I3
I3
tp79
a(I0
I4
I3
tp80
a(I0
I5
I3
tp81
a(I0
I6
I3
tp82
a(I0
I7
I3
tp83
a(I0
I8
I3
tp84
a(I0
I9
I3
tp85
a(I0
I10
I3
tp86
a(I0
I11
I3
tp87
a(I0
I11
I2
tp88
a(I0
I11
I1
tp89
a(I0
I11
I0
tp90
ag31
asS'end_gate'
p91
g31
sS'net_id'
p92
I7
sbaI0
aI0
aI0
ag52
aI0
aI0
aI0
ag52
aI0
aI0
aI0
ag52
aI0
ag0
(g50
g2
Ntp93
Rp94
(dp95
g54
g23
sg55
(lp96
(I2
I8
I0
tp97
a(I1
I8
I0
tp98
a(I0
I8
I0
tp99
a(I0
I8
I1
tp100
a(I0
I7
I1
tp101
a(I0
I6
I1
tp102
a(I0
I5
I1
tp103
a(I0
I4
I1
tp104
a(I1
I4
I1
tp105
a(I2
I4
I1
tp106
a(I2
I4
I2
tp107
a(I3
I4
I2
tp108
a(I4
I4
I2
tp109
a(I5
I4
I2
tp110
a(I5
I3
I2
tp111
a(I5
I2
I2
tp112
a(I6
I2
I2
tp113
a(I7
I2
I2
tp114
a(I8
I2
I2
tp115
a(I9
I2
I2
tp116
a(I10
I2
I2
tp117
a(I11
I2
I2
tp118
a(I11
I2
I1
tp119
a(I11
I2
I0
tp120
ag13
asg91
g13
sg92
I25
sbag0
(g50
g2
Ntp121
Rp122
(dp123
g54
g10
sg55
(lp124
(I10
I1
I0
tp125
a(I9
I1
I0
tp126
a(I9
I1
I1
tp127
a(I9
I1
I2
tp128
a(I9
I1
I3
tp129
a(I8
I1
I3
tp130
a(I7
I1
I3
tp131
a(I6
I1
I3
tp132
a(I5
I1
I3
tp133
a(I4
I1
I3
tp134
a(I3
I1
I3
tp135
a(I2
I1
I3
tp136
a(I2
I2
I3
tp137
a(I1
I2
I3
tp138
a(I1
I3
I3
tp139
a(I1
I4
I3
tp140
a(I1
I4
I2
tp141
a(I0
I4
I2
tp142
a(I0
I5
I2
tp143
a(I0
I6
I2
tp144
a(I0
I7
I2
tp145
a(I0
I8
I2
tp146
a(I0
I9
I2
tp147
a(I0
I9
I1
tp148
a(I0
I9
I0
tp149
ag28
asg91
g28
sg92
I19
sbag52
aI0
ag94
ag122
ag52
aI0
ag94
ag122
ag52
aI0
ag94
ag122
ag52
ag94
ag94
ag122
ag52
ag122
ag122
ag122
ag52
aI0
aI0
aI0
ag52
ag52
ag52
ag52
ag52
aI0
aI0
aI0
aI0
aI0
aI0
aI0
ag52
ag0
(cmodules.Objects
Gate
p150
g2
Ntp151
Rp152
(dp153
S'gate_id'
p154
I0
sS'x'
p155
I1
sS'z'
p156
I0
sS'y'
p157
I1
sbag0
(g50
g2
Ntp158
Rp159
(dp160
g54
g11
sg55
(lp161
(I15
I1
I0
tp162
a(I16
I1
I0
tp163
a(I16
I1
I1
tp164
a(I16
I1
I2
tp165
a(I16
I2
I2
tp166
a(I16
I3
I2
tp167
a(I16
I4
I2
tp168
a(I16
I5
I2
tp169
a(I15
I5
I2
tp170
a(I14
I5
I2
tp171
a(I13
I5
I2
tp172
a(I13
I5
I1
tp173
a(I13
I4
I1
tp174
a(I12
I4
I1
tp175
a(I12
I4
I2
tp176
a(I11
I4
I2
tp177
a(I11
I4
I3
tp178
a(I10
I4
I3
tp179
a(I9
I4
I3
tp180
a(I9
I3
I3
tp181
a(I8
I3
I3
tp182
a(I7
I3
I3
tp183
a(I6
I3
I3
tp184
a(I5
I3
I3
tp185
a(I4
I3
I3
tp186
a(I4
I3
I2
tp187
a(I3
I3
I2
tp188
a(I2
I3
I2
tp189
a(I1
I3
I2
tp190
a(I1
I2
I2
tp191
a(I1
I1
I2
tp192
a(I1
I1
I1
tp193
ag8
asg91
g8
sg92
I24
sbag159
aI0
aI0
aI0
ag159
ag122
ag0
(g50
g2
Ntp194
Rp195
(dp196
g54
g15
sg55
(lp197
(I12
I3
I0
tp198
a(I11
I3
I0
tp199
a(I11
I3
I1
tp200
a(I10
I3
I1
tp201
a(I9
I3
I1
tp202
a(I8
I3
I1
tp203
a(I7
I3
I1
tp204
a(I6
I3
I1
tp205
a(I5
I3
I1
tp206
a(I4
I3
I1
tp207
a(I3
I3
I1
tp208
a(I2
I3
I1
tp209
a(I1
I3
I1
tp210
a(I1
I3
I0
tp211
a(I1
I4
I0
tp212
ag17
asg91
g17
sg92
I27
sbag195
ag159
ag122
ag195
ag94
ag122
ag122
ag0
(g150
g2
Ntp213
Rp214
(dp215
g154
I9
sg155
I1
sg156
I0
sg157
I5
sbag0
(g50
g2
Ntp216
Rp217
(dp218
g54
g24
sg55
(lp219
(I6
I8
I0
tp220
a(I6
I8
I1
tp221
a(I6
I7
I1
tp222
a(I5
I7
I1
tp223
a(I4
I7
I1
tp224
a(I4
I6
I1
tp225
a(I3
I6
I1
tp226
a(I2
I6
I1
tp227
a(I1
I6
I1
tp228
a(I1
I5
I1
tp229
ag17
asg91
g17
sg92
I22
sbag0
(g50
g2
Ntp230
Rp231
(dp232
g54
g28
sg55
(lp233
(I1
I9
I0
tp234
a(I1
I9
I1
tp235
a(I1
I9
I2
tp236
a(I1
I8
I2
tp237
a(I1
I7
I2
tp238
a(I1
I6
I2
tp239
a(I1
I5
I2
tp240
a(I2
I5
I2
tp241
a(I3
I5
I2
tp242
a(I3
I5
I1
tp243
a(I3
I5
I0
tp244
ag18
asg91
g18
sg92
I11
sbaI0
aI0
ag217
ag231
aI0
aI0
aI0
ag231
aI0
ag94
aI0
ag231
aI0
ag0
(g150
g2
Ntp245
Rp246
(dp247
g154
I20
sg155
I1
sg156
I0
sg157
I9
sbag231
ag231
aI0
ag0
(g50
g2
Ntp248
Rp249
(dp250
g54
g28
sg55
(lp251
(I1
I9
I0
tp252
a(I1
I10
I0
tp253
a(I1
I10
I1
tp254
a(I1
I10
I2
tp255
a(I2
I10
I2
tp256
a(I3
I10
I2
tp257
a(I3
I11
I2
tp258
a(I3
I12
I2
tp259
a(I4
I12
I2
tp260
a(I5
I12
I2
tp261
a(I6
I12
I2
tp262
a(I7
I12
I2
tp263
a(I8
I12
I2
tp264
a(I9
I12
I2
tp265
a(I9
I12
I3
tp266
a(I10
I12
I3
tp267
a(I11
I12
I3
tp268
a(I12
I12
I3
tp269
a(I13
I12
I3
tp270
a(I14
I12
I3
tp271
a(I15
I12
I3
tp272
a(I15
I11
I3
tp273
a(I15
I10
I3
tp274
a(I15
I9
I3
tp275
a(I15
I9
I2
tp276
a(I15
I9
I1
tp277
a(I15
I9
I0
tp278
ag27
asg91
g27
sg92
I21
sbag249
ag249
aI0
ag0
(g150
g2
Ntp279
Rp280
(dp281
g154
I23
sg155
I1
sg156
I0
sg157
I11
sbag0
(g50
g2
Ntp282
Rp283
(dp284
g54
g31
sg55
(lp285
(I1
I11
I0
tp286
a(I1
I11
I1
tp287
a(I1
I11
I2
tp288
a(I1
I11
I3
tp289
a(I2
I11
I3
tp290
a(I2
I10
I3
tp291
a(I2
I9
I3
tp292
a(I2
I8
I3
tp293
a(I2
I7
I3
tp294
a(I2
I6
I3
tp295
a(I2
I5
I3
tp296
a(I2
I4
I3
tp297
a(I3
I4
I3
tp298
a(I3
I3
I3
tp299
a(I3
I2
I3
tp300
a(I3
I2
I2
tp301
a(I3
I2
I1
tp302
ag12
asg91
g12
sg92
I1
sbag283
ag283
ag0
(g50
g2
Ntp303
Rp304
(dp305
g54
g31
sg55
(lp306
(I1
I11
I0
tp307
a(I1
I12
I0
tp308
a(I1
I12
I1
tp309
a(I1
I12
I2
tp310
a(I1
I12
I3
tp311
a(I2
I12
I3
tp312
a(I3
I12
I3
tp313
a(I4
I12
I3
tp314
a(I5
I12
I3
tp315
a(I6
I12
I3
tp316
a(I7
I12
I3
tp317
a(I8
I12
I3
tp318
a(I8
I11
I3
tp319
a(I8
I10
I3
tp320
a(I8
I9
I3
tp321
a(I8
I8
I3
tp322
a(I8
I7
I3
tp323
a(I8
I6
I3
tp324
a(I8
I6
I2
tp325
a(I8
I5
I2
tp326
a(I8
I4
I2
tp327
a(I8
I4
I1
tp328
ag16
asg91
g16
sg92
I8
sbag304
ag304
ag304
aI0
aI0
aI0
ag52
ag0
(g50
g2
Ntp329
Rp330
(dp331
g54
g9
sg55
(lp332
(I6
I1
I0
tp333
a(I5
I1
I0
tp334
a(I4
I1
I0
tp335
a(I3
I1
I0
tp336
a(I2
I1
I0
tp337
ag8
asg91
g8
sg92
I3
sbaI0
aI0
ag122
aI0
aI0
aI0
ag122
aI0
ag195
ag159
aI0
aI0
ag94
ag94
ag283
ag0
(g50
g2
Ntp338
Rp339
(dp340
g54
g17
sg55
(lp341
(I1
I5
I0
tp342
a(I2
I5
I0
tp343
a(I2
I6
I0
tp344
a(I3
I6
I0
tp345
a(I4
I6
I0
tp346
a(I5
I6
I0
tp347
a(I5
I6
I1
tp348
a(I6
I6
I1
tp349
a(I7
I6
I1
tp350
a(I8
I6
I1
tp351
a(I9
I6
I1
tp352
a(I10
I6
I1
tp353
a(I10
I7
I1
tp354
a(I10
I8
I1
tp355
a(I11
I8
I1
tp356
a(I12
I8
I1
tp357
a(I13
I8
I1
tp358
a(I13
I8
I0
tp359
ag21
asg91
g21
sg92
I28
sbaI0
ag231
ag283
ag339
ag217
aI0
ag283
ag0
(g50
g2
Ntp360
Rp361
(dp362
g54
g23
sg55
(lp363
(I2
I8
I0
tp364
a(I2
I7
I0
tp365
a(I2
I7
I1
tp366
a(I2
I7
I2
tp367
a(I3
I7
I2
tp368
a(I4
I7
I2
tp369
a(I5
I7
I2
tp370
a(I5
I6
I2
tp371
a(I6
I6
I2
tp372
a(I6
I5
I2
tp373
a(I6
I4
I2
tp374
a(I7
I4
I2
tp375
a(I7
I4
I1
tp376
a(I7
I4
I0
tp377
ag16
asg91
g16
sg92
I12
sbag361
ag361
ag283
ag0
(g150
g2
Ntp378
Rp379
(dp380
g154
I15
sg155
I2
sg156
I0
sg157
I8
sbag0
(g50
g2
Ntp381
Rp382
(dp383
g54
g23
sg55
(lp384
(I2
I8
I0
tp385
a(I2
I8
I1
tp386
a(I2
I8
I2
tp387
a(I3
I8
I2
tp388
a(I4
I8
I2
tp389
a(I5
I8
I2
tp390
a(I6
I8
I2
tp391
a(I7
I8
I2
tp392
a(I8
I8
I2
tp393
a(I9
I8
I2
tp394
a(I9
I8
I1
tp395
ag25
asg91
g25
sg92
I10
sbag382
ag283
ag0
(g50
g2
Ntp396
Rp397
(dp398
g54
g23
sg55
(lp399
(I2
I8
I0
tp400
a(I2
I9
I0
tp401
ag29
asg91
g29
sg92
I4
sbaI0
aI0
ag283
ag0
(g150
g2
Ntp402
Rp403
(dp404
g154
I21
sg155
I2
sg156
I0
sg157
I10
sbaI0
ag249
ag283
aI0
aI0
aI0
ag283
aI0
aI0
aI0
ag304
aI0
aI0
aI0
ag52
ag330
aI0
aI0
ag122
ag0
(g150
g2
Ntp405
Rp406
(dp407
g154
I4
sg155
I3
sg156
I0
sg157
I2
sbag283
ag283
ag283
ag0
(g50
g2
Ntp408
Rp409
(dp410
g54
g18
sg55
(lp411
(I4
I5
I0
tp412
a(I4
I4
I0
tp413
a(I4
I3
I0
tp414
a(I3
I3
I0
tp415
ag12
asg91
g12
sg92
I16
sbag195
ag159
ag283
aI0
aI0
ag94
ag283
ag231
ag231
ag231
aI0
ag339
ag217
aI0
aI0
aI0
aI0
ag361
aI0
ag0
(g50
g2
Ntp416
Rp417
(dp418
g54
g11
sg55
(lp419
(I15
I1
I0
tp420
a(I15
I2
I0
tp421
a(I15
I2
I1
tp422
a(I15
I2
I2
tp423
a(I15
I3
I2
tp424
a(I15
I4
I2
tp425
a(I14
I4
I2
tp426
a(I13
I4
I2
tp427
a(I13
I4
I3
tp428
a(I13
I5
I3
tp429
a(I13
I6
I3
tp430
a(I12
I6
I3
tp431
a(I11
I6
I3
tp432
a(I10
I6
I3
tp433
a(I10
I7
I3
tp434
a(I9
I7
I3
tp435
a(I9
I7
I2
tp436
a(I8
I7
I2
tp437
a(I7
I7
I2
tp438
a(I7
I7
I3
tp439
a(I6
I7
I3
tp440
a(I6
I8
I3
tp441
a(I6
I9
I3
tp442
a(I5
I9
I3
tp443
a(I4
I9
I3
tp444
a(I3
I9
I3
tp445
a(I3
I9
I2
tp446
a(I3
I9
I1
tp447
a(I3
I8
I1
tp448
a(I3
I8
I0
tp449
ag23
asg91
g23
sg92
I18
sbag417
ag382
aI0
aI0
ag417
ag417
ag417
aI0
aI0
ag249
aI0
aI0
aI0
ag249
aI0
aI0
aI0
ag249
ag304
aI0
aI0
ag0
(g50
g2
Ntp450
Rp451
(dp452
g54
g11
sg55
(lp453
(I15
I1
I0
tp454
a(I15
I0
I0
tp455
a(I15
I0
I1
tp456
a(I15
I0
I2
tp457
a(I14
I0
I2
tp458
a(I13
I0
I2
tp459
a(I12
I0
I2
tp460
a(I11
I0
I2
tp461
a(I10
I0
I2
tp462
a(I9
I0
I2
tp463
a(I8
I0
I2
tp464
a(I7
I0
I2
tp465
a(I6
I0
I2
tp466
a(I5
I0
I2
tp467
a(I4
I0
I2
tp468
a(I4
I1
I2
tp469
a(I4
I2
I2
tp470
a(I4
I2
I1
tp471
a(I4
I2
I0
tp472
ag12
asg91
g12
sg92
I20
sbag52
ag330
aI0
ag451
ag122
ag451
ag451
ag451
aI0
ag409
ag195
ag159
ag159
ag409
aI0
ag94
aI0
ag0
(g150
g2
Ntp473
Rp474
(dp475
g154
I10
sg155
I4
sg156
I0
sg157
I5
sbag0
(g50
g2
Ntp476
Rp477
(dp478
g54
g18
sg55
(lp479
(I4
I5
I0
tp480
a(I4
I5
I1
tp481
a(I4
I5
I2
tp482
a(I4
I5
I3
tp483
a(I5
I5
I3
tp484
a(I6
I5
I3
tp485
a(I7
I5
I3
tp486
a(I8
I5
I3
tp487
a(I9
I5
I3
tp488
a(I10
I5
I3
tp489
a(I11
I5
I3
tp490
a(I12
I5
I3
tp491
a(I12
I4
I3
tp492
a(I12
I3
I3
tp493
a(I12
I3
I2
tp494
a(I12
I3
I1
tp495
ag15
asg91
g15
sg92
I0
sbag477
ag477
ag339
ag217
aI0
aI0
aI0
ag217
ag361
aI0
aI0
aI0
ag382
aI0
aI0
aI0
aI0
ag417
aI0
aI0
aI0
aI0
aI0
aI0
aI0
aI0
aI0
aI0
ag249
ag304
aI0
aI0
ag451
ag52
ag330
aI0
aI0
ag122
aI0
aI0
ag94
aI0
aI0
ag195
ag94
ag159
aI0
aI0
ag94
aI0
aI0
aI0
aI0
ag477
ag339
ag339
ag361
aI0
aI0
ag217
ag361
aI0
aI0
aI0
ag382
aI0
aI0
aI0
aI0
ag417
aI0
aI0
aI0
aI0
aI0
aI0
aI0
aI0
aI0
aI0
ag249
ag304
aI0
aI0
ag451
ag52
ag0
(g150
g2
Ntp496
Rp497
(dp498
g154
I1
sg155
I6
sg156
I0
sg157
I1
sbaI0
aI0
ag122
aI0
aI0
ag94
aI0
aI0
ag195
aI0
ag159
aI0
aI0
ag361
aI0
aI0
aI0
ag361
ag477
aI0
ag339
ag361
aI0
aI0
ag217
aI0
ag417
ag0
(g150
g2
Ntp499
Rp500
(dp501
g154
I16
sg155
I6
sg156
I0
sg157
I8
sbag217
ag382
ag417
ag0
(g50
g2
Ntp502
Rp503
(dp504
g54
g30
sg55
(lp505
(I9
I10
I0
tp506
a(I8
I10
I0
tp507
a(I7
I10
I0
tp508
a(I6
I10
I0
tp509
a(I6
I9
I0
tp510
ag24
asg91
g24
sg92
I29
sbaI0
aI0
ag417
ag503
aI0
aI0
aI0
aI0
aI0
aI0
aI0
aI0
aI0
ag249
ag304
aI0
aI0
ag451
ag52
aI0
aI0
aI0
ag122
aI0
aI0
ag94
aI0
aI0
ag195
aI0
ag159
ag361
ag361
ag361
aI0
aI0
aI0
aI0
ag477
aI0
ag339
aI0
aI0
aI0
aI0
ag417
ag417
aI0
aI0
ag382
aI0
aI0
aI0
aI0
aI0
ag503
aI0
aI0
aI0
aI0
aI0
aI0
aI0
aI0
aI0
ag249
ag304
aI0
aI0
ag451
ag52
aI0
aI0
aI0
ag122
aI0
aI0
ag94
aI0
aI0
ag195
aI0
ag159
ag0
(g150
g2
Ntp511
Rp512
(dp513
g154
I8
sg155
I8
sg156
I0
sg157
I4
sbag304
ag304
aI0
aI0
aI0
ag304
ag477
aI0
ag339
ag304
ag304
aI0
aI0
ag417
ag304
aI0
aI0
ag382
ag304
aI0
aI0
aI0
ag304
ag503
aI0
aI0
ag304
aI0
aI0
aI0
ag304
aI0
aI0
ag249
ag304
aI0
aI0
ag451
ag52
ag122
ag122
ag122
ag122
aI0
aI0
ag94
aI0
aI0
ag195
aI0
ag159
aI0
aI0
aI0
ag159
aI0
aI0
aI0
ag477
aI0
ag339
aI0
aI0
aI0
aI0
ag417
ag417
ag0
(g150
g2
Ntp514
Rp515
(dp516
g154
I17
sg155
I9
sg156
I0
sg157
I8
sbag382
ag382
aI0
aI0
aI0
aI0
aI0
ag0
(g150
g2
Ntp517
Rp518
(dp519
g154
I22
sg155
I9
sg156
I0
sg157
I10
sbag0
(g50
g2
Ntp520
Rp521
(dp522
g54
g30
sg55
(lp523
(I9
I10
I0
tp524
a(I9
I10
I1
tp525
a(I9
I10
I2
tp526
a(I9
I10
I3
tp527
a(I10
I10
I3
tp528
a(I11
I10
I3
tp529
a(I12
I10
I3
tp530
a(I13
I10
I3
tp531
a(I13
I9
I3
tp532
a(I13
I8
I3
tp533
a(I13
I7
I3
tp534
a(I13
I7
I2
tp535
a(I13
I7
I1
tp536
ag21
asg91
g21
sg92
I9
sbag521
ag521
aI0
aI0
aI0
aI0
aI0
aI0
ag249
ag249
aI0
aI0
ag451
ag52
ag0
(g150
g2
Ntp537
Rp538
(dp539
g154
I2
sg155
I10
sg156
I0
sg157
I1
sbag0
(g50
g2
Ntp540
Rp541
(dp542
g54
g27
sg55
(lp543
(I15
I8
I0
tp544
a(I15
I8
I1
tp545
a(I15
I8
I2
tp546
a(I15
I8
I3
tp547
a(I15
I7
I3
tp548
a(I15
I6
I3
tp549
a(I14
I6
I3
tp550
a(I14
I5
I3
tp551
a(I14
I4
I3
tp552
a(I14
I3
I3
tp553
a(I14
I2
I3
tp554
a(I13
I2
I3
tp555
a(I12
I2
I3
tp556
a(I11
I2
I3
tp557
a(I10
I2
I3
tp558
a(I10
I1
I3
tp559
a(I10
I1
I2
tp560
a(I10
I1
I1
tp561
ag10
asg91
g10
sg92
I14
sbag541
ag541
aI0
aI0
ag94
ag541
aI0
ag195
aI0
aI0
aI0
aI0
aI0
ag159
aI0
aI0
aI0
ag477
aI0
ag339
aI0
ag417
aI0
ag339
aI0
ag417
aI0
ag339
aI0
aI0
aI0
aI0
ag0
(g50
g2
Ntp562
Rp563
(dp564
g54
g30
sg55
(lp565
(I9
I10
I0
tp566
a(I10
I10
I0
tp567
a(I10
I10
I1
tp568
a(I10
I10
I2
tp569
a(I10
I9
I2
tp570
a(I11
I9
I2
tp571
a(I11
I8
I2
tp572
a(I11
I7
I2
tp573
a(I11
I6
I2
tp574
a(I11
I5
I2
tp575
a(I11
I5
I1
tp576
ag19
asg91
g19
sg92
I15
sbaI0
ag563
ag563
ag563
ag521
aI0
aI0
aI0
aI0
aI0
aI0
aI0
ag249
aI0
aI0
ag451
ag52
aI0
aI0
aI0
aI0
ag94
ag94
ag94
ag541
ag195
ag195
aI0
aI0
aI0
aI0
ag159
ag159
ag0
(g150
g2
Ntp577
Rp578
(dp579
g154
I11
sg155
I11
sg156
I0
sg157
I5
sbag563
ag563
ag477
aI0
aI0
ag563
ag417
ag0
(g50
g2
Ntp580
Rp581
(dp582
g54
g21
sg55
(lp583
(I13
I7
I0
tp584
a(I12
I7
I0
tp585
a(I11
I7
I0
tp586
ag26
asg91
g26
sg92
I13
sbaI0
ag563
aI0
ag0
(g150
g2
Ntp587
Rp588
(dp589
g154
I18
sg155
I11
sg156
I0
sg157
I8
sbag339
ag563
aI0
aI0
aI0
ag563
aI0
aI0
aI0
aI0
ag521
aI0
aI0
aI0
aI0
aI0
aI0
aI0
ag249
aI0
aI0
ag451
ag52
ag0
(g50
g2
Ntp590
Rp591
(dp592
g54
g11
sg55
(lp593
(I15
I1
I0
tp594
a(I14
I1
I0
tp595
a(I13
I1
I0
tp596
a(I12
I1
I0
tp597
ag13
asg91
g13
sg92
I5
sbaI0
aI0
aI0
ag0
(g150
g2
Ntp598
Rp599
(dp600
g154
I5
sg155
I12
sg156
I0
sg157
I2
sbag0
(g50
g2
Ntp601
Rp602
(dp603
g54
g27
sg55
(lp604
(I15
I8
I0
tp605
a(I14
I8
I0
tp606
a(I14
I8
I1
tp607
a(I14
I7
I1
tp608
a(I14
I6
I1
tp609
a(I14
I5
I1
tp610
a(I14
I4
I1
tp611
a(I14
I3
I1
tp612
a(I13
I3
I1
tp613
a(I13
I2
I1
tp614
a(I12
I2
I1
tp615
ag13
asg91
g13
sg92
I23
sbaI0
ag541
ag0
(g150
g2
Ntp616
Rp617
(dp618
g154
I7
sg155
I12
sg156
I0
sg157
I3
sbag477
ag477
ag477
aI0
ag159
ag159
ag477
ag0
(g50
g2
Ntp619
Rp620
(dp621
g54
g19
sg55
(lp622
(I11
I5
I0
tp623
a(I12
I5
I0
tp624
a(I12
I5
I1
tp625
a(I12
I5
I2
tp626
a(I12
I6
I2
tp627
a(I12
I7
I2
tp628
a(I12
I8
I2
tp629
a(I12
I9
I2
tp630
a(I12
I10
I2
tp631
a(I12
I11
I2
tp632
a(I12
I11
I1
tp633
ag32
asg91
g32
sg92
I17
sbag620
ag620
ag477
aI0
aI0
ag620
ag417
ag581
aI0
ag620
aI0
aI0
ag339
ag620
aI0
aI0
aI0
ag620
aI0
aI0
aI0
ag620
ag521
ag0
(g150
g2
Ntp634
Rp635
(dp636
g154
I24
sg155
I12
sg156
I0
sg157
I11
sbag620
ag620
aI0
aI0
aI0
aI0
ag249
aI0
aI0
ag451
ag52
ag591
aI0
aI0
aI0
aI0
ag602
aI0
ag541
ag0
(g50
g2
Ntp637
Rp638
(dp639
g54
g15
sg55
(lp640
(I12
I3
I0
tp641
a(I13
I3
I0
tp642
a(I13
I4
I0
tp643
a(I13
I5
I0
tp644
a(I13
I6
I0
tp645
ag21
asg91
g21
sg92
I6
sbag602
aI0
aI0
ag638
ag159
ag417
ag417
ag638
ag159
ag159
ag417
ag638
aI0
aI0
ag417
ag0
(g150
g2
Ntp646
Rp647
(dp648
g154
I13
sg155
I13
sg156
I0
sg157
I7
sbag521
ag521
ag521
ag339
ag339
aI0
ag521
aI0
aI0
aI0
ag521
aI0
aI0
aI0
ag521
aI0
aI0
aI0
aI0
aI0
aI0
aI0
ag249
aI0
aI0
ag451
ag52
ag591
aI0
aI0
aI0
ag0
(g150
g2
Ntp649
Rp650
(dp651
g154
I6
sg155
I14
sg156
I0
sg157
I2
sbaI0
aI0
ag541
ag0
(g50
g2
Ntp652
Rp653
(dp654
g54
g14
sg55
(lp655
(I14
I2
I0
tp656
a(I14
I3
I0
tp657
a(I15
I3
I0
tp658
a(I15
I4
I0
tp659
a(I15
I5
I0
tp660
a(I15
I6
I0
tp661
a(I16
I6
I0
tp662
ag22
asg91
g22
sg92
I26
sbag602
aI0
ag541
aI0
ag602
ag417
ag541
aI0
ag602
ag159
ag541
aI0
ag602
aI0
ag541
aI0
ag602
aI0
aI0
ag602
ag602
aI0
aI0
aI0
aI0
aI0
aI0
aI0
aI0
aI0
aI0
aI0
aI0
aI0
aI0
aI0
aI0
aI0
ag249
ag451
ag451
ag451
ag52
ag0
(g150
g2
Ntp663
Rp664
(dp665
g154
I3
sg155
I15
sg156
I0
sg157
I1
sbag52
ag52
ag52
ag417
ag417
ag417
aI0
ag653
aI0
ag417
aI0
ag653
aI0
ag417
aI0
ag653
aI0
ag159
aI0
ag653
aI0
aI0
ag541
aI0
aI0
aI0
ag541
ag0
(g150
g2
Ntp666
Rp667
(dp668
g154
I19
sg155
I15
sg156
I0
sg157
I8
sbag541
ag541
ag541
ag249
ag249
ag249
ag249
aI0
aI0
aI0
ag249
aI0
aI0
aI0
ag249
aI0
aI0
aI0
ag249
aI0
aI0
aI0
aI0
ag159
ag159
ag159
aI0
aI0
aI0
ag159
aI0
aI0
aI0
ag159
aI0
aI0
aI0
ag159
aI0
ag0
(g150
g2
Ntp669
Rp670
(dp671
g154
I12
sg155
I16
sg156
I0
sg157
I5
sbaI0
ag159
aI0
ag653
aI0
aI0
aI0
ag0
(g150
g2
Ntp672
Rp673
(dp674
g154
I14
sg155
I16
sg156
I0
sg157
I7
sbaI0
aI0
aI0
aI0
aI0
aI0
aI0
aI0
aI0
aI0
aI0
aI0
aI0
aI0
aI0
aI0
aI0
aI0
aI0
aI0
aI0
aI0
aI0
aI0
aI0
aI0
aI0
aI0
aI0
aI0
aI0
aI0
aI0
aI0
aI0
aI0
aI0
aI0
aI0
aI0
aI0
aI0
aI0
aI0
aI0
aI0
aI0
aI0
aI0
aI0
aI0
aI0
aI0
aI0
aI0
aI0
aI0
aI0
aI0
aI0
aI0
aI0
aI0
aI0
aI0
aI0
aI0
aI0
aI0
aI0
aI0
aI0
aI0
aI0
aI0
atp675
bsS'x_dim'
p676
I18
sS'nets'
p677
(dp678
I0
g477
sI1
g283
sI2
g0
(g50
g2
Ntp679
Rp680
(dp681
g54
g13
sg55
(lp682
(I12
I2
I0
tp683
ag15
asg91
g15
sg92
I2
sbsI3
g330
sI4
g397
sI5
g591
sI6
g638
sI7
g52
sI8
g304
sI9
g521
sI10
g382
sI11
g231
sI12
g361
sI13
g581
sI14
g541
sI15
g563
sI16
g409
sI17
g620
sI18
g417
sI19
g122
sI20
g451
sI21
g249
sI22
g217
sI23
g602
sI24
g159
sI25
g94
sI26
g653
sI27
g195
sI28
g339
sI29
g503
ssb.