ccopy_reg
_reconstructor
p0
(cmodules.Objects
Board
p1
c__builtin__
object
p2
Ntp3
Rp4
(dp5
S'gates'
p6
(dp7
I0
g0
(cmodules.Objects
Gate
p8
g2
Ntp9
Rp10
(dp11
S'gate_id'
p12
I0
sS'x'
p13
I1
sS'z'
p14
I0
sS'y'
p15
I1
sbsI1
g0
(g8
g2
Ntp16
Rp17
(dp18
g12
I1
sg13
I6
sg14
I0
sg15
I1
sbsI2
g0
(g8
g2
Ntp19
Rp20
(dp21
g12
I2
sg13
I10
sg14
I0
sg15
I1
sbsI3
g0
(g8
g2
Ntp22
Rp23
(dp24
g12
I3
sg13
I15
sg14
I0
sg15
I1
sbsI4
g0
(g8
g2
Ntp25
Rp26
(dp27
g12
I4
sg13
I3
sg14
I0
sg15
I2
sbsI5
g0
(g8
g2
Ntp28
Rp29
(dp30
g12
I5
sg13
I12
sg14
I0
sg15
I2
sbsI6
g0
(g8
g2
Ntp31
Rp32
(dp33
g12
I6
sg13
I14
sg14
I0
sg15
I2
sbsI7
g0
(g8
g2
Ntp34
Rp35
(dp36
g12
I7
sg13
I12
sg14
I0
sg15
I3
sbsI8
g0
(g8
g2
Ntp37
Rp38
(dp39
g12
I8
sg13
I8
sg14
I0
sg15
I4
sbsI9
g0
(g8
g2
Ntp40
Rp41
(dp42
g12
I9
sg13
I1
sg14
I0
sg15
I5
sbsI10
g0
(g8
g2
Ntp43
Rp44
(dp45
g12
I10
sg13
I4
sg14
I0
sg15
I5
sbsI11
g0
(g8
g2
Ntp46
Rp47
(dp48
g12
I11
sg13
I11
sg14
I0
sg15
I5
sbsI12
g0
(g8
g2
Ntp49
Rp50
(dp51
g12
I12
sg13
I16
sg14
I0
sg15
I5
sbsI13
g0
(g8
g2
Ntp52
Rp53
(dp54
g12
I13
sg13
I13
sg14
I0
sg15
I7
sbsI14
g0
(g8
g2
Ntp55
Rp56
(dp57
g12
I14
sg13
I16
sg14
I0
sg15
I7
sbsI15
g0
(g8
g2
Ntp58
Rp59
(dp60
g12
I15
sg13
I2
sg14
I0
sg15
I8
sbsI16
g0
(g8
g2
Ntp61
Rp62
(dp63
g12
I16
sg13
I6
sg14
I0
sg15
I8
sbsI17
g0
(g8
g2
Ntp64
Rp65
(dp66
g12
I17
sg13
I9
sg14
I0
sg15
I8
sbsI18
g0
(g8
g2
Ntp67
Rp68
(dp69
g12
I18
sg13
I11
sg14
I0
sg15
I8
sbsI19
g0
(g8
g2
Ntp70
Rp71
(dp72
g12
I19
sg13
I15
sg14
I0
sg15
I8
sbsI20
g0
(g8
g2
Ntp73
Rp74
(dp75
g12
I20
sg13
I1
sg14
I0
sg15
I9
sbsI21
g0
(g8
g2
Ntp76
Rp77
(dp78
g12
I21
sg13
I2
sg14
I0
sg15
I10
sbsI22
g0
(g8
g2
Ntp79
Rp80
(dp81
g12
I22
sg13
I9
sg14
I0
sg15
I10
sbsI23
g0
(g8
g2
Ntp82
Rp83
(dp84
g12
I23
sg13
I1
sg14
I0
sg15
I11
sbsI24
g0
(g8
g2
Ntp85
Rp86
(dp87
g12
I24
sg13
I12
sg14
I0
sg15
I11
sbssS'y_dim'
p88
I13
sS'z_dim'
p89
I5
sS'board'
p90
cnumpy.core.multiarray
_reconstruct
p91
(cnumpy
ndarray
p92
(I0
tp93
S'b'
p94
tp95
Rp96
(I1
(I18
I13
I5
tp97
cnumpy
dtype
p98
(S'O8'
p99
I0
I1
tp100
Rp101
(I3
S'|'
p102
NNNI-1
I-1
I63
tp103
bI00
(lp104
I0
aI0
aI0
ag0
(cmodules.Objects
Net
p105
g2
Ntp106
Rp107
(dp108
S'start_gate'
p109
I2
sS'path'
p110
(lp111
(I10
I1
I0
tp112
a(I10
I0
I0
tp113
a(I10
I0
I1
tp114
a(I10
I0
I2
tp115
a(I10
I0
I3
tp116
a(I9
I0
I3
tp117
a(I8
I0
I3
tp118
a(I7
I0
I3
tp119
a(I6
I0
I3
tp120
a(I5
I0
I3
tp121
a(I4
I0
I3
tp122
a(I3
I0
I3
tp123
a(I2
I0
I3
tp124
a(I1
I0
I3
tp125
a(I0
I0
I3
tp126
a(I0
I1
I3
tp127
a(I0
I2
I3
tp128
a(I0
I3
I3
tp129
a(I0
I4
I3
tp130
a(I0
I5
I3
tp131
a(I0
I6
I3
tp132
a(I0
I7
I3
tp133
a(I0
I8
I3
tp134
a(I0
I9
I3
tp135
a(I0
I9
I2
tp136
a(I0
I9
I1
tp137
a(I0
I9
I0
tp138
a(I1
I9
I0
tp139
asS'end_gate'
p140
I20
sS'net_id'
p141
I18
sbag0
(g105
g2
Ntp142
Rp143
(dp144
g109
I3
sg110
(lp145
(I15
I1
I0
tp146
a(I15
I1
I1
tp147
a(I15
I1
I2
tp148
a(I15
I1
I3
tp149
a(I15
I1
I4
tp150
a(I15
I0
I4
tp151
a(I14
I0
I4
tp152
a(I13
I0
I4
tp153
a(I12
I0
I4
tp154
a(I11
I0
I4
tp155
a(I10
I0
I4
tp156
a(I9
I0
I4
tp157
a(I8
I0
I4
tp158
a(I7
I0
I4
tp159
a(I6
I0
I4
tp160
a(I5
I0
I4
tp161
a(I4
I0
I4
tp162
a(I3
I0
I4
tp163
a(I2
I0
I4
tp164
a(I1
I0
I4
tp165
a(I0
I0
I4
tp166
a(I0
I1
I4
tp167
a(I0
I2
I4
tp168
a(I0
I3
I4
tp169
a(I0
I4
I4
tp170
a(I0
I5
I4
tp171
a(I0
I6
I4
tp172
a(I0
I7
I4
tp173
a(I0
I8
I4
tp174
a(I0
I9
I4
tp175
a(I0
I10
I4
tp176
a(I0
I11
I4
tp177
a(I0
I11
I3
tp178
a(I0
I11
I2
tp179
a(I0
I11
I1
tp180
a(I0
I11
I0
tp181
a(I1
I11
I0
tp182
asg140
I23
sg141
I6
sbaI0
aI0
aI0
ag107
ag143
aI0
aI0
aI0
ag107
ag143
aI0
aI0
aI0
ag107
ag143
aI0
aI0
aI0
ag107
ag143
aI0
aI0
aI0
ag107
ag143
aI0
aI0
aI0
ag107
ag143
aI0
aI0
aI0
ag107
ag143
aI0
aI0
aI0
ag107
ag143
ag107
ag107
ag107
ag107
ag143
aI0
aI0
aI0
aI0
ag143
ag143
ag143
ag143
ag143
ag143
aI0
aI0
aI0
aI0
aI0
aI0
aI0
aI0
ag107
ag143
ag10
ag0
(g105
g2
Ntp183
Rp184
(dp185
g109
I3
sg110
(lp186
(I15
I1
I0
tp187
a(I16
I1
I0
tp188
a(I16
I1
I1
tp189
a(I16
I1
I2
tp190
a(I16
I1
I3
tp191
a(I16
I1
I4
tp192
a(I16
I2
I4
tp193
a(I16
I3
I4
tp194
a(I15
I3
I4
tp195
a(I14
I3
I4
tp196
a(I13
I3
I4
tp197
a(I12
I3
I4
tp198
a(I11
I3
I4
tp199
a(I11
I3
I3
tp200
a(I10
I3
I3
tp201
a(I9
I3
I3
tp202
a(I8
I3
I3
tp203
a(I7
I3
I3
tp204
a(I6
I3
I3
tp205
a(I5
I3
I3
tp206
a(I4
I3
I3
tp207
a(I3
I3
I3
tp208
a(I2
I3
I3
tp209
a(I1
I3
I3
tp210
a(I1
I2
I3
tp211
a(I1
I1
I3
tp212
a(I1
I1
I2
tp213
a(I1
I1
I1
tp214
a(I1
I1
I0
tp215
asg140
I0
sg141
I23
sbag184
ag184
aI0
aI0
aI0
aI0
ag184
aI0
aI0
ag0
(g105
g2
Ntp216
Rp217
(dp218
g109
I7
sg110
(lp219
(I12
I3
I0
tp220
a(I11
I3
I0
tp221
a(I10
I3
I0
tp222
a(I10
I3
I1
tp223
a(I9
I3
I1
tp224
a(I8
I3
I1
tp225
a(I7
I3
I1
tp226
a(I6
I3
I1
tp227
a(I5
I3
I1
tp228
a(I4
I3
I1
tp229
a(I3
I3
I1
tp230
a(I2
I3
I1
tp231
a(I1
I3
I1
tp232
a(I1
I4
I1
tp233
a(I1
I4
I0
tp234
a(I1
I5
I0
tp235
asg140
I9
sg141
I26
sbaI0
ag184
aI0
ag217
ag217
ag0
(g105
g2
Ntp236
Rp237
(dp238
g109
I15
sg110
(lp239
(I2
I8
I0
tp240
a(I1
I8
I0
tp241
a(I1
I8
I1
tp242
a(I1
I8
I2
tp243
a(I1
I7
I2
tp244
a(I1
I6
I2
tp245
a(I1
I5
I2
tp246
a(I1
I4
I2
tp247
a(I2
I4
I2
tp248
a(I3
I4
I2
tp249
a(I4
I4
I2
tp250
a(I5
I4
I2
tp251
a(I6
I4
I2
tp252
a(I7
I4
I2
tp253
a(I7
I3
I2
tp254
a(I8
I3
I2
tp255
a(I9
I3
I2
tp256
a(I10
I3
I2
tp257
a(I11
I3
I2
tp258
a(I11
I3
I1
tp259
a(I11
I2
I1
tp260
a(I11
I2
I0
tp261
a(I12
I2
I0
tp262
asg140
I5
sg141
I24
sbaI0
aI0
ag41
ag0
(g105
g2
Ntp263
Rp264
(dp265
g109
I16
sg110
(lp266
(I6
I8
I0
tp267
a(I6
I8
I1
tp268
a(I6
I7
I1
tp269
a(I5
I7
I1
tp270
a(I5
I6
I1
tp271
a(I4
I6
I1
tp272
a(I3
I6
I1
tp273
a(I2
I6
I1
tp274
a(I1
I6
I1
tp275
a(I1
I5
I1
tp276
a(I1
I5
I0
tp277
asg140
I9
sg141
I21
sbag237
aI0
aI0
aI0
ag264
ag237
aI0
aI0
aI0
aI0
ag237
ag0
(g105
g2
Ntp278
Rp279
(dp280
g109
I20
sg110
(lp281
(I1
I9
I0
tp282
a(I1
I9
I1
tp283
a(I1
I9
I2
tp284
a(I1
I9
I3
tp285
a(I1
I8
I3
tp286
a(I1
I7
I3
tp287
a(I2
I7
I3
tp288
a(I2
I6
I3
tp289
a(I2
I5
I3
tp290
a(I3
I5
I3
tp291
a(I4
I5
I3
tp292
a(I4
I5
I2
tp293
a(I4
I5
I1
tp294
a(I4
I5
I0
tp295
asg140
I10
sg141
I10
sbaI0
ag237
ag237
ag237
ag279
aI0
ag74
ag279
ag279
ag279
aI0
ag0
(g105
g2
Ntp296
Rp297
(dp298
g109
I20
sg110
(lp299
(I1
I9
I0
tp300
a(I1
I10
I0
tp301
a(I1
I10
I1
tp302
a(I1
I10
I2
tp303
a(I1
I10
I3
tp304
a(I2
I10
I3
tp305
a(I3
I10
I3
tp306
a(I4
I10
I3
tp307
a(I5
I10
I3
tp308
a(I6
I10
I3
tp309
a(I7
I10
I3
tp310
a(I7
I9
I3
tp311
a(I8
I9
I3
tp312
a(I9
I9
I3
tp313
a(I10
I9
I3
tp314
a(I11
I9
I3
tp315
a(I12
I9
I3
tp316
a(I13
I9
I3
tp317
a(I14
I9
I3
tp318
a(I15
I9
I3
tp319
a(I15
I9
I2
tp320
a(I15
I9
I1
tp321
a(I15
I9
I0
tp322
a(I15
I8
I0
tp323
asg140
I19
sg141
I20
sbag297
ag297
ag297
aI0
ag83
ag0
(g105
g2
Ntp324
Rp325
(dp326
g109
I23
sg110
(lp327
(I1
I11
I0
tp328
a(I1
I11
I1
tp329
a(I1
I11
I2
tp330
a(I1
I11
I3
tp331
a(I1
I11
I4
tp332
a(I2
I11
I4
tp333
a(I3
I11
I4
tp334
a(I3
I10
I4
tp335
a(I3
I9
I4
tp336
a(I3
I8
I4
tp337
a(I3
I7
I4
tp338
a(I3
I6
I4
tp339
a(I3
I5
I4
tp340
a(I3
I4
I4
tp341
a(I3
I3
I4
tp342
a(I3
I2
I4
tp343
a(I3
I2
I3
tp344
a(I3
I2
I2
tp345
a(I3
I2
I1
tp346
a(I3
I2
I0
tp347
asg140
I4
sg141
I0
sbag325
ag325
ag325
ag0
(g105
g2
Ntp348
Rp349
(dp350
g109
I23
sg110
(lp351
(I1
I11
I0
tp352
a(I1
I12
I0
tp353
a(I1
I12
I1
tp354
a(I1
I12
I2
tp355
a(I1
I12
I3
tp356
a(I1
I12
I4
tp357
a(I2
I12
I4
tp358
a(I3
I12
I4
tp359
a(I4
I12
I4
tp360
a(I5
I12
I4
tp361
a(I6
I12
I4
tp362
a(I7
I12
I4
tp363
a(I8
I12
I4
tp364
a(I8
I11
I4
tp365
a(I8
I10
I4
tp366
a(I8
I9
I4
tp367
a(I8
I8
I4
tp368
a(I8
I7
I4
tp369
a(I8
I6
I4
tp370
a(I8
I5
I4
tp371
a(I8
I4
I4
tp372
a(I8
I4
I3
tp373
a(I8
I4
I2
tp374
a(I8
I4
I1
tp375
a(I8
I4
I0
tp376
asg140
I8
sg141
I7
sbag349
ag349
ag349
ag349
aI0
aI0
aI0
ag107
ag143
ag0
(g105
g2
Ntp377
Rp378
(dp379
g109
I1
sg110
(lp380
(I6
I1
I0
tp381
a(I5
I1
I0
tp382
a(I4
I1
I0
tp383
a(I3
I1
I0
tp384
a(I2
I1
I0
tp385
a(I1
I1
I0
tp386
asg140
I0
sg141
I2
sbaI0
aI0
aI0
aI0
aI0
aI0
aI0
aI0
aI0
aI0
ag217
aI0
ag184
aI0
aI0
aI0
ag237
aI0
aI0
ag0
(g105
g2
Ntp387
Rp388
(dp389
g109
I9
sg110
(lp390
(I1
I5
I0
tp391
a(I2
I5
I0
tp392
a(I2
I5
I1
tp393
a(I3
I5
I1
tp394
a(I3
I4
I1
tp395
a(I4
I4
I1
tp396
a(I5
I4
I1
tp397
a(I5
I5
I1
tp398
a(I5
I5
I2
tp399
a(I5
I5
I3
tp400
a(I6
I5
I3
tp401
a(I7
I5
I3
tp402
a(I7
I6
I3
tp403
a(I7
I7
I3
tp404
a(I8
I7
I3
tp405
a(I9
I7
I3
tp406
a(I10
I7
I3
tp407
a(I11
I7
I3
tp408
a(I12
I7
I3
tp409
a(I12
I8
I3
tp410
a(I13
I8
I3
tp411
a(I13
I8
I2
tp412
a(I13
I8
I1
tp413
a(I13
I8
I0
tp414
a(I13
I7
I0
tp415
asg140
I13
sg141
I27
sbag388
aI0
ag279
aI0
aI0
ag264
aI0
ag279
aI0
ag0
(g105
g2
Ntp416
Rp417
(dp418
g109
I15
sg110
(lp419
(I2
I8
I0
tp420
a(I2
I7
I0
tp421
a(I2
I7
I1
tp422
a(I2
I7
I2
tp423
a(I3
I7
I2
tp424
a(I3
I6
I2
tp425
a(I4
I6
I2
tp426
a(I5
I6
I2
tp427
a(I6
I6
I2
tp428
a(I7
I6
I2
tp429
a(I8
I6
I2
tp430
a(I8
I5
I2
tp431
a(I8
I5
I1
tp432
a(I8
I5
I0
tp433
a(I8
I4
I0
tp434
asg140
I8
sg141
I11
sbag417
ag417
ag279
aI0
ag59
ag0
(g105
g2
Ntp435
Rp436
(dp437
g109
I15
sg110
(lp438
(I2
I8
I0
tp439
a(I2
I8
I1
tp440
a(I2
I8
I2
tp441
a(I3
I8
I2
tp442
a(I4
I8
I2
tp443
a(I5
I8
I2
tp444
a(I6
I8
I2
tp445
a(I7
I8
I2
tp446
a(I8
I8
I2
tp447
a(I9
I8
I2
tp448
a(I9
I8
I1
tp449
a(I9
I8
I0
tp450
asg140
I17
sg141
I9
sbag436
aI0
aI0
ag0
(g105
g2
Ntp451
Rp452
(dp453
g109
I15
sg110
(lp454
(I2
I8
I0
tp455
a(I2
I9
I0
tp456
a(I2
I10
I0
tp457
asg140
I21
sg141
I3
sbaI0
aI0
aI0
aI0
ag77
aI0
aI0
ag297
aI0
aI0
aI0
aI0
aI0
ag325
aI0
aI0
aI0
aI0
ag349
aI0
aI0
aI0
ag107
ag143
ag378
aI0
aI0
aI0
aI0
ag26
ag325
ag325
ag325
ag325
ag0
(g105
g2
Ntp458
Rp459
(dp460
g109
I10
sg110
(lp461
(I4
I5
I0
tp462
a(I3
I5
I0
tp463
a(I3
I4
I0
tp464
a(I3
I3
I0
tp465
a(I3
I2
I0
tp466
asg140
I4
sg141
I15
sbag217
aI0
ag184
ag325
ag459
ag388
ag237
aI0
ag325
ag459
ag388
aI0
ag279
ag325
aI0
ag264
ag417
aI0
ag325
aI0
aI0
ag417
aI0
ag325
ag0
(g105
g2
Ntp467
Rp468
(dp469
g109
I3
sg110
(lp470
(I15
I1
I0
tp471
a(I15
I2
I0
tp472
a(I15
I2
I1
tp473
a(I15
I2
I2
tp474
a(I15
I2
I3
tp475
a(I14
I2
I3
tp476
a(I13
I2
I3
tp477
a(I12
I2
I3
tp478
a(I11
I2
I3
tp479
a(I10
I2
I3
tp480
a(I9
I2
I3
tp481
a(I9
I2
I4
tp482
a(I8
I2
I4
tp483
a(I7
I2
I4
tp484
a(I6
I2
I4
tp485
a(I5
I2
I4
tp486
a(I5
I3
I4
tp487
a(I5
I4
I4
tp488
a(I5
I5
I4
tp489
a(I5
I6
I4
tp490
a(I5
I7
I4
tp491
a(I4
I7
I4
tp492
a(I4
I7
I3
tp493
a(I4
I7
I2
tp494
a(I4
I7
I1
tp495
a(I4
I8
I1
tp496
a(I3
I8
I1
tp497
a(I3
I8
I0
tp498
a(I2
I8
I0
tp499
asg140
I15
sg141
I17
sbag468
ag436
aI0
ag325
aI0
aI0
aI0
aI0
ag325
aI0
aI0
aI0
ag297
ag325
aI0
aI0
aI0
aI0
ag325
aI0
aI0
aI0
aI0
ag349
aI0
aI0
aI0
ag107
ag143
ag378
aI0
aI0
aI0
aI0
ag0
(g105
g2
Ntp500
Rp501
(dp502
g109
I3
sg110
(lp503
(I15
I1
I0
tp504
a(I15
I0
I0
tp505
a(I15
I0
I1
tp506
a(I15
I0
I2
tp507
a(I14
I0
I2
tp508
a(I13
I0
I2
tp509
a(I12
I0
I2
tp510
a(I11
I0
I2
tp511
a(I11
I1
I2
tp512
a(I11
I2
I2
tp513
a(I10
I2
I2
tp514
a(I9
I2
I2
tp515
a(I8
I2
I2
tp516
a(I7
I2
I2
tp517
a(I6
I2
I2
tp518
a(I5
I2
I2
tp519
a(I4
I2
I2
tp520
a(I4
I2
I1
tp521
a(I4
I2
I0
tp522
a(I3
I2
I0
tp523
asg140
I4
sg141
I19
sbag501
ag501
aI0
aI0
aI0
ag217
aI0
ag184
aI0
aI0
ag388
ag237
aI0
aI0
ag44
ag279
ag279
ag279
aI0
aI0
ag264
ag417
aI0
aI0
aI0
ag468
ag468
ag468
ag468
aI0
ag468
ag436
aI0
aI0
aI0
aI0
aI0
aI0
aI0
aI0
aI0
aI0
ag297
aI0
aI0
aI0
aI0
aI0
aI0
aI0
aI0
aI0
aI0
ag349
aI0
aI0
aI0
ag107
ag143
ag378
aI0
aI0
aI0
aI0
aI0
aI0
ag501
aI0
ag468
aI0
ag217
aI0
ag184
ag468
aI0
ag388
ag237
aI0
ag468
ag0
(g105
g2
Ntp524
Rp525
(dp526
g109
I10
sg110
(lp527
(I4
I5
I0
tp528
a(I5
I5
I0
tp529
a(I6
I5
I0
tp530
a(I6
I5
I1
tp531
a(I7
I5
I1
tp532
a(I7
I6
I1
tp533
a(I8
I6
I1
tp534
a(I9
I6
I1
tp535
a(I9
I6
I2
tp536
a(I10
I6
I2
tp537
a(I10
I5
I2
tp538
a(I10
I4
I2
tp539
a(I11
I4
I2
tp540
a(I12
I4
I2
tp541
a(I12
I4
I1
tp542
a(I12
I3
I1
tp543
a(I12
I3
I0
tp544
asg140
I7
sg141
I29
sbag388
ag388
ag388
ag468
aI0
ag264
ag417
aI0
ag468
aI0
ag264
aI0
aI0
ag468
aI0
aI0
ag436
aI0
aI0
aI0
aI0
aI0
aI0
aI0
aI0
aI0
aI0
ag297
aI0
aI0
aI0
aI0
aI0
aI0
aI0
aI0
aI0
aI0
ag349
aI0
aI0
aI0
ag107
ag143
ag17
aI0
aI0
aI0
aI0
aI0
aI0
ag501
aI0
ag468
aI0
ag217
aI0
ag184
aI0
aI0
aI0
ag237
aI0
aI0
ag525
ag525
aI0
ag388
aI0
aI0
aI0
ag417
aI0
aI0
aI0
ag264
aI0
aI0
aI0
ag62
ag264
ag436
aI0
aI0
ag0
(g105
g2
Ntp545
Rp546
(dp547
g109
I22
sg110
(lp548
(I9
I10
I0
tp549
a(I8
I10
I0
tp550
a(I7
I10
I0
tp551
a(I6
I10
I0
tp552
a(I6
I9
I0
tp553
a(I6
I8
I0
tp554
asg140
I16
sg141
I28
sbaI0
aI0
aI0
aI0
ag546
aI0
aI0
ag297
aI0
aI0
aI0
aI0
aI0
aI0
aI0
aI0
aI0
aI0
ag349
aI0
aI0
aI0
ag107
ag143
aI0
aI0
aI0
aI0
aI0
aI0
aI0
ag501
aI0
ag468
aI0
ag217
ag237
ag184
aI0
aI0
aI0
ag237
aI0
aI0
aI0
ag525
aI0
ag388
aI0
aI0
ag525
ag417
ag388
aI0
aI0
aI0
aI0
ag388
aI0
aI0
aI0
ag436
aI0
aI0
aI0
aI0
aI0
ag297
aI0
ag546
aI0
aI0
ag297
aI0
aI0
aI0
aI0
aI0
aI0
aI0
aI0
aI0
aI0
ag349
aI0
aI0
aI0
ag107
ag143
aI0
aI0
aI0
aI0
aI0
aI0
aI0
ag501
aI0
ag468
aI0
ag217
ag237
ag184
aI0
ag38
ag349
ag349
ag349
ag349
ag417
ag417
ag417
aI0
ag349
aI0
ag525
ag417
aI0
ag349
aI0
aI0
aI0
ag388
ag349
aI0
aI0
ag436
aI0
ag349
aI0
aI0
aI0
ag297
ag349
ag546
aI0
aI0
aI0
ag349
aI0
aI0
aI0
aI0
ag349
aI0
aI0
aI0
aI0
ag349
aI0
aI0
aI0
ag107
ag143
aI0
aI0
aI0
aI0
aI0
aI0
aI0
ag501
ag468
ag468
aI0
ag217
ag237
ag184
aI0
aI0
aI0
aI0
aI0
aI0
aI0
aI0
aI0
aI0
aI0
aI0
ag525
ag525
aI0
aI0
aI0
aI0
aI0
ag388
aI0
ag65
ag436
ag436
aI0
aI0
aI0
aI0
aI0
ag297
aI0
ag80
ag0
(g105
g2
Ntp555
Rp556
(dp557
g109
I22
sg110
(lp558
(I9
I10
I0
tp559
a(I9
I10
I1
tp560
a(I9
I10
I2
tp561
a(I9
I10
I3
tp562
a(I9
I10
I4
tp563
a(I10
I10
I4
tp564
a(I11
I10
I4
tp565
a(I12
I10
I4
tp566
a(I13
I10
I4
tp567
a(I13
I9
I4
tp568
a(I13
I8
I4
tp569
a(I13
I7
I4
tp570
a(I13
I7
I3
tp571
a(I13
I7
I2
tp572
a(I13
I7
I1
tp573
a(I13
I7
I0
tp574
asg140
I13
sg141
I8
sbag556
ag556
ag556
aI0
aI0
aI0
aI0
aI0
aI0
aI0
aI0
aI0
aI0
ag107
ag107
ag107
ag107
ag143
ag20
ag0
(g105
g2
Ntp575
Rp576
(dp577
g109
I19
sg110
(lp578
(I15
I8
I0
tp579
a(I15
I8
I1
tp580
a(I15
I8
I2
tp581
a(I15
I8
I3
tp582
a(I15
I8
I4
tp583
a(I15
I7
I4
tp584
a(I15
I6
I4
tp585
a(I14
I6
I4
tp586
a(I14
I5
I4
tp587
a(I13
I5
I4
tp588
a(I12
I5
I4
tp589
a(I11
I5
I4
tp590
a(I10
I5
I4
tp591
a(I10
I4
I4
tp592
a(I10
I3
I4
tp593
a(I10
I2
I4
tp594
a(I10
I1
I4
tp595
a(I10
I1
I3
tp596
a(I10
I1
I2
tp597
a(I10
I1
I1
tp598
a(I10
I1
I0
tp599
asg140
I2
sg141
I13
sbag576
ag576
ag576
aI0
aI0
ag501
ag468
ag576
ag217
ag217
ag237
ag184
ag576
aI0
aI0
ag525
aI0
ag576
aI0
aI0
ag525
aI0
ag576
aI0
aI0
ag525
aI0
aI0
aI0
aI0
aI0
ag388
aI0
aI0
aI0
aI0
aI0
aI0
aI0
aI0
aI0
ag297
aI0
ag0
(g105
g2
Ntp600
Rp601
(dp602
g109
I22
sg110
(lp603
(I9
I10
I0
tp604
a(I10
I10
I0
tp605
a(I10
I10
I1
tp606
a(I10
I10
I2
tp607
a(I11
I10
I2
tp608
a(I11
I9
I2
tp609
a(I11
I8
I2
tp610
a(I11
I7
I2
tp611
a(I11
I6
I2
tp612
a(I11
I5
I2
tp613
a(I11
I5
I1
tp614
a(I11
I5
I0
tp615
asg140
I11
sg141
I14
sbag601
ag601
aI0
ag556
aI0
aI0
aI0
aI0
aI0
aI0
aI0
aI0
aI0
aI0
aI0
aI0
ag501
aI0
ag143
aI0
aI0
ag501
aI0
aI0
ag237
ag237
ag501
ag468
aI0
ag217
ag237
ag237
ag184
ag184
aI0
aI0
ag525
aI0
aI0
ag47
ag601
ag601
aI0
ag576
aI0
aI0
ag601
aI0
aI0
ag0
(g105
g2
Ntp616
Rp617
(dp618
g109
I13
sg110
(lp619
(I13
I7
I0
tp620
a(I12
I7
I0
tp621
a(I11
I7
I0
tp622
a(I11
I8
I0
tp623
asg140
I18
sg141
I12
sbaI0
ag601
ag388
aI0
ag68
aI0
ag601
aI0
aI0
aI0
aI0
ag601
ag297
aI0
aI0
aI0
ag601
aI0
ag556
aI0
aI0
aI0
aI0
aI0
aI0
aI0
aI0
aI0
aI0
aI0
aI0
ag501
aI0
ag143
ag0
(g105
g2
Ntp624
Rp625
(dp626
g109
I3
sg110
(lp627
(I15
I1
I0
tp628
a(I14
I1
I0
tp629
a(I13
I1
I0
tp630
a(I12
I1
I0
tp631
a(I12
I2
I0
tp632
asg140
I5
sg141
I4
sbaI0
aI0
aI0
aI0
ag29
ag0
(g105
g2
Ntp633
Rp634
(dp635
g109
I19
sg110
(lp636
(I15
I8
I0
tp637
a(I14
I8
I0
tp638
a(I14
I8
I1
tp639
a(I14
I8
I2
tp640
a(I14
I7
I2
tp641
a(I14
I6
I2
tp642
a(I14
I5
I2
tp643
a(I14
I4
I2
tp644
a(I13
I4
I2
tp645
a(I13
I3
I2
tp646
a(I12
I3
I2
tp647
a(I12
I2
I2
tp648
a(I12
I2
I1
tp649
a(I12
I2
I0
tp650
asg140
I5
sg141
I22
sbag634
ag468
aI0
ag35
ag525
ag634
aI0
ag184
aI0
ag525
ag525
aI0
aI0
ag0
(g105
g2
Ntp651
Rp652
(dp653
g109
I11
sg110
(lp654
(I11
I5
I0
tp655
a(I12
I5
I0
tp656
a(I12
I5
I1
tp657
a(I12
I5
I2
tp658
a(I12
I6
I2
tp659
a(I12
I7
I2
tp660
a(I12
I8
I2
tp661
a(I12
I9
I2
tp662
a(I12
I10
I2
tp663
a(I12
I11
I2
tp664
a(I12
I11
I1
tp665
a(I12
I11
I0
tp666
asg140
I24
sg141
I16
sbag652
ag652
aI0
ag576
aI0
aI0
ag652
aI0
aI0
ag617
aI0
ag652
ag388
aI0
aI0
aI0
ag652
ag388
aI0
aI0
aI0
ag652
ag297
aI0
aI0
aI0
ag652
aI0
ag556
ag86
ag652
ag652
aI0
aI0
aI0
aI0
aI0
aI0
aI0
aI0
aI0
ag501
aI0
ag143
ag625
aI0
aI0
aI0
aI0
aI0
aI0
aI0
ag468
aI0
ag0
(g105
g2
Ntp667
Rp668
(dp669
g109
I7
sg110
(lp670
(I12
I3
I0
tp671
a(I13
I3
I0
tp672
a(I13
I4
I0
tp673
a(I13
I5
I0
tp674
a(I13
I6
I0
tp675
a(I13
I7
I0
tp676
asg140
I13
sg141
I5
sbaI0
ag634
aI0
ag184
ag668
aI0
ag634
aI0
aI0
ag668
aI0
aI0
aI0
ag576
ag668
aI0
aI0
aI0
aI0
ag53
ag556
ag556
ag556
ag556
ag388
ag388
ag388
ag388
ag556
aI0
aI0
aI0
ag297
ag556
aI0
aI0
aI0
aI0
ag556
aI0
aI0
aI0
aI0
aI0
aI0
aI0
aI0
aI0
aI0
aI0
aI0
ag501
aI0
ag143
ag625
aI0
aI0
aI0
aI0
ag32
ag0
(g105
g2
Ntp677
Rp678
(dp679
g109
I6
sg110
(lp680
(I14
I2
I0
tp681
a(I14
I2
I1
tp682
a(I14
I2
I2
tp683
a(I14
I3
I2
tp684
a(I15
I3
I2
tp685
a(I16
I3
I2
tp686
a(I16
I4
I2
tp687
a(I16
I5
I2
tp688
a(I16
I6
I2
tp689
a(I16
I7
I2
tp690
a(I16
I7
I1
tp691
a(I16
I7
I0
tp692
asg140
I14
sg141
I25
sbag678
ag468
aI0
aI0
aI0
ag678
aI0
ag184
aI0
aI0
ag634
aI0
aI0
aI0
aI0
ag634
aI0
ag576
aI0
aI0
ag634
aI0
ag576
aI0
aI0
ag634
aI0
aI0
ag634
ag634
ag634
aI0
aI0
aI0
aI0
aI0
ag297
aI0
aI0
aI0
aI0
aI0
aI0
aI0
aI0
aI0
aI0
aI0
aI0
aI0
aI0
aI0
aI0
ag501
ag501
ag501
aI0
ag143
ag23
ag143
ag143
ag143
ag143
ag468
ag468
ag468
ag468
aI0
aI0
aI0
ag678
aI0
ag184
aI0
aI0
aI0
aI0
aI0
aI0
aI0
aI0
aI0
aI0
aI0
aI0
aI0
aI0
ag576
aI0
aI0
aI0
aI0
ag576
ag71
ag576
ag576
ag576
ag576
ag297
ag297
ag297
ag297
aI0
aI0
aI0
aI0
aI0
aI0
aI0
aI0
aI0
aI0
aI0
aI0
aI0
aI0
aI0
aI0
aI0
aI0
aI0
aI0
aI0
ag184
ag184
ag184
ag184
ag184
aI0
aI0
aI0
aI0
ag184
aI0
aI0
ag678
aI0
ag184
aI0
aI0
ag678
aI0
aI0
ag50
aI0
ag678
aI0
aI0
aI0
aI0
ag678
aI0
aI0
ag56
ag678
ag678
aI0
aI0
aI0
aI0
aI0
aI0
aI0
aI0
aI0
aI0
aI0
aI0
aI0
aI0
aI0
aI0
aI0
aI0
aI0
aI0
aI0
aI0
aI0
aI0
aI0
aI0
aI0
aI0
aI0
aI0
aI0
aI0
aI0
aI0
aI0
aI0
aI0
aI0
aI0
aI0
aI0
aI0
aI0
aI0
aI0
aI0
aI0
aI0
aI0
aI0
aI0
aI0
aI0
aI0
aI0
aI0
aI0
aI0
aI0
aI0
aI0
aI0
aI0
aI0
aI0
aI0
aI0
aI0
aI0
aI0
aI0
aI0
aI0
aI0
aI0
aI0
aI0
aI0
aI0
aI0
aI0
aI0
aI0
aI0
aI0
aI0
aI0
aI0
aI0
aI0
aI0
aI0
atp693
bsS'x_dim'
p694
I18
sS'nets'
p695
(dp696
I0
g325
sI1
g0
(g105
g2
Ntp697
Rp698
(dp699
g109
I5
sg110
(lp700
(I12
I2
I0
tp701
a(I12
I3
I0
tp702
asg140
I7
sg141
I1
sbsI2
g378
sI3
g452
sI4
g625
sI5
g668
sI6
g143
sI7
g349
sI8
g556
sI9
g436
sI10
g279
sI11
g417
sI12
g617
sI13
g576
sI14
g601
sI15
g459
sI16
g652
sI17
g468
sI18
g107
sI19
g501
sI20
g297
sI21
g264
sI22
g634
sI23
g184
sI24
g237
sI25
g678
sI26
g217
sI27
g388
sI28
g546
sI29
g525
ssb.