ccopy_reg
_reconstructor
p0
(cmodules.Objects
Board
p1
c__builtin__
object
p2
Ntp3
Rp4
(dp5
S'gates'
p6
(dp7
I0
(I1
I1
I0
tp8
sI1
(I6
I1
I0
tp9
sI2
(I10
I1
I0
tp10
sI3
(I15
I1
I0
tp11
sI4
(I3
I2
I0
tp12
sI5
(I12
I2
I0
tp13
sI6
(I14
I2
I0
tp14
sI7
(I12
I3
I0
tp15
sI8
(I8
I4
I0
tp16
sI9
(I1
I5
I0
tp17
sI10
(I4
I5
I0
tp18
sI11
(I11
I5
I0
tp19
sI12
(I16
I5
I0
tp20
sI13
(I13
I7
I0
tp21
sI14
(I16
I7
I0
tp22
sI15
(I2
I8
I0
tp23
sI16
(I6
I8
I0
tp24
sI17
(I9
I8
I0
tp25
sI18
(I11
I8
I0
tp26
sI19
(I15
I8
I0
tp27
sI20
(I1
I9
I0
tp28
sI21
(I2
I10
I0
tp29
sI22
(I9
I10
I0
tp30
sI23
(I1
I11
I0
tp31
sI24
(I12
I11
I0
tp32
ssS'board'
p33
cnumpy.core.multiarray
_reconstruct
p34
(cnumpy
ndarray
p35
(I0
tp36
S'b'
p37
tp38
Rp39
(I1
(I18
I13
I10
tp40
cnumpy
dtype
p41
(S'O8'
p42
I0
I1
tp43
Rp44
(I3
S'|'
p45
NNNI-1
I-1
I63
tp46
bI00
(lp47
g0
(cmodules.Objects
Net
p48
g2
Ntp49
Rp50
(dp51
S'start_gate'
p52
g11
sS'path'
p53
(lp54
(I15
I1
I0
tp55
a(I15
I0
I0
tp56
a(I14
I0
I0
tp57
a(I13
I0
I0
tp58
a(I12
I0
I0
tp59
a(I11
I0
I0
tp60
a(I10
I0
I0
tp61
a(I9
I0
I0
tp62
a(I8
I0
I0
tp63
a(I7
I0
I0
tp64
a(I6
I0
I0
tp65
a(I5
I0
I0
tp66
a(I4
I0
I0
tp67
a(I3
I0
I0
tp68
a(I2
I0
I0
tp69
a(I1
I0
I0
tp70
a(I0
I0
I0
tp71
a(I0
I1
I0
tp72
a(I0
I2
I0
tp73
a(I0
I3
I0
tp74
a(I0
I4
I0
tp75
a(I0
I5
I0
tp76
a(I0
I6
I0
tp77
a(I0
I6
I1
tp78
a(I1
I6
I1
tp79
a(I1
I7
I1
tp80
a(I1
I8
I1
tp81
a(I1
I8
I0
tp82
ag23
asS'end_gate'
p83
g23
sS'net_id'
p84
I17
sbaI0
aI0
aI0
aI0
aI0
aI0
aI0
aI0
aI0
ag50
aI0
aI0
aI0
aI0
aI0
aI0
aI0
aI0
aI0
ag50
aI0
aI0
aI0
aI0
aI0
aI0
aI0
aI0
aI0
ag50
aI0
aI0
aI0
aI0
aI0
aI0
aI0
aI0
aI0
ag50
aI0
ag0
(g48
g2
Ntp85
Rp86
(dp87
g52
g31
sg53
(lp88
(I1
I11
I0
tp89
a(I0
I11
I0
tp90
a(I0
I10
I0
tp91
a(I0
I10
I1
tp92
a(I0
I9
I1
tp93
a(I0
I8
I1
tp94
a(I0
I7
I1
tp95
a(I0
I7
I2
tp96
a(I0
I6
I2
tp97
a(I0
I5
I2
tp98
a(I0
I4
I2
tp99
a(I1
I4
I2
tp100
a(I2
I4
I2
tp101
a(I3
I4
I2
tp102
a(I3
I3
I2
tp103
a(I3
I2
I2
tp104
a(I3
I2
I1
tp105
ag12
asg83
g12
sg84
I0
sbaI0
aI0
aI0
aI0
aI0
aI0
aI0
ag50
aI0
ag86
aI0
aI0
aI0
aI0
aI0
aI0
aI0
ag50
ag50
ag86
aI0
aI0
aI0
aI0
aI0
aI0
aI0
ag0
(g48
g2
Ntp106
Rp107
(dp108
g52
g10
sg53
(lp109
(I10
I1
I0
tp110
a(I9
I1
I0
tp111
a(I8
I1
I0
tp112
a(I7
I1
I0
tp113
a(I7
I2
I0
tp114
a(I6
I2
I0
tp115
a(I6
I3
I0
tp116
a(I6
I4
I0
tp117
a(I6
I5
I0
tp118
a(I6
I6
I0
tp119
a(I5
I6
I0
tp120
a(I4
I6
I0
tp121
a(I3
I6
I0
tp122
a(I2
I6
I0
tp123
a(I1
I6
I0
tp124
a(I1
I7
I0
tp125
a(I0
I7
I0
tp126
a(I0
I8
I0
tp127
a(I0
I9
I0
tp128
ag28
asg83
g28
sg84
I18
sbag86
ag86
aI0
aI0
aI0
aI0
aI0
aI0
aI0
ag107
ag86
aI0
aI0
aI0
aI0
aI0
aI0
aI0
aI0
ag107
ag86
aI0
aI0
aI0
aI0
aI0
aI0
aI0
aI0
ag86
ag86
aI0
aI0
aI0
aI0
aI0
aI0
aI0
aI0
ag86
aI0
aI0
aI0
aI0
aI0
aI0
aI0
aI0
aI0
aI0
aI0
aI0
aI0
aI0
aI0
aI0
aI0
aI0
aI0
ag50
ag0
(g48
g2
Ntp129
Rp130
(dp131
g52
g11
sg53
(lp132
(I15
I1
I0
tp133
a(I16
I1
I0
tp134
a(I16
I0
I0
tp135
a(I16
I0
I1
tp136
a(I15
I0
I1
tp137
a(I14
I0
I1
tp138
a(I13
I0
I1
tp139
a(I12
I0
I1
tp140
a(I11
I0
I1
tp141
a(I10
I0
I1
tp142
a(I9
I0
I1
tp143
a(I8
I0
I1
tp144
a(I7
I0
I1
tp145
a(I6
I0
I1
tp146
a(I5
I0
I1
tp147
a(I4
I0
I1
tp148
a(I3
I0
I1
tp149
a(I2
I0
I1
tp150
a(I1
I0
I1
tp151
a(I1
I1
I1
tp152
ag8
asg83
g8
sg84
I23
sbaI0
aI0
aI0
aI0
aI0
aI0
aI0
aI0
ag0
(cmodules.Objects
Gate
p153
g2
Ntp154
Rp155
(dp156
S'gate_id'
p157
I0
sS'x'
p158
I1
sS'z'
p159
I0
sS'y'
p160
I1
sbag130
aI0
aI0
aI0
aI0
aI0
aI0
aI0
aI0
aI0
aI0
aI0
aI0
aI0
aI0
aI0
aI0
aI0
aI0
aI0
ag0
(g48
g2
Ntp161
Rp162
(dp163
g52
g15
sg53
(lp164
(I12
I3
I0
tp165
a(I12
I3
I1
tp166
a(I11
I3
I1
tp167
a(I10
I3
I1
tp168
a(I9
I3
I1
tp169
a(I8
I3
I1
tp170
a(I7
I3
I1
tp171
a(I6
I3
I1
tp172
a(I5
I3
I1
tp173
a(I4
I3
I1
tp174
a(I3
I3
I1
tp175
a(I2
I3
I1
tp176
a(I1
I3
I1
tp177
a(I1
I4
I1
tp178
a(I1
I4
I0
tp179
ag17
asg83
g17
sg84
I26
sbaI0
aI0
aI0
aI0
aI0
aI0
aI0
aI0
ag162
ag162
ag86
aI0
aI0
aI0
aI0
aI0
aI0
aI0
ag0
(g153
g2
Ntp180
Rp181
(dp182
g157
I9
sg158
I1
sg159
I0
sg160
I5
sbag0
(g48
g2
Ntp183
Rp184
(dp185
g52
g24
sg53
(lp186
(I6
I8
I0
tp187
a(I6
I8
I1
tp188
a(I5
I8
I1
tp189
a(I5
I8
I2
tp190
a(I5
I7
I2
tp191
a(I4
I7
I2
tp192
a(I3
I7
I2
tp193
a(I3
I6
I2
tp194
a(I3
I5
I2
tp195
a(I2
I5
I2
tp196
a(I1
I5
I2
tp197
a(I1
I5
I1
tp198
ag17
asg83
g17
sg84
I21
sbag184
aI0
aI0
aI0
aI0
aI0
aI0
aI0
ag107
ag50
ag0
(g48
g2
Ntp199
Rp200
(dp201
g52
g28
sg53
(lp202
(I1
I9
I0
tp203
a(I1
I9
I1
tp204
a(I1
I9
I2
tp205
a(I1
I8
I2
tp206
a(I1
I7
I2
tp207
a(I1
I6
I2
tp208
a(I2
I6
I2
tp209
a(I2
I6
I3
tp210
a(I3
I6
I3
tp211
a(I4
I6
I3
tp212
a(I4
I5
I3
tp213
a(I4
I5
I2
tp214
a(I4
I5
I1
tp215
ag18
asg83
g18
sg84
I10
sbaI0
aI0
aI0
aI0
aI0
aI0
aI0
ag107
ag50
ag200
aI0
aI0
aI0
aI0
aI0
aI0
aI0
ag50
ag50
ag200
aI0
aI0
aI0
aI0
aI0
aI0
aI0
ag0
(g153
g2
Ntp216
Rp217
(dp218
g157
I20
sg158
I1
sg159
I0
sg160
I9
sbag200
ag200
aI0
aI0
aI0
aI0
aI0
aI0
aI0
ag0
(g48
g2
Ntp219
Rp220
(dp221
g52
g28
sg53
(lp222
(I1
I9
I0
tp223
a(I1
I10
I0
tp224
a(I1
I10
I1
tp225
a(I1
I10
I2
tp226
a(I2
I10
I2
tp227
a(I3
I10
I2
tp228
a(I4
I10
I2
tp229
a(I5
I10
I2
tp230
a(I6
I10
I2
tp231
a(I6
I9
I2
tp232
a(I6
I9
I1
tp233
a(I7
I9
I1
tp234
a(I8
I9
I1
tp235
a(I9
I9
I1
tp236
a(I10
I9
I1
tp237
a(I11
I9
I1
tp238
a(I12
I9
I1
tp239
a(I13
I9
I1
tp240
a(I14
I9
I1
tp241
a(I15
I9
I1
tp242
a(I15
I8
I1
tp243
ag27
asg83
g27
sg84
I20
sbag220
ag220
aI0
aI0
aI0
aI0
aI0
aI0
aI0
ag0
(g153
g2
Ntp244
Rp245
(dp246
g157
I23
sg158
I1
sg159
I0
sg160
I11
sbag0
(g48
g2
Ntp247
Rp248
(dp249
g52
g31
sg53
(lp250
(I1
I11
I0
tp251
a(I1
I11
I1
tp252
a(I1
I11
I2
tp253
a(I2
I11
I2
tp254
a(I3
I11
I2
tp255
a(I4
I11
I2
tp256
a(I5
I11
I2
tp257
a(I6
I11
I2
tp258
a(I7
I11
I2
tp259
a(I7
I10
I2
tp260
a(I7
I9
I2
tp261
a(I7
I8
I2
tp262
a(I7
I7
I2
tp263
a(I7
I6
I2
tp264
a(I7
I5
I2
tp265
a(I7
I5
I1
tp266
a(I7
I5
I0
tp267
a(I7
I4
I0
tp268
ag16
asg83
g16
sg84
I7
sbag248
aI0
aI0
aI0
aI0
aI0
aI0
aI0
aI0
aI0
aI0
aI0
aI0
aI0
aI0
aI0
aI0
aI0
ag50
ag130
aI0
aI0
aI0
aI0
aI0
aI0
aI0
aI0
ag0
(g48
g2
Ntp269
Rp270
(dp271
g52
g9
sg53
(lp272
(I6
I1
I0
tp273
a(I5
I1
I0
tp274
a(I4
I1
I0
tp275
a(I3
I1
I0
tp276
a(I2
I1
I0
tp277
ag8
asg83
g8
sg84
I2
sbaI0
aI0
aI0
aI0
aI0
aI0
aI0
aI0
aI0
aI0
aI0
aI0
aI0
aI0
aI0
aI0
aI0
aI0
aI0
aI0
ag162
aI0
aI0
aI0
aI0
aI0
aI0
aI0
aI0
aI0
aI0
ag86
aI0
aI0
aI0
aI0
aI0
aI0
aI0
ag0
(g48
g2
Ntp278
Rp279
(dp280
g52
g17
sg53
(lp281
(I1
I5
I0
tp282
a(I2
I5
I0
tp283
a(I2
I5
I1
tp284
a(I3
I5
I1
tp285
a(I3
I6
I1
tp286
a(I4
I6
I1
tp287
a(I5
I6
I1
tp288
a(I6
I6
I1
tp289
a(I7
I6
I1
tp290
a(I8
I6
I1
tp291
a(I9
I6
I1
tp292
a(I10
I6
I1
tp293
a(I11
I6
I1
tp294
a(I12
I6
I1
tp295
a(I13
I6
I1
tp296
a(I13
I7
I1
tp297
ag21
asg83
g21
sg84
I27
sbag279
ag184
aI0
aI0
aI0
aI0
aI0
aI0
aI0
ag107
aI0
ag200
ag200
aI0
aI0
aI0
aI0
aI0
aI0
ag0
(g48
g2
Ntp298
Rp299
(dp300
g52
g23
sg53
(lp301
(I2
I8
I0
tp302
a(I2
I7
I0
tp303
a(I2
I7
I1
tp304
a(I2
I7
I2
tp305
a(I2
I7
I3
tp306
a(I3
I7
I3
tp307
a(I4
I7
I3
tp308
a(I5
I7
I3
tp309
a(I6
I7
I3
tp310
a(I7
I7
I3
tp311
a(I8
I7
I3
tp312
a(I8
I6
I3
tp313
a(I8
I5
I3
tp314
a(I8
I5
I2
tp315
a(I8
I5
I1
tp316
a(I8
I5
I0
tp317
ag16
asg83
g16
sg84
I11
sbag299
ag299
ag299
aI0
aI0
aI0
aI0
aI0
aI0
ag0
(g153
g2
Ntp318
Rp319
(dp320
g157
I15
sg158
I2
sg159
I0
sg160
I8
sbag0
(g48
g2
Ntp321
Rp322
(dp323
g52
g23
sg53
(lp324
(I2
I8
I0
tp325
a(I2
I8
I1
tp326
a(I2
I8
I2
tp327
a(I3
I8
I2
tp328
a(I4
I8
I2
tp329
a(I4
I8
I3
tp330
a(I5
I8
I3
tp331
a(I6
I8
I3
tp332
a(I7
I8
I3
tp333
a(I8
I8
I3
tp334
a(I9
I8
I3
tp335
a(I9
I8
I2
tp336
a(I9
I8
I1
tp337
ag25
asg83
g25
sg84
I9
sbag322
aI0
aI0
aI0
aI0
aI0
aI0
aI0
ag0
(g48
g2
Ntp338
Rp339
(dp340
g52
g23
sg53
(lp341
(I2
I8
I0
tp342
a(I2
I9
I0
tp343
ag29
asg83
g29
sg84
I3
sbag0
(g48
g2
Ntp344
Rp345
(dp346
g52
g11
sg53
(lp347
(I15
I1
I0
tp348
a(I15
I1
I1
tp349
a(I14
I1
I1
tp350
a(I14
I1
I2
tp351
a(I13
I1
I2
tp352
a(I12
I1
I2
tp353
a(I11
I1
I2
tp354
a(I10
I1
I2
tp355
a(I9
I1
I2
tp356
a(I8
I1
I2
tp357
a(I7
I1
I2
tp358
a(I6
I1
I2
tp359
a(I6
I2
I2
tp360
a(I6
I3
I2
tp361
a(I6
I4
I2
tp362
a(I6
I5
I2
tp363
a(I6
I6
I2
tp364
a(I6
I7
I2
tp365
a(I6
I7
I1
tp366
a(I5
I7
I1
tp367
a(I4
I7
I1
tp368
a(I3
I7
I1
tp369
a(I3
I8
I1
tp370
a(I3
I9
I1
tp371
a(I2
I9
I1
tp372
a(I2
I10
I1
tp373
a(I2
I11
I1
tp374
a(I2
I11
I0
tp375
ag31
asg83
g31
sg84
I6
sbaI0
aI0
aI0
aI0
aI0
aI0
aI0
aI0
ag0
(g153
g2
Ntp376
Rp377
(dp378
g157
I21
sg158
I2
sg159
I0
sg160
I10
sbag345
ag220
aI0
aI0
aI0
aI0
aI0
aI0
aI0
ag345
ag345
ag248
aI0
aI0
aI0
aI0
aI0
aI0
aI0
aI0
aI0
aI0
aI0
aI0
aI0
aI0
aI0
aI0
aI0
ag50
ag130
aI0
aI0
aI0
aI0
aI0
aI0
aI0
aI0
ag270
aI0
aI0
aI0
aI0
aI0
aI0
aI0
aI0
aI0
ag0
(g153
g2
Ntp379
Rp380
(dp381
g157
I4
sg158
I3
sg159
I0
sg160
I2
sbag86
ag86
aI0
aI0
aI0
aI0
aI0
aI0
aI0
ag0
(g48
g2
Ntp382
Rp383
(dp384
g52
g18
sg53
(lp385
(I4
I5
I0
tp386
a(I3
I5
I0
tp387
a(I3
I4
I0
tp388
a(I3
I3
I0
tp389
ag12
asg83
g12
sg84
I15
sbag162
ag86
aI0
aI0
aI0
aI0
aI0
aI0
aI0
ag383
aI0
ag86
aI0
aI0
aI0
aI0
aI0
aI0
aI0
ag383
ag279
ag184
aI0
aI0
aI0
aI0
aI0
aI0
aI0
ag107
ag279
ag184
ag200
aI0
aI0
aI0
aI0
aI0
aI0
aI0
ag345
ag184
ag299
aI0
aI0
aI0
aI0
aI0
aI0
ag0
(g48
g2
Ntp390
Rp391
(dp392
g52
g23
sg53
(lp393
(I2
I8
I0
tp394
a(I3
I8
I0
tp395
a(I4
I8
I0
tp396
a(I5
I8
I0
tp397
a(I5
I7
I0
tp398
a(I6
I7
I0
tp399
a(I7
I7
I0
tp400
a(I8
I7
I0
tp401
a(I9
I7
I0
tp402
a(I10
I7
I0
tp403
a(I10
I6
I0
tp404
a(I10
I5
I0
tp405
a(I10
I4
I0
tp406
a(I11
I4
I0
tp407
a(I11
I3
I0
tp408
a(I11
I2
I0
tp409
ag13
asg83
g13
sg84
I24
sbag345
ag322
aI0
aI0
aI0
aI0
aI0
aI0
aI0
aI0
ag345
aI0
aI0
aI0
aI0
aI0
aI0
aI0
aI0
aI0
aI0
ag220
aI0
aI0
aI0
aI0
aI0
aI0
aI0
aI0
aI0
ag248
aI0
aI0
aI0
aI0
aI0
aI0
aI0
aI0
aI0
aI0
aI0
aI0
aI0
aI0
aI0
aI0
aI0
ag50
ag130
aI0
aI0
aI0
aI0
aI0
aI0
aI0
aI0
ag270
aI0
aI0
aI0
aI0
aI0
aI0
aI0
aI0
aI0
ag0
(g48
g2
Ntp410
Rp411
(dp412
g52
g11
sg53
(lp413
(I15
I1
I0
tp414
a(I15
I2
I0
tp415
a(I15
I2
I1
tp416
a(I15
I2
I2
tp417
a(I15
I2
I3
tp418
a(I14
I2
I3
tp419
a(I13
I2
I3
tp420
a(I12
I2
I3
tp421
a(I11
I2
I3
tp422
a(I10
I2
I3
tp423
a(I9
I2
I3
tp424
a(I8
I2
I3
tp425
a(I7
I2
I3
tp426
a(I6
I2
I3
tp427
a(I5
I2
I3
tp428
a(I4
I2
I3
tp429
a(I4
I2
I2
tp430
a(I4
I2
I1
tp431
a(I4
I2
I0
tp432
ag12
asg83
g12
sg84
I19
sbag411
ag411
ag411
aI0
aI0
aI0
aI0
aI0
aI0
aI0
ag162
aI0
aI0
aI0
aI0
aI0
aI0
aI0
aI0
aI0
aI0
aI0
aI0
aI0
aI0
aI0
aI0
aI0
aI0
ag0
(g153
g2
Ntp433
Rp434
(dp435
g157
I10
sg158
I4
sg159
I0
sg160
I5
sbag200
ag200
ag200
aI0
aI0
aI0
aI0
aI0
aI0
ag107
ag279
aI0
ag200
aI0
aI0
aI0
aI0
aI0
aI0
aI0
ag345
ag184
ag299
aI0
aI0
aI0
aI0
aI0
aI0
ag391
aI0
ag322
ag322
aI0
aI0
aI0
aI0
aI0
aI0
aI0
aI0
aI0
aI0
aI0
aI0
aI0
aI0
aI0
aI0
aI0
aI0
ag220
aI0
aI0
aI0
aI0
aI0
aI0
aI0
aI0
aI0
ag248
aI0
aI0
aI0
aI0
aI0
aI0
aI0
aI0
aI0
aI0
aI0
aI0
aI0
aI0
aI0
aI0
aI0
ag50
ag130
aI0
aI0
aI0
aI0
aI0
aI0
aI0
aI0
ag270
aI0
aI0
aI0
aI0
aI0
aI0
aI0
aI0
aI0
aI0
aI0
aI0
ag411
aI0
aI0
aI0
aI0
aI0
aI0
aI0
ag162
aI0
aI0
aI0
aI0
aI0
aI0
aI0
aI0
ag0
(g48
g2
Ntp436
Rp437
(dp438
g52
g18
sg53
(lp439
(I4
I5
I0
tp440
a(I5
I5
I0
tp441
a(I5
I4
I0
tp442
a(I5
I4
I1
tp443
a(I6
I4
I1
tp444
a(I7
I4
I1
tp445
a(I8
I4
I1
tp446
a(I9
I4
I1
tp447
a(I10
I4
I1
tp448
a(I11
I4
I1
tp449
a(I12
I4
I1
tp450
a(I12
I4
I0
tp451
ag15
asg83
g15
sg84
I29
sbag437
aI0
aI0
aI0
aI0
aI0
aI0
aI0
aI0
ag437
aI0
aI0
aI0
aI0
aI0
aI0
aI0
aI0
aI0
ag107
ag279
aI0
aI0
aI0
aI0
aI0
aI0
aI0
aI0
ag391
ag345
ag184
ag299
aI0
aI0
aI0
aI0
aI0
aI0
ag391
ag184
ag184
ag322
aI0
aI0
aI0
aI0
aI0
aI0
aI0
aI0
aI0
aI0
aI0
aI0
aI0
aI0
aI0
aI0
aI0
aI0
ag220
aI0
aI0
aI0
aI0
aI0
aI0
aI0
aI0
aI0
ag248
aI0
aI0
aI0
aI0
aI0
aI0
aI0
aI0
aI0
aI0
aI0
aI0
aI0
aI0
aI0
aI0
aI0
ag50
ag130
aI0
aI0
aI0
aI0
aI0
aI0
aI0
aI0
ag0
(g153
g2
Ntp452
Rp453
(dp454
g157
I1
sg158
I6
sg159
I0
sg160
I1
sbaI0
ag345
aI0
aI0
aI0
aI0
aI0
aI0
aI0
ag107
aI0
ag345
ag411
aI0
aI0
aI0
aI0
aI0
aI0
ag107
ag162
ag345
aI0
aI0
aI0
aI0
aI0
aI0
aI0
ag107
ag437
ag345
aI0
aI0
aI0
aI0
aI0
aI0
aI0
ag107
aI0
ag345
aI0
aI0
aI0
aI0
aI0
aI0
aI0
ag107
ag279
ag345
aI0
aI0
aI0
aI0
aI0
aI0
aI0
ag391
ag345
ag345
ag299
aI0
aI0
aI0
aI0
aI0
aI0
ag0
(g153
g2
Ntp455
Rp456
(dp457
g157
I16
sg158
I6
sg159
I0
sg160
I8
sbag184
aI0
ag322
aI0
aI0
aI0
aI0
aI0
aI0
ag0
(g48
g2
Ntp458
Rp459
(dp460
g52
g30
sg53
(lp461
(I9
I10
I0
tp462
a(I8
I10
I0
tp463
a(I7
I10
I0
tp464
a(I6
I10
I0
tp465
a(I6
I9
I0
tp466
ag24
asg83
g24
sg84
I28
sbag220
ag220
aI0
aI0
aI0
aI0
aI0
aI0
aI0
ag459
aI0
ag220
aI0
aI0
aI0
aI0
aI0
aI0
aI0
aI0
aI0
ag248
aI0
aI0
aI0
aI0
aI0
aI0
aI0
aI0
aI0
aI0
aI0
aI0
aI0
aI0
aI0
aI0
aI0
ag50
ag130
aI0
aI0
aI0
aI0
aI0
aI0
aI0
aI0
ag107
aI0
ag345
aI0
aI0
aI0
aI0
aI0
aI0
aI0
ag107
aI0
aI0
ag411
aI0
aI0
aI0
aI0
aI0
aI0
aI0
ag162
aI0
aI0
aI0
aI0
aI0
aI0
aI0
aI0
ag248
ag437
aI0
aI0
aI0
aI0
aI0
aI0
aI0
aI0
ag248
ag248
ag248
aI0
aI0
aI0
aI0
aI0
aI0
aI0
aI0
ag279
ag248
aI0
aI0
aI0
aI0
aI0
aI0
aI0
ag391
aI0
ag248
ag299
aI0
aI0
aI0
aI0
aI0
aI0
aI0
aI0
ag248
ag322
aI0
aI0
aI0
aI0
aI0
aI0
aI0
ag220
ag248
aI0
aI0
aI0
aI0
aI0
aI0
aI0
ag459
aI0
ag248
aI0
aI0
aI0
aI0
aI0
aI0
aI0
aI0
aI0
ag248
aI0
aI0
aI0
aI0
aI0
aI0
aI0
aI0
aI0
aI0
aI0
aI0
aI0
aI0
aI0
aI0
aI0
ag50
ag130
aI0
aI0
aI0
aI0
aI0
aI0
aI0
aI0
ag107
aI0
ag345
aI0
aI0
aI0
aI0
aI0
aI0
aI0
aI0
aI0
aI0
ag411
aI0
aI0
aI0
aI0
aI0
aI0
aI0
ag162
aI0
aI0
aI0
aI0
aI0
aI0
aI0
aI0
ag0
(g153
g2
Ntp467
Rp468
(dp469
g157
I8
sg158
I8
sg159
I0
sg160
I4
sbag437
aI0
aI0
aI0
aI0
aI0
aI0
aI0
aI0
ag299
ag299
ag299
ag299
aI0
aI0
aI0
aI0
aI0
aI0
aI0
ag279
aI0
ag299
aI0
aI0
aI0
aI0
aI0
aI0
ag391
aI0
aI0
ag299
aI0
aI0
aI0
aI0
aI0
aI0
aI0
aI0
aI0
ag322
aI0
aI0
aI0
aI0
aI0
aI0
aI0
ag220
aI0
aI0
aI0
aI0
aI0
aI0
aI0
aI0
ag459
aI0
aI0
aI0
aI0
aI0
aI0
aI0
aI0
aI0
aI0
aI0
aI0
aI0
aI0
aI0
aI0
aI0
aI0
aI0
aI0
aI0
aI0
aI0
aI0
aI0
aI0
aI0
aI0
aI0
ag50
ag130
aI0
aI0
aI0
aI0
aI0
aI0
aI0
aI0
ag107
aI0
ag345
aI0
aI0
aI0
aI0
aI0
aI0
aI0
aI0
aI0
aI0
ag411
aI0
aI0
aI0
aI0
aI0
aI0
aI0
ag162
aI0
aI0
aI0
aI0
aI0
aI0
aI0
aI0
aI0
ag437
aI0
aI0
aI0
aI0
aI0
aI0
aI0
aI0
aI0
aI0
aI0
aI0
aI0
aI0
aI0
aI0
aI0
aI0
aI0
ag279
aI0
aI0
aI0
aI0
aI0
aI0
aI0
aI0
ag391
aI0
aI0
aI0
aI0
aI0
aI0
aI0
aI0
aI0
ag0
(g153
g2
Ntp470
Rp471
(dp472
g157
I17
sg158
I9
sg159
I0
sg160
I8
sbag322
ag322
ag322
aI0
aI0
aI0
aI0
aI0
aI0
ag0
(g48
g2
Ntp473
Rp474
(dp475
g52
g30
sg53
(lp476
(I9
I10
I0
tp477
a(I9
I9
I0
tp478
a(I10
I9
I0
tp479
a(I11
I9
I0
tp480
a(I12
I9
I0
tp481
a(I13
I9
I0
tp482
a(I13
I8
I0
tp483
ag21
asg83
g21
sg84
I8
sbag220
aI0
aI0
aI0
aI0
aI0
aI0
aI0
aI0
ag0
(g153
g2
Ntp484
Rp485
(dp486
g157
I22
sg158
I9
sg159
I0
sg160
I10
sbaI0
aI0
aI0
aI0
aI0
aI0
aI0
aI0
aI0
aI0
aI0
aI0
aI0
aI0
aI0
aI0
aI0
aI0
aI0
aI0
aI0
aI0
aI0
aI0
aI0
aI0
aI0
aI0
aI0
ag50
ag130
aI0
aI0
aI0
aI0
aI0
aI0
aI0
aI0
ag0
(g153
g2
Ntp487
Rp488
(dp489
g157
I2
sg158
I10
sg159
I0
sg160
I1
sbag0
(g48
g2
Ntp490
Rp491
(dp492
g52
g27
sg53
(lp493
(I15
I8
I0
tp494
a(I14
I8
I0
tp495
a(I14
I7
I0
tp496
a(I14
I6
I0
tp497
a(I14
I5
I0
tp498
a(I14
I4
I0
tp499
a(I14
I3
I0
tp500
a(I14
I3
I1
tp501
a(I13
I3
I1
tp502
a(I13
I2
I1
tp503
a(I13
I1
I1
tp504
a(I12
I1
I1
tp505
a(I11
I1
I1
tp506
a(I10
I1
I1
tp507
ag10
asg83
g10
sg84
I13
sbag345
aI0
aI0
aI0
aI0
aI0
aI0
aI0
aI0
aI0
aI0
ag411
aI0
aI0
aI0
aI0
aI0
aI0
aI0
ag162
aI0
aI0
aI0
aI0
aI0
aI0
aI0
aI0
ag391
ag437
aI0
aI0
aI0
aI0
aI0
aI0
aI0
aI0
ag391
aI0
aI0
aI0
aI0
aI0
aI0
aI0
aI0
aI0
ag391
ag279
aI0
aI0
aI0
aI0
aI0
aI0
aI0
aI0
ag391
aI0
aI0
aI0
aI0
aI0
aI0
aI0
aI0
aI0
aI0
aI0
aI0
aI0
aI0
aI0
aI0
aI0
aI0
aI0
ag474
ag220
aI0
aI0
aI0
aI0
aI0
aI0
aI0
aI0
ag0
(g48
g2
Ntp508
Rp509
(dp510
g52
g30
sg53
(lp511
(I9
I10
I0
tp512
a(I10
I10
I0
tp513
a(I11
I10
I0
tp514
a(I11
I10
I1
tp515
a(I11
I10
I2
tp516
a(I11
I9
I2
tp517
a(I11
I8
I2
tp518
a(I11
I7
I2
tp519
a(I11
I6
I2
tp520
a(I11
I5
I2
tp521
a(I11
I5
I1
tp522
ag19
asg83
g19
sg84
I14
sbaI0
aI0
aI0
aI0
aI0
aI0
aI0
aI0
aI0
aI0
aI0
aI0
aI0
aI0
aI0
aI0
aI0
aI0
aI0
aI0
aI0
aI0
aI0
aI0
aI0
aI0
aI0
aI0
aI0
ag50
ag130
aI0
aI0
aI0
aI0
aI0
aI0
aI0
aI0
aI0
ag491
ag345
aI0
aI0
aI0
aI0
aI0
aI0
aI0
ag391
aI0
aI0
ag411
aI0
aI0
aI0
aI0
aI0
aI0
ag391
ag162
aI0
aI0
aI0
aI0
aI0
aI0
aI0
aI0
ag391
ag437
aI0
aI0
aI0
aI0
aI0
aI0
aI0
aI0
ag0
(g153
g2
Ntp523
Rp524
(dp525
g157
I11
sg158
I11
sg159
I0
sg160
I5
sbag509
ag509
aI0
aI0
aI0
aI0
aI0
aI0
aI0
aI0
ag279
ag509
aI0
aI0
aI0
aI0
aI0
aI0
aI0
ag0
(g48
g2
Ntp526
Rp527
(dp528
g52
g21
sg53
(lp529
(I13
I7
I0
tp530
a(I12
I7
I0
tp531
a(I11
I7
I0
tp532
ag26
asg83
g26
sg84
I12
sbaI0
ag509
aI0
aI0
aI0
aI0
aI0
aI0
aI0
ag0
(g153
g2
Ntp533
Rp534
(dp535
g157
I18
sg158
I11
sg159
I0
sg160
I8
sbaI0
ag509
aI0
aI0
aI0
aI0
aI0
aI0
aI0
ag474
ag220
ag509
aI0
aI0
aI0
aI0
aI0
aI0
aI0
ag509
ag509
ag509
aI0
aI0
aI0
aI0
aI0
aI0
aI0
aI0
aI0
aI0
aI0
aI0
aI0
aI0
aI0
aI0
aI0
aI0
aI0
aI0
aI0
aI0
aI0
aI0
aI0
aI0
aI0
ag50
ag130
aI0
aI0
aI0
aI0
aI0
aI0
aI0
aI0
ag0
(g48
g2
Ntp536
Rp537
(dp538
g52
g11
sg53
(lp539
(I15
I1
I0
tp540
a(I14
I1
I0
tp541
a(I13
I1
I0
tp542
a(I12
I1
I0
tp543
ag13
asg83
g13
sg84
I4
sbag491
ag345
aI0
aI0
aI0
aI0
aI0
aI0
aI0
ag0
(g153
g2
Ntp544
Rp545
(dp546
g157
I5
sg158
I12
sg159
I0
sg160
I2
sbag0
(g48
g2
Ntp547
Rp548
(dp549
g52
g27
sg53
(lp550
(I15
I8
I0
tp551
a(I15
I7
I0
tp552
a(I15
I6
I0
tp553
a(I15
I5
I0
tp554
a(I15
I4
I0
tp555
a(I15
I4
I1
tp556
a(I14
I4
I1
tp557
a(I13
I4
I1
tp558
a(I13
I4
I2
tp559
a(I12
I4
I2
tp560
a(I12
I3
I2
tp561
a(I12
I2
I2
tp562
a(I12
I2
I1
tp563
ag13
asg83
g13
sg84
I22
sbag548
ag411
aI0
aI0
aI0
aI0
aI0
aI0
ag0
(g153
g2
Ntp564
Rp565
(dp566
g157
I7
sg158
I12
sg159
I0
sg160
I3
sbag162
ag548
aI0
aI0
aI0
aI0
aI0
aI0
aI0
ag437
ag437
ag548
aI0
aI0
aI0
aI0
aI0
aI0
aI0
ag0
(g48
g2
Ntp567
Rp568
(dp569
g52
g19
sg53
(lp570
(I11
I5
I0
tp571
a(I12
I5
I0
tp572
a(I12
I5
I1
tp573
a(I12
I5
I2
tp574
a(I12
I6
I2
tp575
a(I12
I7
I2
tp576
a(I12
I8
I2
tp577
a(I12
I9
I2
tp578
a(I12
I10
I2
tp579
a(I12
I11
I2
tp580
a(I12
I11
I1
tp581
ag32
asg83
g32
sg84
I16
sbag568
ag568
aI0
aI0
aI0
aI0
aI0
aI0
aI0
aI0
ag279
ag568
aI0
aI0
aI0
aI0
aI0
aI0
aI0
ag527
aI0
ag568
aI0
aI0
aI0
aI0
aI0
aI0
aI0
aI0
aI0
ag568
aI0
aI0
aI0
aI0
aI0
aI0
aI0
ag474
ag220
ag568
aI0
aI0
aI0
aI0
aI0
aI0
aI0
aI0
aI0
ag568
aI0
aI0
aI0
aI0
aI0
aI0
aI0
ag0
(g153
g2
Ntp582
Rp583
(dp584
g157
I24
sg158
I12
sg159
I0
sg160
I11
sbag568
ag568
aI0
aI0
aI0
aI0
aI0
aI0
aI0
aI0
aI0
aI0
aI0
aI0
aI0
aI0
aI0
aI0
aI0
ag50
ag130
aI0
aI0
aI0
aI0
aI0
aI0
aI0
aI0
ag537
ag491
ag345
aI0
aI0
aI0
aI0
aI0
aI0
aI0
aI0
ag491
aI0
ag411
aI0
aI0
aI0
aI0
aI0
aI0
ag0
(g48
g2
Ntp585
Rp586
(dp587
g52
g15
sg53
(lp588
(I12
I3
I0
tp589
a(I13
I3
I0
tp590
a(I13
I4
I0
tp591
a(I13
I5
I0
tp592
a(I13
I6
I0
tp593
ag21
asg83
g21
sg84
I5
sbag491
aI0
aI0
aI0
aI0
aI0
aI0
aI0
aI0
ag586
ag548
ag548
aI0
aI0
aI0
aI0
aI0
aI0
aI0
ag586
aI0
aI0
aI0
aI0
aI0
aI0
aI0
aI0
aI0
ag586
ag279
aI0
aI0
aI0
aI0
aI0
aI0
aI0
aI0
ag0
(g153
g2
Ntp594
Rp595
(dp596
g157
I13
sg158
I13
sg159
I0
sg160
I7
sbag279
aI0
aI0
aI0
aI0
aI0
aI0
aI0
aI0
ag474
aI0
aI0
aI0
aI0
aI0
aI0
aI0
aI0
aI0
ag474
ag220
aI0
aI0
aI0
aI0
aI0
aI0
aI0
aI0
aI0
aI0
aI0
aI0
aI0
aI0
aI0
aI0
aI0
aI0
aI0
aI0
aI0
aI0
aI0
aI0
aI0
aI0
aI0
aI0
aI0
aI0
aI0
aI0
aI0
aI0
aI0
aI0
aI0
aI0
ag50
ag130
aI0
aI0
aI0
aI0
aI0
aI0
aI0
aI0
ag537
ag345
ag345
aI0
aI0
aI0
aI0
aI0
aI0
aI0
ag0
(g153
g2
Ntp597
Rp598
(dp599
g157
I6
sg158
I14
sg159
I0
sg160
I2
sbag0
(g48
g2
Ntp600
Rp601
(dp602
g52
g14
sg53
(lp603
(I14
I2
I0
tp604
a(I14
I2
I1
tp605
a(I14
I2
I2
tp606
a(I14
I3
I2
tp607
a(I15
I3
I2
tp608
a(I16
I3
I2
tp609
a(I16
I4
I2
tp610
a(I16
I5
I2
tp611
a(I16
I6
I2
tp612
a(I16
I7
I2
tp613
a(I16
I7
I1
tp614
ag22
asg83
g22
sg84
I25
sbag601
ag411
aI0
aI0
aI0
aI0
aI0
aI0
ag491
ag491
ag601
aI0
aI0
aI0
aI0
aI0
aI0
aI0
ag491
ag548
aI0
aI0
aI0
aI0
aI0
aI0
aI0
aI0
ag491
aI0
aI0
aI0
aI0
aI0
aI0
aI0
aI0
aI0
ag491
aI0
aI0
aI0
aI0
aI0
aI0
aI0
aI0
aI0
ag491
aI0
aI0
aI0
aI0
aI0
aI0
aI0
aI0
aI0
ag491
aI0
aI0
aI0
aI0
aI0
aI0
aI0
aI0
aI0
aI0
ag220
aI0
aI0
aI0
aI0
aI0
aI0
aI0
aI0
aI0
aI0
aI0
aI0
aI0
aI0
aI0
aI0
aI0
aI0
aI0
aI0
aI0
aI0
aI0
aI0
aI0
aI0
aI0
aI0
aI0
aI0
aI0
aI0
aI0
aI0
aI0
aI0
aI0
aI0
ag50
ag130
aI0
aI0
aI0
aI0
aI0
aI0
aI0
aI0
ag0
(g153
g2
Ntp615
Rp616
(dp617
g157
I3
sg158
I15
sg159
I0
sg160
I1
sbag345
aI0
aI0
aI0
aI0
aI0
aI0
aI0
aI0
ag411
ag411
ag411
ag411
aI0
aI0
aI0
aI0
aI0
aI0
aI0
aI0
ag601
aI0
aI0
aI0
aI0
aI0
aI0
aI0
ag548
ag548
aI0
aI0
aI0
aI0
aI0
aI0
aI0
aI0
ag548
aI0
aI0
aI0
aI0
aI0
aI0
aI0
aI0
aI0
ag548
aI0
aI0
aI0
aI0
aI0
aI0
aI0
aI0
aI0
ag548
aI0
aI0
aI0
aI0
aI0
aI0
aI0
aI0
aI0
ag0
(g153
g2
Ntp618
Rp619
(dp620
g157
I19
sg158
I15
sg159
I0
sg160
I8
sbag220
aI0
aI0
aI0
aI0
aI0
aI0
aI0
aI0
aI0
ag220
aI0
aI0
aI0
aI0
aI0
aI0
aI0
aI0
aI0
aI0
aI0
aI0
aI0
aI0
aI0
aI0
aI0
aI0
aI0
aI0
aI0
aI0
aI0
aI0
aI0
aI0
aI0
aI0
aI0
aI0
aI0
aI0
aI0
aI0
aI0
aI0
aI0
aI0
ag130
ag130
aI0
aI0
aI0
aI0
aI0
aI0
aI0
aI0
ag130
aI0
aI0
aI0
aI0
aI0
aI0
aI0
aI0
aI0
aI0
aI0
aI0
aI0
aI0
aI0
aI0
aI0
aI0
aI0
aI0
aI0
ag601
aI0
aI0
aI0
aI0
aI0
aI0
aI0
aI0
aI0
ag601
aI0
aI0
aI0
aI0
aI0
aI0
aI0
ag0
(g153
g2
Ntp621
Rp622
(dp623
g157
I12
sg158
I16
sg159
I0
sg160
I5
sbaI0
ag601
aI0
aI0
aI0
aI0
aI0
aI0
aI0
aI0
aI0
ag601
aI0
aI0
aI0
aI0
aI0
aI0
aI0
ag0
(g153
g2
Ntp624
Rp625
(dp626
g157
I14
sg158
I16
sg159
I0
sg160
I7
sbag601
ag601
aI0
aI0
aI0
aI0
aI0
aI0
aI0
aI0
aI0
aI0
aI0
aI0
aI0
aI0
aI0
aI0
aI0
aI0
aI0
aI0
aI0
aI0
aI0
aI0
aI0
aI0
aI0
aI0
aI0
aI0
aI0
aI0
aI0
aI0
aI0
aI0
aI0
aI0
aI0
aI0
aI0
aI0
aI0
aI0
aI0
aI0
aI0
aI0
aI0
aI0
aI0
aI0
aI0
aI0
aI0
aI0
aI0
aI0
aI0
aI0
aI0
aI0
aI0
aI0
aI0
aI0
aI0
aI0
aI0
aI0
aI0
aI0
aI0
aI0
aI0
aI0
aI0
aI0
aI0
aI0
aI0
aI0
aI0
aI0
aI0
aI0
aI0
aI0
aI0
aI0
aI0
aI0
aI0
aI0
aI0
aI0
aI0
aI0
aI0
aI0
aI0
aI0
aI0
aI0
aI0
aI0
aI0
aI0
aI0
aI0
aI0
aI0
aI0
aI0
aI0
aI0
aI0
aI0
aI0
aI0
aI0
aI0
aI0
aI0
aI0
aI0
aI0
aI0
aI0
aI0
aI0
aI0
aI0
aI0
aI0
aI0
aI0
aI0
aI0
aI0
aI0
aI0
aI0
aI0
aI0
aI0
aI0
aI0
aI0
aI0
aI0
aI0
aI0
aI0
aI0
aI0
aI0
aI0
aI0
aI0
aI0
aI0
aI0
aI0
aI0
aI0
aI0
aI0
aI0
aI0
aI0
aI0
aI0
aI0
aI0
aI0
aI0
aI0
aI0
aI0
aI0
aI0
aI0
aI0
aI0
aI0
aI0
atp627
bsS'x_dim'
p628
I18
sS'nets'
p629
(dp630
I0
g86
sI1
g0
(g48
g2
Ntp631
Rp632
(dp633
g52
g13
sg53
(lp634
(I12
I2
I0
tp635
ag15
asg83
g15
sg84
I1
sbsI2
g270
sI3
g339
sI4
g537
sI5
g586
sI6
g345
sI7
g248
sI8
g474
sI9
g322
sI10
g200
sI11
g299
sI12
g527
sI13
g491
sI14
g509
sI15
g383
sI16
g568
sI17
g50
sI18
g107
sI19
g411
sI20
g220
sI21
g184
sI22
g548
sI23
g130
sI24
g391
sI25
g601
sI26
g162
sI27
g279
sI28
g459
sI29
g437
ssS'y_dim'
p636
I13
sS'z_dim'
p637
I10
sb.