ccopy_reg
_reconstructor
p0
(cmodules.Objects
Board
p1
c__builtin__
object
p2
Ntp3
Rp4
(dp5
S'gates'
p6
(dp7
I0
(I1
I1
I0
tp8
sI1
(I6
I1
I0
tp9
sI2
(I10
I1
I0
tp10
sI3
(I15
I1
I0
tp11
sI4
(I3
I2
I0
tp12
sI5
(I12
I2
I0
tp13
sI6
(I14
I2
I0
tp14
sI7
(I12
I3
I0
tp15
sI8
(I8
I4
I0
tp16
sI9
(I1
I5
I0
tp17
sI10
(I4
I5
I0
tp18
sI11
(I11
I5
I0
tp19
sI12
(I16
I5
I0
tp20
sI13
(I13
I7
I0
tp21
sI14
(I16
I7
I0
tp22
sI15
(I2
I8
I0
tp23
sI16
(I6
I8
I0
tp24
sI17
(I9
I8
I0
tp25
sI18
(I11
I8
I0
tp26
sI19
(I15
I8
I0
tp27
sI20
(I1
I9
I0
tp28
sI21
(I2
I10
I0
tp29
sI22
(I9
I10
I0
tp30
sI23
(I1
I11
I0
tp31
sI24
(I12
I11
I0
tp32
ssS'board'
p33
cnumpy.core.multiarray
_reconstruct
p34
(cnumpy
ndarray
p35
(I0
tp36
S'b'
p37
tp38
Rp39
(I1
(I18
I13
I10
tp40
cnumpy
dtype
p41
(S'O8'
p42
I0
I1
tp43
Rp44
(I3
S'|'
p45
NNNI-1
I-1
I63
tp46
bI00
(lp47
I0
aI0
aI0
aI0
aI0
aI0
aI0
aI0
aI0
aI0
aI0
aI0
aI0
aI0
aI0
aI0
aI0
aI0
aI0
aI0
aI0
aI0
aI0
aI0
aI0
aI0
aI0
aI0
aI0
aI0
aI0
aI0
aI0
aI0
aI0
aI0
aI0
aI0
aI0
aI0
aI0
ag0
(cmodules.Objects
Net
p48
g2
Ntp49
Rp50
(dp51
S'start_gate'
p52
g31
sS'path'
p53
(lp54
(I1
I11
I0
tp55
a(I0
I11
I0
tp56
a(I0
I10
I0
tp57
a(I0
I10
I1
tp58
a(I0
I9
I1
tp59
a(I0
I8
I1
tp60
a(I0
I7
I1
tp61
a(I0
I6
I1
tp62
a(I0
I5
I1
tp63
a(I0
I4
I1
tp64
a(I1
I4
I1
tp65
a(I1
I3
I1
tp66
a(I1
I2
I1
tp67
a(I2
I2
I1
tp68
a(I3
I2
I1
tp69
ag12
asS'end_gate'
p70
g12
sS'net_id'
p71
I0
sbaI0
aI0
aI0
aI0
aI0
aI0
aI0
aI0
aI0
ag50
aI0
aI0
aI0
aI0
aI0
aI0
aI0
aI0
aI0
ag50
aI0
aI0
aI0
aI0
aI0
aI0
aI0
aI0
ag0
(g48
g2
Ntp72
Rp73
(dp74
g52
g10
sg53
(lp75
(I10
I1
I0
tp76
a(I9
I1
I0
tp77
a(I8
I1
I0
tp78
a(I7
I1
I0
tp79
a(I7
I2
I0
tp80
a(I6
I2
I0
tp81
a(I5
I2
I0
tp82
a(I5
I3
I0
tp83
a(I4
I3
I0
tp84
a(I4
I4
I0
tp85
a(I4
I4
I1
tp86
a(I3
I4
I1
tp87
a(I2
I4
I1
tp88
a(I2
I5
I1
tp89
a(I2
I6
I1
tp90
a(I1
I6
I1
tp91
a(I1
I7
I1
tp92
a(I1
I7
I0
tp93
a(I0
I7
I0
tp94
a(I0
I8
I0
tp95
a(I0
I9
I0
tp96
ag28
asg70
g28
sg71
I18
sbag50
aI0
aI0
aI0
aI0
aI0
aI0
aI0
aI0
ag73
ag50
aI0
aI0
aI0
aI0
aI0
aI0
aI0
aI0
ag73
ag50
aI0
aI0
aI0
aI0
aI0
aI0
aI0
aI0
ag50
ag50
aI0
aI0
aI0
aI0
aI0
aI0
aI0
aI0
ag50
aI0
aI0
aI0
aI0
aI0
aI0
aI0
aI0
aI0
aI0
aI0
aI0
aI0
aI0
aI0
aI0
aI0
aI0
aI0
aI0
aI0
aI0
aI0
aI0
aI0
aI0
aI0
aI0
aI0
ag0
(cmodules.Objects
Gate
p97
g2
Ntp98
Rp99
(dp100
S'gate_id'
p101
I0
sS'x'
p102
I1
sS'z'
p103
I0
sS'y'
p104
I1
sbag0
(g48
g2
Ntp105
Rp106
(dp107
g52
g11
sg53
(lp108
(I15
I1
I0
tp109
a(I16
I1
I0
tp110
a(I16
I1
I1
tp111
a(I16
I1
I2
tp112
a(I15
I1
I2
tp113
a(I14
I1
I2
tp114
a(I13
I1
I2
tp115
a(I12
I1
I2
tp116
a(I11
I1
I2
tp117
a(I10
I1
I2
tp118
a(I9
I1
I2
tp119
a(I8
I1
I2
tp120
a(I7
I1
I2
tp121
a(I6
I1
I2
tp122
a(I5
I1
I2
tp123
a(I4
I1
I2
tp124
a(I3
I1
I2
tp125
a(I2
I1
I2
tp126
a(I1
I1
I2
tp127
a(I1
I1
I1
tp128
ag8
asg70
g8
sg71
I23
sbag106
aI0
aI0
aI0
aI0
aI0
aI0
aI0
aI0
ag50
aI0
aI0
aI0
aI0
aI0
aI0
aI0
aI0
ag0
(g48
g2
Ntp129
Rp130
(dp131
g52
g15
sg53
(lp132
(I12
I3
I0
tp133
a(I12
I3
I1
tp134
a(I12
I3
I2
tp135
a(I11
I3
I2
tp136
a(I10
I3
I2
tp137
a(I9
I3
I2
tp138
a(I8
I3
I2
tp139
a(I7
I3
I2
tp140
a(I6
I3
I2
tp141
a(I5
I3
I2
tp142
a(I4
I3
I2
tp143
a(I3
I3
I2
tp144
a(I2
I3
I2
tp145
a(I2
I3
I1
tp146
a(I2
I3
I0
tp147
a(I1
I3
I0
tp148
a(I1
I4
I0
tp149
ag17
asg70
g17
sg71
I26
sbag50
aI0
aI0
aI0
aI0
aI0
aI0
aI0
aI0
ag130
ag50
aI0
aI0
aI0
aI0
aI0
aI0
aI0
aI0
ag0
(g97
g2
Ntp150
Rp151
(dp152
g101
I9
sg102
I1
sg103
I0
sg104
I5
sbag0
(g48
g2
Ntp153
Rp154
(dp155
g52
g17
sg53
(lp156
(I1
I5
I0
tp157
a(I1
I5
I1
tp158
a(I1
I5
I2
tp159
a(I2
I5
I2
tp160
a(I3
I5
I2
tp161
a(I3
I6
I2
tp162
a(I4
I6
I2
tp163
a(I5
I6
I2
tp164
a(I5
I6
I3
tp165
a(I6
I6
I3
tp166
a(I7
I6
I3
tp167
a(I8
I6
I3
tp168
a(I9
I6
I3
tp169
a(I10
I6
I3
tp170
a(I11
I6
I3
tp171
a(I12
I6
I3
tp172
a(I13
I6
I3
tp173
a(I13
I7
I3
tp174
a(I13
I7
I2
tp175
a(I13
I7
I1
tp176
ag21
asg70
g21
sg71
I27
sbag154
aI0
aI0
aI0
aI0
aI0
aI0
aI0
ag0
(g48
g2
Ntp177
Rp178
(dp179
g52
g24
sg53
(lp180
(I6
I8
I0
tp181
a(I6
I8
I1
tp182
a(I6
I8
I2
tp183
a(I5
I8
I2
tp184
a(I4
I8
I2
tp185
a(I3
I8
I2
tp186
a(I3
I8
I1
tp187
a(I3
I7
I1
tp188
a(I3
I6
I1
tp189
a(I3
I6
I0
tp190
a(I2
I6
I0
tp191
a(I1
I6
I0
tp192
ag17
asg70
g17
sg71
I21
sbag73
aI0
aI0
aI0
aI0
aI0
aI0
aI0
aI0
ag73
ag73
ag0
(g48
g2
Ntp193
Rp194
(dp195
g52
g11
sg53
(lp196
(I15
I1
I0
tp197
a(I15
I0
I0
tp198
a(I14
I0
I0
tp199
a(I13
I0
I0
tp200
a(I12
I0
I0
tp201
a(I11
I0
I0
tp202
a(I10
I0
I0
tp203
a(I9
I0
I0
tp204
a(I8
I0
I0
tp205
a(I7
I0
I0
tp206
a(I6
I0
I0
tp207
a(I6
I0
I1
tp208
a(I6
I1
I1
tp209
a(I6
I2
I1
tp210
a(I6
I3
I1
tp211
a(I6
I4
I1
tp212
a(I6
I5
I1
tp213
a(I6
I5
I2
tp214
a(I6
I6
I2
tp215
a(I6
I7
I2
tp216
a(I5
I7
I2
tp217
a(I4
I7
I2
tp218
a(I3
I7
I2
tp219
a(I2
I7
I2
tp220
a(I1
I7
I2
tp221
a(I1
I8
I2
tp222
a(I1
I8
I1
tp223
a(I1
I8
I0
tp224
ag23
asg70
g23
sg71
I17
sbag0
(g48
g2
Ntp225
Rp226
(dp227
g52
g28
sg53
(lp228
(I1
I9
I0
tp229
a(I1
I9
I1
tp230
a(I1
I9
I2
tp231
a(I1
I9
I3
tp232
a(I1
I8
I3
tp233
a(I1
I7
I3
tp234
a(I2
I7
I3
tp235
a(I3
I7
I3
tp236
a(I4
I7
I3
tp237
a(I4
I6
I3
tp238
a(I4
I5
I3
tp239
a(I4
I5
I2
tp240
a(I4
I5
I1
tp241
ag18
asg70
g18
sg71
I10
sbaI0
aI0
aI0
aI0
aI0
aI0
ag194
ag194
ag194
ag226
aI0
aI0
aI0
aI0
aI0
aI0
ag0
(g97
g2
Ntp242
Rp243
(dp244
g101
I20
sg102
I1
sg103
I0
sg104
I9
sbag226
ag226
ag226
aI0
aI0
aI0
aI0
aI0
aI0
ag0
(g48
g2
Ntp245
Rp246
(dp247
g52
g28
sg53
(lp248
(I1
I9
I0
tp249
a(I1
I10
I0
tp250
a(I1
I10
I1
tp251
a(I2
I10
I1
tp252
a(I3
I10
I1
tp253
a(I4
I10
I1
tp254
a(I5
I10
I1
tp255
a(I6
I10
I1
tp256
a(I7
I10
I1
tp257
a(I8
I10
I1
tp258
a(I9
I10
I1
tp259
a(I10
I10
I1
tp260
a(I10
I9
I1
tp261
a(I11
I9
I1
tp262
a(I12
I9
I1
tp263
a(I13
I9
I1
tp264
a(I14
I9
I1
tp265
a(I15
I9
I1
tp266
a(I15
I8
I1
tp267
ag27
asg70
g27
sg71
I20
sbag246
aI0
aI0
aI0
aI0
aI0
aI0
aI0
aI0
ag0
(g97
g2
Ntp268
Rp269
(dp270
g101
I23
sg102
I1
sg103
I0
sg104
I11
sbag0
(g48
g2
Ntp271
Rp272
(dp273
g52
g31
sg53
(lp274
(I1
I11
I0
tp275
a(I1
I11
I1
tp276
a(I2
I11
I1
tp277
a(I3
I11
I1
tp278
a(I4
I11
I1
tp279
a(I5
I11
I1
tp280
a(I6
I11
I1
tp281
a(I7
I11
I1
tp282
a(I8
I11
I1
tp283
a(I8
I11
I2
tp284
a(I8
I10
I2
tp285
a(I8
I9
I2
tp286
a(I8
I8
I2
tp287
a(I8
I7
I2
tp288
a(I8
I6
I2
tp289
a(I8
I5
I2
tp290
a(I8
I4
I2
tp291
a(I8
I4
I1
tp292
ag16
asg70
g16
sg71
I7
sbaI0
aI0
aI0
aI0
aI0
aI0
aI0
aI0
aI0
aI0
aI0
aI0
aI0
aI0
aI0
aI0
aI0
aI0
aI0
aI0
aI0
aI0
aI0
aI0
aI0
aI0
aI0
aI0
ag0
(g48
g2
Ntp293
Rp294
(dp295
g52
g9
sg53
(lp296
(I6
I1
I0
tp297
a(I5
I1
I0
tp298
a(I4
I1
I0
tp299
a(I3
I1
I0
tp300
a(I2
I1
I0
tp301
ag8
asg70
g8
sg71
I2
sbaI0
ag106
aI0
aI0
aI0
aI0
aI0
aI0
aI0
aI0
ag50
aI0
aI0
aI0
aI0
aI0
aI0
aI0
aI0
ag130
ag130
ag130
aI0
aI0
aI0
aI0
aI0
aI0
aI0
aI0
ag73
aI0
aI0
aI0
aI0
aI0
aI0
aI0
aI0
aI0
ag73
ag154
aI0
aI0
aI0
aI0
aI0
aI0
aI0
ag178
ag73
aI0
aI0
aI0
aI0
aI0
aI0
aI0
aI0
ag0
(g48
g2
Ntp302
Rp303
(dp304
g52
g23
sg53
(lp305
(I2
I8
I0
tp306
a(I2
I7
I0
tp307
a(I3
I7
I0
tp308
a(I4
I7
I0
tp309
a(I5
I7
I0
tp310
a(I6
I7
I0
tp311
a(I7
I7
I0
tp312
a(I8
I7
I0
tp313
a(I8
I6
I0
tp314
a(I8
I5
I0
tp315
ag16
asg70
g16
sg71
I11
sbaI0
ag194
ag226
aI0
aI0
aI0
aI0
aI0
aI0
ag0
(g97
g2
Ntp316
Rp317
(dp318
g101
I15
sg102
I2
sg103
I0
sg104
I8
sbag0
(g48
g2
Ntp319
Rp320
(dp321
g52
g23
sg53
(lp322
(I2
I8
I0
tp323
a(I2
I8
I1
tp324
a(I2
I9
I1
tp325
a(I2
I9
I2
tp326
a(I3
I9
I2
tp327
a(I4
I9
I2
tp328
a(I5
I9
I2
tp329
a(I6
I9
I2
tp330
a(I7
I9
I2
tp331
a(I7
I8
I2
tp332
a(I7
I8
I1
tp333
a(I8
I8
I1
tp334
a(I9
I8
I1
tp335
ag25
asg70
g25
sg71
I9
sbaI0
aI0
aI0
aI0
aI0
aI0
aI0
aI0
ag0
(g48
g2
Ntp336
Rp337
(dp338
g52
g23
sg53
(lp339
(I2
I8
I0
tp340
a(I2
I9
I0
tp341
ag29
asg70
g29
sg71
I3
sbag320
ag320
aI0
aI0
aI0
aI0
aI0
aI0
aI0
ag0
(g97
g2
Ntp342
Rp343
(dp344
g101
I21
sg102
I2
sg103
I0
sg104
I10
sbag246
aI0
aI0
aI0
aI0
aI0
aI0
aI0
aI0
ag0
(g48
g2
Ntp345
Rp346
(dp347
g52
g11
sg53
(lp348
(I15
I1
I0
tp349
a(I15
I1
I1
tp350
a(I14
I1
I1
tp351
a(I13
I1
I1
tp352
a(I13
I2
I1
tp353
a(I13
I3
I1
tp354
a(I13
I4
I1
tp355
a(I13
I5
I1
tp356
a(I13
I6
I1
tp357
a(I12
I6
I1
tp358
a(I11
I6
I1
tp359
a(I10
I6
I1
tp360
a(I9
I6
I1
tp361
a(I8
I6
I1
tp362
a(I7
I6
I1
tp363
a(I6
I6
I1
tp364
a(I5
I6
I1
tp365
a(I4
I6
I1
tp366
a(I4
I7
I1
tp367
a(I4
I8
I1
tp368
a(I4
I9
I1
tp369
a(I3
I9
I1
tp370
a(I3
I9
I0
tp371
a(I3
I10
I0
tp372
a(I3
I11
I0
tp373
a(I2
I11
I0
tp374
ag31
asg70
g31
sg71
I6
sbag272
aI0
aI0
aI0
aI0
aI0
aI0
aI0
aI0
aI0
aI0
aI0
aI0
aI0
aI0
aI0
aI0
aI0
aI0
aI0
aI0
aI0
aI0
aI0
aI0
aI0
aI0
aI0
aI0
ag294
aI0
ag106
aI0
aI0
aI0
aI0
aI0
aI0
aI0
ag0
(g97
g2
Ntp375
Rp376
(dp377
g101
I4
sg102
I3
sg103
I0
sg104
I2
sbag50
aI0
aI0
aI0
aI0
aI0
aI0
aI0
aI0
ag0
(g48
g2
Ntp378
Rp379
(dp380
g52
g18
sg53
(lp381
(I4
I5
I0
tp382
a(I3
I5
I0
tp383
a(I3
I4
I0
tp384
a(I3
I3
I0
tp385
ag12
asg70
g12
sg71
I15
sbaI0
ag130
aI0
aI0
aI0
aI0
aI0
aI0
aI0
ag379
ag73
aI0
aI0
aI0
aI0
aI0
aI0
aI0
aI0
ag379
aI0
ag154
aI0
aI0
aI0
aI0
aI0
aI0
aI0
ag178
ag178
ag154
aI0
aI0
aI0
aI0
aI0
aI0
aI0
ag303
ag178
ag194
ag226
aI0
aI0
aI0
aI0
aI0
aI0
ag0
(g48
g2
Ntp386
Rp387
(dp388
g52
g23
sg53
(lp389
(I2
I8
I0
tp390
a(I3
I8
I0
tp391
a(I4
I8
I0
tp392
a(I5
I8
I0
tp393
a(I5
I8
I1
tp394
a(I5
I7
I1
tp395
a(I6
I7
I1
tp396
a(I7
I7
I1
tp397
a(I8
I7
I1
tp398
a(I9
I7
I1
tp399
a(I10
I7
I1
tp400
a(I10
I7
I0
tp401
a(I10
I6
I0
tp402
a(I10
I5
I0
tp403
a(I10
I4
I0
tp404
a(I11
I4
I0
tp405
a(I11
I4
I1
tp406
a(I11
I3
I1
tp407
a(I11
I2
I1
tp408
a(I11
I2
I0
tp409
ag13
asg70
g13
sg71
I24
sbag178
ag178
aI0
aI0
aI0
aI0
aI0
aI0
aI0
ag346
ag346
ag320
aI0
aI0
aI0
aI0
aI0
aI0
aI0
ag346
ag246
aI0
aI0
aI0
aI0
aI0
aI0
aI0
aI0
ag346
ag272
aI0
aI0
aI0
aI0
aI0
aI0
aI0
aI0
aI0
aI0
aI0
aI0
aI0
aI0
aI0
aI0
aI0
aI0
aI0
aI0
aI0
aI0
aI0
aI0
aI0
aI0
aI0
aI0
ag294
aI0
ag106
aI0
aI0
aI0
aI0
aI0
aI0
aI0
ag0
(g48
g2
Ntp410
Rp411
(dp412
g52
g11
sg53
(lp413
(I15
I1
I0
tp414
a(I15
I2
I0
tp415
a(I15
I2
I1
tp416
a(I15
I2
I2
tp417
a(I15
I2
I3
tp418
a(I14
I2
I3
tp419
a(I13
I2
I3
tp420
a(I12
I2
I3
tp421
a(I11
I2
I3
tp422
a(I10
I2
I3
tp423
a(I9
I2
I3
tp424
a(I8
I2
I3
tp425
a(I7
I2
I3
tp426
a(I6
I2
I3
tp427
a(I5
I2
I3
tp428
a(I4
I2
I3
tp429
a(I4
I2
I2
tp430
a(I4
I2
I1
tp431
a(I4
I2
I0
tp432
ag12
asg70
g12
sg71
I19
sbag411
ag411
ag411
aI0
aI0
aI0
aI0
aI0
aI0
ag73
aI0
ag130
aI0
aI0
aI0
aI0
aI0
aI0
aI0
ag73
ag73
aI0
aI0
aI0
aI0
aI0
aI0
aI0
aI0
ag0
(g97
g2
Ntp433
Rp434
(dp435
g101
I10
sg102
I4
sg103
I0
sg104
I5
sbag226
ag226
ag226
aI0
aI0
aI0
aI0
aI0
aI0
aI0
ag346
ag154
ag226
aI0
aI0
aI0
aI0
aI0
aI0
ag303
ag346
ag194
ag226
aI0
aI0
aI0
aI0
aI0
aI0
ag387
ag346
ag178
aI0
aI0
aI0
aI0
aI0
aI0
aI0
aI0
ag346
ag320
aI0
aI0
aI0
aI0
aI0
aI0
aI0
aI0
ag246
aI0
aI0
aI0
aI0
aI0
aI0
aI0
aI0
aI0
ag272
aI0
aI0
aI0
aI0
aI0
aI0
aI0
aI0
aI0
aI0
aI0
aI0
aI0
aI0
aI0
aI0
aI0
aI0
aI0
aI0
aI0
aI0
aI0
aI0
aI0
aI0
aI0
aI0
ag294
aI0
ag106
aI0
aI0
aI0
aI0
aI0
aI0
aI0
ag73
aI0
aI0
ag411
aI0
aI0
aI0
aI0
aI0
aI0
ag73
aI0
ag130
aI0
aI0
aI0
aI0
aI0
aI0
aI0
aI0
aI0
aI0
aI0
aI0
aI0
aI0
aI0
aI0
aI0
ag0
(g48
g2
Ntp436
Rp437
(dp438
g52
g18
sg53
(lp439
(I4
I5
I0
tp440
a(I5
I5
I0
tp441
a(I6
I5
I0
tp442
a(I7
I5
I0
tp443
a(I7
I4
I0
tp444
a(I7
I3
I0
tp445
a(I8
I3
I0
tp446
a(I9
I3
I0
tp447
a(I10
I3
I0
tp448
a(I11
I3
I0
tp449
ag15
asg70
g15
sg71
I29
sbaI0
aI0
aI0
aI0
aI0
aI0
aI0
aI0
aI0
aI0
ag346
ag154
ag154
aI0
aI0
aI0
aI0
aI0
aI0
ag303
ag387
ag194
aI0
aI0
aI0
aI0
aI0
aI0
aI0
ag387
ag387
ag178
aI0
aI0
aI0
aI0
aI0
aI0
aI0
aI0
aI0
ag320
aI0
aI0
aI0
aI0
aI0
aI0
aI0
aI0
ag246
aI0
aI0
aI0
aI0
aI0
aI0
aI0
aI0
aI0
ag272
aI0
aI0
aI0
aI0
aI0
aI0
aI0
aI0
aI0
aI0
aI0
aI0
aI0
aI0
aI0
aI0
aI0
aI0
ag194
ag194
aI0
aI0
aI0
aI0
aI0
aI0
aI0
aI0
ag0
(g97
g2
Ntp450
Rp451
(dp452
g101
I1
sg102
I6
sg103
I0
sg104
I1
sbag194
ag106
aI0
aI0
aI0
aI0
aI0
aI0
aI0
ag73
ag194
aI0
ag411
aI0
aI0
aI0
aI0
aI0
aI0
aI0
ag194
ag130
aI0
aI0
aI0
aI0
aI0
aI0
aI0
aI0
ag194
aI0
aI0
aI0
aI0
aI0
aI0
aI0
aI0
ag437
ag194
ag194
aI0
aI0
aI0
aI0
aI0
aI0
aI0
aI0
ag346
ag194
ag154
aI0
aI0
aI0
aI0
aI0
aI0
ag303
ag387
ag194
aI0
aI0
aI0
aI0
aI0
aI0
aI0
ag0
(g97
g2
Ntp453
Rp454
(dp455
g101
I16
sg102
I6
sg103
I0
sg104
I8
sbag178
ag178
aI0
aI0
aI0
aI0
aI0
aI0
aI0
ag0
(g48
g2
Ntp456
Rp457
(dp458
g52
g30
sg53
(lp459
(I9
I10
I0
tp460
a(I8
I10
I0
tp461
a(I7
I10
I0
tp462
a(I6
I10
I0
tp463
a(I6
I9
I0
tp464
ag24
asg70
g24
sg71
I28
sbaI0
ag320
aI0
aI0
aI0
aI0
aI0
aI0
aI0
ag457
ag246
aI0
aI0
aI0
aI0
aI0
aI0
aI0
aI0
aI0
ag272
aI0
aI0
aI0
aI0
aI0
aI0
aI0
aI0
aI0
aI0
aI0
aI0
aI0
aI0
aI0
aI0
aI0
aI0
ag194
aI0
aI0
aI0
aI0
aI0
aI0
aI0
aI0
aI0
ag73
aI0
ag106
aI0
aI0
aI0
aI0
aI0
aI0
aI0
ag73
aI0
aI0
ag411
aI0
aI0
aI0
aI0
aI0
aI0
ag437
aI0
ag130
aI0
aI0
aI0
aI0
aI0
aI0
aI0
ag437
aI0
aI0
aI0
aI0
aI0
aI0
aI0
aI0
aI0
ag437
aI0
aI0
aI0
aI0
aI0
aI0
aI0
aI0
aI0
aI0
ag346
aI0
ag154
aI0
aI0
aI0
aI0
aI0
aI0
ag303
ag387
aI0
aI0
aI0
aI0
aI0
aI0
aI0
aI0
aI0
ag320
ag320
aI0
aI0
aI0
aI0
aI0
aI0
aI0
aI0
aI0
ag320
aI0
aI0
aI0
aI0
aI0
aI0
aI0
ag457
ag246
aI0
aI0
aI0
aI0
aI0
aI0
aI0
aI0
aI0
ag272
aI0
aI0
aI0
aI0
aI0
aI0
aI0
aI0
aI0
aI0
aI0
aI0
aI0
aI0
aI0
aI0
aI0
aI0
ag194
aI0
aI0
aI0
aI0
aI0
aI0
aI0
aI0
aI0
ag73
aI0
ag106
aI0
aI0
aI0
aI0
aI0
aI0
aI0
aI0
aI0
aI0
ag411
aI0
aI0
aI0
aI0
aI0
aI0
ag437
aI0
ag130
aI0
aI0
aI0
aI0
aI0
aI0
aI0
ag0
(g97
g2
Ntp465
Rp466
(dp467
g101
I8
sg102
I8
sg103
I0
sg104
I4
sbag272
ag272
aI0
aI0
aI0
aI0
aI0
aI0
aI0
ag303
aI0
ag272
aI0
aI0
aI0
aI0
aI0
aI0
aI0
ag303
ag346
ag272
ag154
aI0
aI0
aI0
aI0
aI0
aI0
ag303
ag387
ag272
aI0
aI0
aI0
aI0
aI0
aI0
aI0
aI0
ag320
ag272
aI0
aI0
aI0
aI0
aI0
aI0
aI0
aI0
aI0
ag272
aI0
aI0
aI0
aI0
aI0
aI0
aI0
ag457
ag246
ag272
aI0
aI0
aI0
aI0
aI0
aI0
aI0
aI0
ag272
ag272
aI0
aI0
aI0
aI0
aI0
aI0
aI0
aI0
aI0
aI0
aI0
aI0
aI0
aI0
aI0
aI0
aI0
ag194
aI0
aI0
aI0
aI0
aI0
aI0
aI0
aI0
aI0
ag73
aI0
ag106
aI0
aI0
aI0
aI0
aI0
aI0
aI0
aI0
aI0
aI0
ag411
aI0
aI0
aI0
aI0
aI0
aI0
ag437
aI0
ag130
aI0
aI0
aI0
aI0
aI0
aI0
aI0
aI0
aI0
aI0
aI0
aI0
aI0
aI0
aI0
aI0
aI0
aI0
aI0
aI0
aI0
aI0
aI0
aI0
aI0
aI0
aI0
aI0
ag346
aI0
ag154
aI0
aI0
aI0
aI0
aI0
aI0
aI0
ag387
aI0
aI0
aI0
aI0
aI0
aI0
aI0
aI0
ag0
(g97
g2
Ntp468
Rp469
(dp470
g101
I17
sg102
I9
sg103
I0
sg104
I8
sbag320
aI0
aI0
aI0
aI0
aI0
aI0
aI0
aI0
ag0
(g48
g2
Ntp471
Rp472
(dp473
g52
g30
sg53
(lp474
(I9
I10
I0
tp475
a(I9
I9
I0
tp476
a(I10
I9
I0
tp477
a(I11
I9
I0
tp478
a(I12
I9
I0
tp479
a(I13
I9
I0
tp480
a(I13
I8
I0
tp481
ag21
asg70
g21
sg71
I8
sbaI0
aI0
aI0
aI0
aI0
aI0
aI0
aI0
aI0
ag0
(g97
g2
Ntp482
Rp483
(dp484
g101
I22
sg102
I9
sg103
I0
sg104
I10
sbag246
aI0
aI0
aI0
aI0
aI0
aI0
aI0
aI0
aI0
aI0
aI0
aI0
aI0
aI0
aI0
aI0
aI0
aI0
aI0
aI0
aI0
aI0
aI0
aI0
aI0
aI0
aI0
aI0
ag194
aI0
aI0
aI0
aI0
aI0
aI0
aI0
aI0
aI0
ag0
(g97
g2
Ntp485
Rp486
(dp487
g101
I2
sg102
I10
sg103
I0
sg104
I1
sbag0
(g48
g2
Ntp488
Rp489
(dp490
g52
g27
sg53
(lp491
(I15
I8
I0
tp492
a(I14
I8
I0
tp493
a(I14
I7
I0
tp494
a(I14
I6
I0
tp495
a(I14
I5
I0
tp496
a(I14
I4
I0
tp497
a(I14
I4
I1
tp498
a(I14
I4
I2
tp499
a(I13
I4
I2
tp500
a(I12
I4
I2
tp501
a(I11
I4
I2
tp502
a(I10
I4
I2
tp503
a(I10
I4
I1
tp504
a(I10
I3
I1
tp505
a(I10
I2
I1
tp506
a(I10
I1
I1
tp507
ag10
asg70
g10
sg71
I13
sbag106
aI0
aI0
aI0
aI0
aI0
aI0
aI0
aI0
ag489
aI0
ag411
aI0
aI0
aI0
aI0
aI0
aI0
ag437
ag489
ag130
aI0
aI0
aI0
aI0
aI0
aI0
aI0
ag387
ag489
ag489
aI0
aI0
aI0
aI0
aI0
aI0
aI0
ag387
aI0
aI0
aI0
aI0
aI0
aI0
aI0
aI0
aI0
ag387
ag346
aI0
ag154
aI0
aI0
aI0
aI0
aI0
aI0
ag387
ag387
aI0
aI0
aI0
aI0
aI0
aI0
aI0
aI0
aI0
aI0
aI0
aI0
aI0
aI0
aI0
aI0
aI0
aI0
ag472
ag246
aI0
aI0
aI0
aI0
aI0
aI0
aI0
aI0
ag0
(g48
g2
Ntp508
Rp509
(dp510
g52
g30
sg53
(lp511
(I9
I10
I0
tp512
a(I10
I10
I0
tp513
a(I11
I10
I0
tp514
a(I11
I10
I1
tp515
a(I11
I10
I2
tp516
a(I11
I9
I2
tp517
a(I11
I8
I2
tp518
a(I11
I7
I2
tp519
a(I11
I6
I2
tp520
a(I11
I5
I2
tp521
a(I11
I5
I1
tp522
ag19
asg70
g19
sg71
I14
sbag246
aI0
aI0
aI0
aI0
aI0
aI0
aI0
aI0
aI0
aI0
aI0
aI0
aI0
aI0
aI0
aI0
aI0
aI0
aI0
aI0
aI0
aI0
aI0
aI0
aI0
aI0
aI0
aI0
ag194
aI0
aI0
aI0
aI0
aI0
aI0
aI0
aI0
aI0
aI0
aI0
ag106
aI0
aI0
aI0
aI0
aI0
aI0
aI0
ag387
ag387
aI0
ag411
aI0
aI0
aI0
aI0
aI0
aI0
ag437
ag387
ag130
aI0
aI0
aI0
aI0
aI0
aI0
aI0
ag387
ag387
ag489
aI0
aI0
aI0
aI0
aI0
aI0
aI0
ag0
(g97
g2
Ntp523
Rp524
(dp525
g101
I11
sg102
I11
sg103
I0
sg104
I5
sbag509
ag509
aI0
aI0
aI0
aI0
aI0
aI0
aI0
aI0
ag346
ag509
ag154
aI0
aI0
aI0
aI0
aI0
aI0
ag0
(g48
g2
Ntp526
Rp527
(dp528
g52
g21
sg53
(lp529
(I13
I7
I0
tp530
a(I12
I7
I0
tp531
a(I11
I7
I0
tp532
ag26
asg70
g26
sg71
I12
sbaI0
ag509
aI0
aI0
aI0
aI0
aI0
aI0
aI0
ag0
(g97
g2
Ntp533
Rp534
(dp535
g101
I18
sg102
I11
sg103
I0
sg104
I8
sbaI0
ag509
aI0
aI0
aI0
aI0
aI0
aI0
aI0
ag472
ag246
ag509
aI0
aI0
aI0
aI0
aI0
aI0
aI0
ag509
ag509
ag509
aI0
aI0
aI0
aI0
aI0
aI0
aI0
aI0
aI0
aI0
aI0
aI0
aI0
aI0
aI0
aI0
aI0
aI0
aI0
aI0
aI0
aI0
aI0
aI0
aI0
aI0
aI0
ag194
aI0
aI0
aI0
aI0
aI0
aI0
aI0
aI0
aI0
ag0
(g48
g2
Ntp536
Rp537
(dp538
g52
g11
sg53
(lp539
(I15
I1
I0
tp540
a(I14
I1
I0
tp541
a(I13
I1
I0
tp542
a(I12
I1
I0
tp543
ag13
asg70
g13
sg71
I4
sbaI0
ag106
aI0
aI0
aI0
aI0
aI0
aI0
aI0
ag0
(g97
g2
Ntp544
Rp545
(dp546
g101
I5
sg102
I12
sg103
I0
sg104
I2
sbag0
(g48
g2
Ntp547
Rp548
(dp549
g52
g27
sg53
(lp550
(I15
I8
I0
tp551
a(I15
I7
I0
tp552
a(I15
I7
I1
tp553
a(I15
I6
I1
tp554
a(I15
I5
I1
tp555
a(I15
I4
I1
tp556
a(I15
I3
I1
tp557
a(I14
I3
I1
tp558
a(I14
I2
I1
tp559
a(I14
I2
I2
tp560
a(I13
I2
I2
tp561
a(I12
I2
I2
tp562
a(I12
I2
I1
tp563
ag13
asg70
g13
sg71
I22
sbag548
ag411
aI0
aI0
aI0
aI0
aI0
aI0
ag0
(g97
g2
Ntp564
Rp565
(dp566
g101
I7
sg102
I12
sg103
I0
sg104
I3
sbag130
ag130
aI0
aI0
aI0
aI0
aI0
aI0
aI0
aI0
aI0
ag489
aI0
aI0
aI0
aI0
aI0
aI0
aI0
ag0
(g48
g2
Ntp567
Rp568
(dp569
g52
g19
sg53
(lp570
(I11
I5
I0
tp571
a(I12
I5
I0
tp572
a(I12
I5
I1
tp573
a(I12
I5
I2
tp574
a(I12
I6
I2
tp575
a(I12
I7
I2
tp576
a(I12
I8
I2
tp577
a(I12
I9
I2
tp578
a(I12
I10
I2
tp579
a(I12
I11
I2
tp580
a(I12
I11
I1
tp581
ag32
asg70
g32
sg71
I16
sbag568
ag568
aI0
aI0
aI0
aI0
aI0
aI0
aI0
aI0
ag346
ag568
ag154
aI0
aI0
aI0
aI0
aI0
aI0
ag527
aI0
ag568
aI0
aI0
aI0
aI0
aI0
aI0
aI0
aI0
aI0
ag568
aI0
aI0
aI0
aI0
aI0
aI0
aI0
ag472
ag246
ag568
aI0
aI0
aI0
aI0
aI0
aI0
aI0
aI0
aI0
ag568
aI0
aI0
aI0
aI0
aI0
aI0
aI0
ag0
(g97
g2
Ntp582
Rp583
(dp584
g101
I24
sg102
I12
sg103
I0
sg104
I11
sbag568
ag568
aI0
aI0
aI0
aI0
aI0
aI0
aI0
aI0
aI0
aI0
aI0
aI0
aI0
aI0
aI0
aI0
aI0
ag194
aI0
aI0
aI0
aI0
aI0
aI0
aI0
aI0
aI0
ag537
ag346
ag106
aI0
aI0
aI0
aI0
aI0
aI0
aI0
aI0
ag346
ag548
ag411
aI0
aI0
aI0
aI0
aI0
aI0
ag0
(g48
g2
Ntp585
Rp586
(dp587
g52
g15
sg53
(lp588
(I12
I3
I0
tp589
a(I13
I3
I0
tp590
a(I13
I4
I0
tp591
a(I13
I5
I0
tp592
a(I13
I6
I0
tp593
ag21
asg70
g21
sg71
I5
sbag346
aI0
aI0
aI0
aI0
aI0
aI0
aI0
aI0
ag586
ag346
ag489
aI0
aI0
aI0
aI0
aI0
aI0
aI0
ag586
ag346
aI0
aI0
aI0
aI0
aI0
aI0
aI0
aI0
ag586
ag346
aI0
ag154
aI0
aI0
aI0
aI0
aI0
aI0
ag0
(g97
g2
Ntp594
Rp595
(dp596
g101
I13
sg102
I13
sg103
I0
sg104
I7
sbag154
ag154
ag154
aI0
aI0
aI0
aI0
aI0
aI0
ag472
aI0
aI0
aI0
aI0
aI0
aI0
aI0
aI0
aI0
ag472
ag246
aI0
aI0
aI0
aI0
aI0
aI0
aI0
aI0
aI0
aI0
aI0
aI0
aI0
aI0
aI0
aI0
aI0
aI0
aI0
aI0
aI0
aI0
aI0
aI0
aI0
aI0
aI0
aI0
aI0
aI0
aI0
aI0
aI0
aI0
aI0
aI0
aI0
aI0
ag194
aI0
aI0
aI0
aI0
aI0
aI0
aI0
aI0
aI0
ag537
ag346
ag106
aI0
aI0
aI0
aI0
aI0
aI0
aI0
ag0
(g97
g2
Ntp597
Rp598
(dp599
g101
I6
sg102
I14
sg103
I0
sg104
I2
sbag548
ag548
ag411
aI0
aI0
aI0
aI0
aI0
aI0
ag0
(g48
g2
Ntp600
Rp601
(dp602
g52
g14
sg53
(lp603
(I14
I2
I0
tp604
a(I14
I3
I0
tp605
a(I15
I3
I0
tp606
a(I15
I4
I0
tp607
a(I15
I5
I0
tp608
a(I15
I6
I0
tp609
a(I16
I6
I0
tp610
ag22
asg70
g22
sg71
I25
sbag548
aI0
aI0
aI0
aI0
aI0
aI0
aI0
aI0
ag489
ag489
ag489
aI0
aI0
aI0
aI0
aI0
aI0
aI0
ag489
aI0
aI0
aI0
aI0
aI0
aI0
aI0
aI0
aI0
ag489
aI0
aI0
aI0
aI0
aI0
aI0
aI0
aI0
aI0
ag489
aI0
aI0
aI0
aI0
aI0
aI0
aI0
aI0
aI0
ag489
aI0
aI0
aI0
aI0
aI0
aI0
aI0
aI0
aI0
aI0
ag246
aI0
aI0
aI0
aI0
aI0
aI0
aI0
aI0
aI0
aI0
aI0
aI0
aI0
aI0
aI0
aI0
aI0
aI0
aI0
aI0
aI0
aI0
aI0
aI0
aI0
aI0
aI0
aI0
aI0
aI0
aI0
aI0
aI0
aI0
aI0
aI0
aI0
aI0
ag194
aI0
aI0
aI0
aI0
aI0
aI0
aI0
aI0
aI0
ag0
(g97
g2
Ntp611
Rp612
(dp613
g101
I3
sg102
I15
sg103
I0
sg104
I1
sbag346
ag106
aI0
aI0
aI0
aI0
aI0
aI0
aI0
ag411
ag411
ag411
ag411
aI0
aI0
aI0
aI0
aI0
aI0
ag601
ag548
aI0
aI0
aI0
aI0
aI0
aI0
aI0
aI0
ag601
ag548
aI0
aI0
aI0
aI0
aI0
aI0
aI0
aI0
ag601
ag548
aI0
aI0
aI0
aI0
aI0
aI0
aI0
aI0
ag601
ag548
aI0
aI0
aI0
aI0
aI0
aI0
aI0
aI0
ag548
ag548
aI0
aI0
aI0
aI0
aI0
aI0
aI0
aI0
ag0
(g97
g2
Ntp614
Rp615
(dp616
g101
I19
sg102
I15
sg103
I0
sg104
I8
sbag246
aI0
aI0
aI0
aI0
aI0
aI0
aI0
aI0
aI0
ag246
aI0
aI0
aI0
aI0
aI0
aI0
aI0
aI0
aI0
aI0
aI0
aI0
aI0
aI0
aI0
aI0
aI0
aI0
aI0
aI0
aI0
aI0
aI0
aI0
aI0
aI0
aI0
aI0
aI0
aI0
aI0
aI0
aI0
aI0
aI0
aI0
aI0
aI0
aI0
aI0
aI0
aI0
aI0
aI0
aI0
aI0
aI0
aI0
ag106
ag106
ag106
aI0
aI0
aI0
aI0
aI0
aI0
aI0
aI0
aI0
aI0
aI0
aI0
aI0
aI0
aI0
aI0
aI0
aI0
aI0
aI0
aI0
aI0
aI0
aI0
aI0
aI0
aI0
aI0
aI0
aI0
aI0
aI0
aI0
aI0
aI0
aI0
aI0
ag0
(g97
g2
Ntp617
Rp618
(dp619
g101
I12
sg102
I16
sg103
I0
sg104
I5
sbaI0
aI0
aI0
aI0
aI0
aI0
aI0
aI0
aI0
ag601
aI0
aI0
aI0
aI0
aI0
aI0
aI0
aI0
aI0
ag0
(g97
g2
Ntp620
Rp621
(dp622
g101
I14
sg102
I16
sg103
I0
sg104
I7
sbaI0
aI0
aI0
aI0
aI0
aI0
aI0
aI0
aI0
aI0
aI0
aI0
aI0
aI0
aI0
aI0
aI0
aI0
aI0
aI0
aI0
aI0
aI0
aI0
aI0
aI0
aI0
aI0
aI0
aI0
aI0
aI0
aI0
aI0
aI0
aI0
aI0
aI0
aI0
aI0
aI0
aI0
aI0
aI0
aI0
aI0
aI0
aI0
aI0
aI0
aI0
aI0
aI0
aI0
aI0
aI0
aI0
aI0
aI0
aI0
aI0
aI0
aI0
aI0
aI0
aI0
aI0
aI0
aI0
aI0
aI0
aI0
aI0
aI0
aI0
aI0
aI0
aI0
aI0
aI0
aI0
aI0
aI0
aI0
aI0
aI0
aI0
aI0
aI0
aI0
aI0
aI0
aI0
aI0
aI0
aI0
aI0
aI0
aI0
aI0
aI0
aI0
aI0
aI0
aI0
aI0
aI0
aI0
aI0
aI0
aI0
aI0
aI0
aI0
aI0
aI0
aI0
aI0
aI0
aI0
aI0
aI0
aI0
aI0
aI0
aI0
aI0
aI0
aI0
aI0
aI0
aI0
aI0
aI0
aI0
aI0
aI0
aI0
aI0
aI0
aI0
aI0
aI0
aI0
aI0
aI0
aI0
aI0
aI0
aI0
aI0
aI0
aI0
aI0
aI0
aI0
aI0
aI0
aI0
aI0
aI0
aI0
aI0
aI0
aI0
aI0
aI0
aI0
aI0
aI0
aI0
aI0
aI0
aI0
aI0
aI0
aI0
aI0
aI0
aI0
aI0
aI0
aI0
aI0
aI0
aI0
aI0
aI0
aI0
atp623
bsS'x_dim'
p624
I18
sS'nets'
p625
(dp626
I0
g50
sI1
g0
(g48
g2
Ntp627
Rp628
(dp629
g52
g13
sg53
(lp630
(I12
I2
I0
tp631
ag15
asg70
g15
sg71
I1
sbsI2
g294
sI3
g337
sI4
g537
sI5
g586
sI6
g346
sI7
g272
sI8
g472
sI9
g320
sI10
g226
sI11
g303
sI12
g527
sI13
g489
sI14
g509
sI15
g379
sI16
g568
sI17
g194
sI18
g73
sI19
g411
sI20
g246
sI21
g178
sI22
g548
sI23
g106
sI24
g387
sI25
g601
sI26
g130
sI27
g154
sI28
g457
sI29
g437
ssS'y_dim'
p632
I13
sS'z_dim'
p633
I10
sb.