ccopy_reg
_reconstructor
p0
(cmodules.Objects
Board
p1
c__builtin__
object
p2
Ntp3
Rp4
(dp5
S'gates'
p6
(dp7
I0
g0
(cmodules.Objects
Gate
p8
g2
Ntp9
Rp10
(dp11
S'gate_id'
p12
I0
sS'x'
p13
I1
sS'z'
p14
I0
sS'y'
p15
I1
sbsI1
g0
(g8
g2
Ntp16
Rp17
(dp18
g12
I1
sg13
I6
sg14
I0
sg15
I1
sbsI2
g0
(g8
g2
Ntp19
Rp20
(dp21
g12
I2
sg13
I10
sg14
I0
sg15
I1
sbsI3
g0
(g8
g2
Ntp22
Rp23
(dp24
g12
I3
sg13
I15
sg14
I0
sg15
I1
sbsI4
g0
(g8
g2
Ntp25
Rp26
(dp27
g12
I4
sg13
I3
sg14
I0
sg15
I2
sbsI5
g0
(g8
g2
Ntp28
Rp29
(dp30
g12
I5
sg13
I12
sg14
I0
sg15
I2
sbsI6
g0
(g8
g2
Ntp31
Rp32
(dp33
g12
I6
sg13
I14
sg14
I0
sg15
I2
sbsI7
g0
(g8
g2
Ntp34
Rp35
(dp36
g12
I7
sg13
I12
sg14
I0
sg15
I3
sbsI8
g0
(g8
g2
Ntp37
Rp38
(dp39
g12
I8
sg13
I8
sg14
I0
sg15
I4
sbsI9
g0
(g8
g2
Ntp40
Rp41
(dp42
g12
I9
sg13
I1
sg14
I0
sg15
I5
sbsI10
g0
(g8
g2
Ntp43
Rp44
(dp45
g12
I10
sg13
I4
sg14
I0
sg15
I5
sbsI11
g0
(g8
g2
Ntp46
Rp47
(dp48
g12
I11
sg13
I11
sg14
I0
sg15
I5
sbsI12
g0
(g8
g2
Ntp49
Rp50
(dp51
g12
I12
sg13
I16
sg14
I0
sg15
I5
sbsI13
g0
(g8
g2
Ntp52
Rp53
(dp54
g12
I13
sg13
I13
sg14
I0
sg15
I7
sbsI14
g0
(g8
g2
Ntp55
Rp56
(dp57
g12
I14
sg13
I16
sg14
I0
sg15
I7
sbsI15
g0
(g8
g2
Ntp58
Rp59
(dp60
g12
I15
sg13
I2
sg14
I0
sg15
I8
sbsI16
g0
(g8
g2
Ntp61
Rp62
(dp63
g12
I16
sg13
I6
sg14
I0
sg15
I8
sbsI17
g0
(g8
g2
Ntp64
Rp65
(dp66
g12
I17
sg13
I9
sg14
I0
sg15
I8
sbsI18
g0
(g8
g2
Ntp67
Rp68
(dp69
g12
I18
sg13
I11
sg14
I0
sg15
I8
sbsI19
g0
(g8
g2
Ntp70
Rp71
(dp72
g12
I19
sg13
I15
sg14
I0
sg15
I8
sbsI20
g0
(g8
g2
Ntp73
Rp74
(dp75
g12
I20
sg13
I1
sg14
I0
sg15
I9
sbsI21
g0
(g8
g2
Ntp76
Rp77
(dp78
g12
I21
sg13
I2
sg14
I0
sg15
I10
sbsI22
g0
(g8
g2
Ntp79
Rp80
(dp81
g12
I22
sg13
I9
sg14
I0
sg15
I10
sbsI23
g0
(g8
g2
Ntp82
Rp83
(dp84
g12
I23
sg13
I1
sg14
I0
sg15
I11
sbsI24
g0
(g8
g2
Ntp85
Rp86
(dp87
g12
I24
sg13
I12
sg14
I0
sg15
I11
sbssS'board'
p88
cnumpy.core.multiarray
_reconstruct
p89
(cnumpy
ndarray
p90
(I0
tp91
S'b'
p92
tp93
Rp94
(I1
(I18
I13
I10
tp95
cnumpy
dtype
p96
(S'O8'
p97
I0
I1
tp98
Rp99
(I3
S'|'
p100
NNNI-1
I-1
I63
tp101
bI00
(lp102
I0
aI0
aI0
aI0
aI0
aI0
aI0
aI0
aI0
aI0
aI0
aI0
aI0
aI0
aI0
aI0
aI0
aI0
aI0
aI0
aI0
ag0
(cmodules.Objects
Net
p103
g2
Ntp104
Rp105
(dp106
S'start_gate'
p107
I23
sS'path'
p108
(lp109
(I1
I11
I0
tp110
a(I0
I11
I0
tp111
a(I0
I10
I0
tp112
a(I0
I10
I1
tp113
a(I0
I9
I1
tp114
a(I0
I8
I1
tp115
a(I0
I7
I1
tp116
a(I0
I6
I1
tp117
a(I0
I5
I1
tp118
a(I0
I4
I1
tp119
a(I0
I3
I1
tp120
a(I0
I2
I1
tp121
a(I1
I2
I1
tp122
a(I1
I2
I0
tp123
a(I2
I2
I0
tp124
a(I3
I2
I0
tp125
asS'end_gate'
p126
I4
sS'net_id'
p127
I0
sbaI0
aI0
aI0
aI0
aI0
aI0
aI0
aI0
ag0
(g103
g2
Ntp128
Rp129
(dp130
g107
I7
sg108
(lp131
(I12
I3
I0
tp132
a(I12
I3
I1
tp133
a(I12
I3
I2
tp134
a(I11
I3
I2
tp135
a(I10
I3
I2
tp136
a(I9
I3
I2
tp137
a(I8
I3
I2
tp138
a(I7
I3
I2
tp139
a(I6
I3
I2
tp140
a(I5
I3
I2
tp141
a(I4
I3
I2
tp142
a(I3
I3
I2
tp143
a(I2
I3
I2
tp144
a(I1
I3
I2
tp145
a(I1
I3
I1
tp146
a(I1
I3
I0
tp147
a(I0
I3
I0
tp148
a(I0
I4
I0
tp149
a(I0
I5
I0
tp150
a(I1
I5
I0
tp151
asg126
I9
sg127
I26
sbag105
aI0
aI0
aI0
aI0
aI0
aI0
aI0
aI0
ag129
ag105
aI0
aI0
aI0
aI0
aI0
aI0
aI0
aI0
ag129
ag105
aI0
aI0
aI0
aI0
aI0
aI0
aI0
aI0
aI0
ag105
aI0
aI0
aI0
aI0
aI0
aI0
aI0
aI0
ag0
(g103
g2
Ntp152
Rp153
(dp154
g107
I2
sg108
(lp155
(I10
I1
I0
tp156
a(I9
I1
I0
tp157
a(I8
I1
I0
tp158
a(I7
I1
I0
tp159
a(I7
I2
I0
tp160
a(I6
I2
I0
tp161
a(I6
I3
I0
tp162
a(I6
I4
I0
tp163
a(I6
I5
I0
tp164
a(I6
I6
I0
tp165
a(I5
I6
I0
tp166
a(I4
I6
I0
tp167
a(I3
I6
I0
tp168
a(I2
I6
I0
tp169
a(I1
I6
I0
tp170
a(I1
I7
I0
tp171
a(I0
I7
I0
tp172
a(I0
I8
I0
tp173
a(I0
I9
I0
tp174
a(I1
I9
I0
tp175
asg126
I20
sg127
I18
sbag105
aI0
aI0
aI0
aI0
aI0
aI0
aI0
aI0
ag153
ag105
aI0
aI0
aI0
aI0
aI0
aI0
aI0
aI0
ag153
ag105
aI0
aI0
aI0
aI0
aI0
aI0
aI0
aI0
ag105
ag105
aI0
aI0
aI0
aI0
aI0
aI0
aI0
aI0
ag105
aI0
aI0
aI0
aI0
aI0
aI0
aI0
aI0
aI0
aI0
aI0
aI0
aI0
aI0
aI0
aI0
aI0
aI0
aI0
aI0
aI0
aI0
aI0
aI0
aI0
aI0
aI0
aI0
aI0
ag10
ag0
(g103
g2
Ntp176
Rp177
(dp178
g107
I3
sg108
(lp179
(I15
I1
I0
tp180
a(I16
I1
I0
tp181
a(I16
I1
I1
tp182
a(I16
I1
I2
tp183
a(I15
I1
I2
tp184
a(I14
I1
I2
tp185
a(I13
I1
I2
tp186
a(I12
I1
I2
tp187
a(I11
I1
I2
tp188
a(I10
I1
I2
tp189
a(I9
I1
I2
tp190
a(I8
I1
I2
tp191
a(I7
I1
I2
tp192
a(I6
I1
I2
tp193
a(I5
I1
I2
tp194
a(I4
I1
I2
tp195
a(I3
I1
I2
tp196
a(I2
I1
I2
tp197
a(I1
I1
I2
tp198
a(I1
I1
I1
tp199
a(I1
I1
I0
tp200
asg126
I0
sg127
I23
sbag177
aI0
aI0
aI0
aI0
aI0
aI0
aI0
ag105
ag105
aI0
aI0
aI0
aI0
aI0
aI0
aI0
aI0
ag129
ag129
ag129
aI0
aI0
aI0
aI0
aI0
aI0
aI0
ag0
(g103
g2
Ntp201
Rp202
(dp203
g107
I9
sg108
(lp204
(I1
I5
I0
tp205
a(I1
I4
I0
tp206
a(I1
I4
I1
tp207
a(I1
I4
I2
tp208
a(I2
I4
I2
tp209
a(I3
I4
I2
tp210
a(I4
I4
I2
tp211
a(I5
I4
I2
tp212
a(I6
I4
I2
tp213
a(I7
I4
I2
tp214
a(I8
I4
I2
tp215
a(I9
I4
I2
tp216
a(I10
I4
I2
tp217
a(I11
I4
I2
tp218
a(I12
I4
I2
tp219
a(I13
I4
I2
tp220
a(I13
I5
I2
tp221
a(I13
I6
I2
tp222
a(I13
I7
I2
tp223
a(I14
I7
I2
tp224
a(I14
I7
I1
tp225
a(I14
I7
I0
tp226
a(I13
I7
I0
tp227
asg126
I13
sg127
I27
sbag202
ag202
aI0
aI0
aI0
aI0
aI0
aI0
aI0
ag41
ag0
(g103
g2
Ntp228
Rp229
(dp230
g107
I16
sg108
(lp231
(I6
I8
I0
tp232
a(I6
I8
I1
tp233
a(I5
I8
I1
tp234
a(I5
I7
I1
tp235
a(I5
I6
I1
tp236
a(I5
I5
I1
tp237
a(I5
I5
I2
tp238
a(I4
I5
I2
tp239
a(I3
I5
I2
tp240
a(I2
I5
I2
tp241
a(I1
I5
I2
tp242
a(I1
I5
I1
tp243
a(I1
I5
I0
tp244
asg126
I9
sg127
I21
sbag229
aI0
aI0
aI0
aI0
aI0
aI0
aI0
ag153
ag0
(g103
g2
Ntp245
Rp246
(dp247
g107
I3
sg108
(lp248
(I15
I1
I0
tp249
a(I15
I0
I0
tp250
a(I14
I0
I0
tp251
a(I13
I0
I0
tp252
a(I12
I0
I0
tp253
a(I11
I0
I0
tp254
a(I10
I0
I0
tp255
a(I9
I0
I0
tp256
a(I8
I0
I0
tp257
a(I7
I0
I0
tp258
a(I6
I0
I0
tp259
a(I5
I0
I0
tp260
a(I4
I0
I0
tp261
a(I3
I0
I0
tp262
a(I2
I0
I0
tp263
a(I2
I0
I1
tp264
a(I2
I1
I1
tp265
a(I2
I2
I1
tp266
a(I2
I3
I1
tp267
a(I2
I4
I1
tp268
a(I2
I5
I1
tp269
a(I2
I6
I1
tp270
a(I1
I6
I1
tp271
a(I1
I7
I1
tp272
a(I1
I8
I1
tp273
a(I1
I8
I0
tp274
a(I2
I8
I0
tp275
asg126
I15
sg127
I17
sbaI0
aI0
aI0
aI0
aI0
aI0
aI0
aI0
ag153
ag246
aI0
aI0
aI0
aI0
aI0
aI0
aI0
aI0
ag246
ag246
aI0
aI0
aI0
aI0
aI0
aI0
aI0
aI0
ag74
ag0
(g103
g2
Ntp276
Rp277
(dp278
g107
I20
sg108
(lp279
(I1
I9
I0
tp280
a(I1
I9
I1
tp281
a(I2
I9
I1
tp282
a(I2
I9
I2
tp283
a(I3
I9
I2
tp284
a(I4
I9
I2
tp285
a(I4
I8
I2
tp286
a(I4
I7
I2
tp287
a(I4
I7
I1
tp288
a(I4
I6
I1
tp289
a(I4
I5
I1
tp290
a(I4
I5
I0
tp291
asg126
I10
sg127
I10
sbaI0
aI0
aI0
aI0
aI0
aI0
aI0
aI0
ag0
(g103
g2
Ntp292
Rp293
(dp294
g107
I20
sg108
(lp295
(I1
I9
I0
tp296
a(I1
I10
I0
tp297
a(I1
I10
I1
tp298
a(I2
I10
I1
tp299
a(I3
I10
I1
tp300
a(I4
I10
I1
tp301
a(I5
I10
I1
tp302
a(I6
I10
I1
tp303
a(I7
I10
I1
tp304
a(I8
I10
I1
tp305
a(I9
I10
I1
tp306
a(I9
I9
I1
tp307
a(I10
I9
I1
tp308
a(I11
I9
I1
tp309
a(I12
I9
I1
tp310
a(I13
I9
I1
tp311
a(I14
I9
I1
tp312
a(I15
I9
I1
tp313
a(I15
I8
I1
tp314
a(I15
I8
I0
tp315
asg126
I19
sg127
I20
sbag293
aI0
aI0
aI0
aI0
aI0
aI0
aI0
aI0
ag83
aI0
aI0
aI0
aI0
aI0
aI0
aI0
aI0
aI0
ag0
(g103
g2
Ntp316
Rp317
(dp318
g107
I23
sg108
(lp319
(I1
I11
I0
tp320
a(I1
I12
I0
tp321
a(I2
I12
I0
tp322
a(I3
I12
I0
tp323
a(I4
I12
I0
tp324
a(I5
I12
I0
tp325
a(I5
I11
I0
tp326
a(I5
I10
I0
tp327
a(I5
I9
I0
tp328
a(I5
I9
I1
tp329
a(I6
I9
I1
tp330
a(I7
I9
I1
tp331
a(I7
I8
I1
tp332
a(I7
I7
I1
tp333
a(I7
I6
I1
tp334
a(I7
I5
I1
tp335
a(I7
I4
I1
tp336
a(I8
I4
I1
tp337
a(I8
I4
I0
tp338
asg126
I8
sg127
I7
sbaI0
aI0
aI0
aI0
aI0
aI0
aI0
aI0
aI0
ag246
ag246
aI0
aI0
aI0
aI0
aI0
aI0
aI0
aI0
ag0
(g103
g2
Ntp339
Rp340
(dp341
g107
I1
sg108
(lp342
(I6
I1
I0
tp343
a(I5
I1
I0
tp344
a(I4
I1
I0
tp345
a(I3
I1
I0
tp346
a(I2
I1
I0
tp347
a(I1
I1
I0
tp348
asg126
I0
sg127
I2
sbag246
ag177
aI0
aI0
aI0
aI0
aI0
aI0
aI0
ag105
ag246
aI0
aI0
aI0
aI0
aI0
aI0
aI0
aI0
aI0
ag246
ag129
aI0
aI0
aI0
aI0
aI0
aI0
aI0
aI0
ag246
ag202
aI0
aI0
aI0
aI0
aI0
aI0
aI0
aI0
ag246
ag229
aI0
aI0
aI0
aI0
aI0
aI0
aI0
ag153
ag246
aI0
aI0
aI0
aI0
aI0
aI0
aI0
aI0
ag0
(g103
g2
Ntp349
Rp350
(dp351
g107
I15
sg108
(lp352
(I2
I8
I0
tp353
a(I2
I7
I0
tp354
a(I2
I7
I1
tp355
a(I2
I7
I2
tp356
a(I3
I7
I2
tp357
a(I3
I6
I2
tp358
a(I4
I6
I2
tp359
a(I5
I6
I2
tp360
a(I6
I6
I2
tp361
a(I7
I6
I2
tp362
a(I8
I6
I2
tp363
a(I8
I5
I2
tp364
a(I8
I5
I1
tp365
a(I8
I5
I0
tp366
a(I8
I4
I0
tp367
asg126
I8
sg127
I11
sbag350
ag350
aI0
aI0
aI0
aI0
aI0
aI0
aI0
ag59
ag0
(g103
g2
Ntp368
Rp369
(dp370
g107
I15
sg108
(lp371
(I2
I8
I0
tp372
a(I2
I8
I1
tp373
a(I2
I8
I2
tp374
a(I3
I8
I2
tp375
a(I3
I8
I3
tp376
a(I4
I8
I3
tp377
a(I5
I8
I3
tp378
a(I6
I8
I3
tp379
a(I7
I8
I3
tp380
a(I8
I8
I3
tp381
a(I9
I8
I3
tp382
a(I9
I8
I2
tp383
a(I9
I8
I1
tp384
a(I9
I8
I0
tp385
asg126
I17
sg127
I9
sbag369
aI0
aI0
aI0
aI0
aI0
aI0
aI0
ag0
(g103
g2
Ntp386
Rp387
(dp388
g107
I15
sg108
(lp389
(I2
I8
I0
tp390
a(I2
I9
I0
tp391
a(I2
I10
I0
tp392
asg126
I21
sg127
I3
sbag277
ag277
aI0
aI0
aI0
aI0
aI0
aI0
aI0
ag77
ag293
aI0
aI0
aI0
aI0
aI0
aI0
aI0
aI0
ag0
(g103
g2
Ntp393
Rp394
(dp395
g107
I3
sg108
(lp396
(I15
I1
I0
tp397
a(I15
I1
I1
tp398
a(I14
I1
I1
tp399
a(I13
I1
I1
tp400
a(I12
I1
I1
tp401
a(I11
I1
I1
tp402
a(I10
I1
I1
tp403
a(I9
I1
I1
tp404
a(I8
I1
I1
tp405
a(I7
I1
I1
tp406
a(I6
I1
I1
tp407
a(I5
I1
I1
tp408
a(I4
I1
I1
tp409
a(I3
I1
I1
tp410
a(I3
I2
I1
tp411
a(I3
I3
I1
tp412
a(I3
I4
I1
tp413
a(I3
I5
I1
tp414
a(I3
I6
I1
tp415
a(I3
I7
I1
tp416
a(I3
I8
I1
tp417
a(I3
I9
I1
tp418
a(I3
I9
I0
tp419
a(I3
I10
I0
tp420
a(I3
I11
I0
tp421
a(I2
I11
I0
tp422
a(I1
I11
I0
tp423
asg126
I23
sg127
I6
sbaI0
aI0
aI0
aI0
aI0
aI0
aI0
aI0
aI0
ag317
aI0
aI0
aI0
aI0
aI0
aI0
aI0
aI0
aI0
ag246
aI0
aI0
aI0
aI0
aI0
aI0
aI0
aI0
aI0
ag340
ag394
ag177
aI0
aI0
aI0
aI0
aI0
aI0
aI0
ag26
ag394
aI0
aI0
aI0
aI0
aI0
aI0
aI0
aI0
ag0
(g103
g2
Ntp424
Rp425
(dp426
g107
I10
sg108
(lp427
(I4
I5
I0
tp428
a(I3
I5
I0
tp429
a(I3
I4
I0
tp430
a(I3
I3
I0
tp431
a(I3
I2
I0
tp432
asg126
I4
sg127
I15
sbag394
ag129
aI0
aI0
aI0
aI0
aI0
aI0
aI0
ag425
ag394
ag202
aI0
aI0
aI0
aI0
aI0
aI0
aI0
ag425
ag394
ag229
aI0
aI0
aI0
aI0
aI0
aI0
aI0
ag153
ag394
ag350
aI0
aI0
aI0
aI0
aI0
aI0
aI0
aI0
ag394
ag350
aI0
aI0
aI0
aI0
aI0
aI0
aI0
ag0
(g103
g2
Ntp433
Rp434
(dp435
g107
I15
sg108
(lp436
(I2
I8
I0
tp437
a(I3
I8
I0
tp438
a(I4
I8
I0
tp439
a(I5
I8
I0
tp440
a(I5
I7
I0
tp441
a(I6
I7
I0
tp442
a(I7
I7
I0
tp443
a(I8
I7
I0
tp444
a(I9
I7
I0
tp445
a(I9
I6
I0
tp446
a(I9
I5
I0
tp447
a(I9
I4
I0
tp448
a(I9
I3
I0
tp449
a(I9
I2
I0
tp450
a(I9
I2
I1
tp451
a(I10
I2
I1
tp452
a(I11
I2
I1
tp453
a(I11
I2
I0
tp454
a(I12
I2
I0
tp455
asg126
I5
sg127
I24
sbag394
ag369
ag369
aI0
aI0
aI0
aI0
aI0
aI0
ag394
ag394
ag277
aI0
aI0
aI0
aI0
aI0
aI0
aI0
ag394
ag293
aI0
aI0
aI0
aI0
aI0
aI0
aI0
aI0
ag394
aI0
aI0
aI0
aI0
aI0
aI0
aI0
aI0
aI0
ag317
aI0
aI0
aI0
aI0
aI0
aI0
aI0
aI0
aI0
ag246
aI0
aI0
aI0
aI0
aI0
aI0
aI0
aI0
aI0
ag340
ag394
ag177
aI0
aI0
aI0
aI0
aI0
aI0
aI0
ag0
(g103
g2
Ntp456
Rp457
(dp458
g107
I3
sg108
(lp459
(I15
I1
I0
tp460
a(I15
I2
I0
tp461
a(I15
I3
I0
tp462
a(I15
I3
I1
tp463
a(I15
I3
I2
tp464
a(I14
I3
I2
tp465
a(I13
I3
I2
tp466
a(I13
I2
I2
tp467
a(I12
I2
I2
tp468
a(I11
I2
I2
tp469
a(I10
I2
I2
tp470
a(I9
I2
I2
tp471
a(I8
I2
I2
tp472
a(I7
I2
I2
tp473
a(I6
I2
I2
tp474
a(I5
I2
I2
tp475
a(I4
I2
I2
tp476
a(I4
I2
I1
tp477
a(I4
I2
I0
tp478
a(I3
I2
I0
tp479
asg126
I4
sg127
I19
sbag457
ag457
aI0
aI0
aI0
aI0
aI0
aI0
aI0
aI0
aI0
ag129
aI0
aI0
aI0
aI0
aI0
aI0
aI0
aI0
aI0
ag202
aI0
aI0
aI0
aI0
aI0
aI0
aI0
ag44
ag277
ag229
aI0
aI0
aI0
aI0
aI0
aI0
aI0
ag153
ag277
ag350
aI0
aI0
aI0
aI0
aI0
aI0
aI0
aI0
ag277
ag277
aI0
aI0
aI0
aI0
aI0
aI0
aI0
ag434
aI0
ag277
ag369
aI0
aI0
aI0
aI0
aI0
aI0
aI0
aI0
ag277
aI0
aI0
aI0
aI0
aI0
aI0
aI0
aI0
ag293
aI0
aI0
aI0
aI0
aI0
aI0
aI0
aI0
aI0
aI0
aI0
aI0
aI0
aI0
aI0
aI0
aI0
aI0
ag317
aI0
aI0
aI0
aI0
aI0
aI0
aI0
aI0
aI0
ag246
aI0
aI0
aI0
aI0
aI0
aI0
aI0
aI0
aI0
ag340
ag394
ag177
aI0
aI0
aI0
aI0
aI0
aI0
aI0
aI0
aI0
ag457
aI0
aI0
aI0
aI0
aI0
aI0
aI0
ag0
(g103
g2
Ntp480
Rp481
(dp482
g107
I10
sg108
(lp483
(I4
I5
I0
tp484
a(I5
I5
I0
tp485
a(I5
I4
I0
tp486
a(I5
I3
I0
tp487
a(I5
I3
I1
tp488
a(I6
I3
I1
tp489
a(I7
I3
I1
tp490
a(I8
I3
I1
tp491
a(I9
I3
I1
tp492
a(I10
I3
I1
tp493
a(I11
I3
I1
tp494
a(I11
I3
I0
tp495
a(I12
I3
I0
tp496
asg126
I7
sg127
I29
sbag481
ag129
aI0
aI0
aI0
aI0
aI0
aI0
aI0
ag481
aI0
ag202
aI0
aI0
aI0
aI0
aI0
aI0
aI0
ag481
ag229
ag229
aI0
aI0
aI0
aI0
aI0
aI0
aI0
ag153
ag229
ag350
aI0
aI0
aI0
aI0
aI0
aI0
aI0
ag434
ag229
aI0
aI0
aI0
aI0
aI0
aI0
aI0
aI0
ag434
ag229
aI0
ag369
aI0
aI0
aI0
aI0
aI0
aI0
ag317
ag317
aI0
aI0
aI0
aI0
aI0
aI0
aI0
aI0
ag317
ag293
aI0
aI0
aI0
aI0
aI0
aI0
aI0
aI0
ag317
aI0
aI0
aI0
aI0
aI0
aI0
aI0
aI0
aI0
ag317
aI0
aI0
aI0
aI0
aI0
aI0
aI0
aI0
aI0
ag246
aI0
aI0
aI0
aI0
aI0
aI0
aI0
aI0
aI0
ag17
ag394
ag177
aI0
aI0
aI0
aI0
aI0
aI0
aI0
ag153
aI0
ag457
aI0
aI0
aI0
aI0
aI0
aI0
aI0
ag153
ag481
ag129
aI0
aI0
aI0
aI0
aI0
aI0
aI0
ag153
aI0
ag202
aI0
aI0
aI0
aI0
aI0
aI0
aI0
ag153
aI0
aI0
aI0
aI0
aI0
aI0
aI0
aI0
aI0
ag153
aI0
ag350
aI0
aI0
aI0
aI0
aI0
aI0
aI0
ag434
aI0
aI0
aI0
aI0
aI0
aI0
aI0
aI0
aI0
ag62
ag229
aI0
ag369
aI0
aI0
aI0
aI0
aI0
aI0
ag0
(g103
g2
Ntp497
Rp498
(dp499
g107
I22
sg108
(lp500
(I9
I10
I0
tp501
a(I8
I10
I0
tp502
a(I7
I10
I0
tp503
a(I6
I10
I0
tp504
a(I6
I9
I0
tp505
a(I6
I8
I0
tp506
asg126
I16
sg127
I28
sbag317
aI0
aI0
aI0
aI0
aI0
aI0
aI0
aI0
ag498
ag293
aI0
aI0
aI0
aI0
aI0
aI0
aI0
aI0
aI0
aI0
aI0
aI0
aI0
aI0
aI0
aI0
aI0
aI0
aI0
aI0
aI0
aI0
aI0
aI0
aI0
aI0
aI0
aI0
ag246
aI0
aI0
aI0
aI0
aI0
aI0
aI0
aI0
aI0
ag153
ag394
ag177
aI0
aI0
aI0
aI0
aI0
aI0
aI0
ag153
aI0
ag457
aI0
aI0
aI0
aI0
aI0
aI0
aI0
aI0
ag481
ag129
aI0
aI0
aI0
aI0
aI0
aI0
aI0
aI0
ag317
ag202
aI0
aI0
aI0
aI0
aI0
aI0
aI0
aI0
ag317
aI0
aI0
aI0
aI0
aI0
aI0
aI0
aI0
aI0
ag317
ag350
aI0
aI0
aI0
aI0
aI0
aI0
aI0
ag434
ag317
aI0
aI0
aI0
aI0
aI0
aI0
aI0
aI0
aI0
ag317
aI0
ag369
aI0
aI0
aI0
aI0
aI0
aI0
aI0
ag317
aI0
aI0
aI0
aI0
aI0
aI0
aI0
aI0
ag498
ag293
aI0
aI0
aI0
aI0
aI0
aI0
aI0
aI0
aI0
aI0
aI0
aI0
aI0
aI0
aI0
aI0
aI0
aI0
aI0
aI0
aI0
aI0
aI0
aI0
aI0
aI0
aI0
aI0
ag246
aI0
aI0
aI0
aI0
aI0
aI0
aI0
aI0
aI0
ag153
ag394
ag177
aI0
aI0
aI0
aI0
aI0
aI0
aI0
aI0
aI0
ag457
aI0
aI0
aI0
aI0
aI0
aI0
aI0
aI0
ag481
ag129
aI0
aI0
aI0
aI0
aI0
aI0
aI0
ag38
ag317
ag202
aI0
aI0
aI0
aI0
aI0
aI0
aI0
ag350
ag350
ag350
aI0
aI0
aI0
aI0
aI0
aI0
aI0
aI0
aI0
ag350
aI0
aI0
aI0
aI0
aI0
aI0
aI0
ag434
ag0
(g103
g2
Ntp507
Rp508
(dp509
g107
I22
sg108
(lp510
(I9
I10
I0
tp511
a(I9
I9
I0
tp512
a(I8
I9
I0
tp513
a(I8
I8
I0
tp514
a(I8
I8
I1
tp515
a(I8
I7
I1
tp516
a(I9
I7
I1
tp517
a(I10
I7
I1
tp518
a(I11
I7
I1
tp519
a(I12
I7
I1
tp520
a(I13
I7
I1
tp521
a(I13
I7
I0
tp522
asg126
I13
sg127
I8
sbaI0
aI0
aI0
aI0
aI0
aI0
aI0
aI0
ag508
ag508
aI0
ag369
aI0
aI0
aI0
aI0
aI0
aI0
ag508
aI0
aI0
aI0
aI0
aI0
aI0
aI0
aI0
aI0
ag498
ag293
aI0
aI0
aI0
aI0
aI0
aI0
aI0
aI0
aI0
aI0
aI0
aI0
aI0
aI0
aI0
aI0
aI0
aI0
aI0
aI0
aI0
aI0
aI0
aI0
aI0
aI0
aI0
aI0
ag246
aI0
aI0
aI0
aI0
aI0
aI0
aI0
aI0
aI0
ag153
ag394
ag177
aI0
aI0
aI0
aI0
aI0
aI0
aI0
ag434
ag434
ag457
aI0
aI0
aI0
aI0
aI0
aI0
aI0
ag434
ag481
ag129
aI0
aI0
aI0
aI0
aI0
aI0
aI0
ag434
aI0
ag202
aI0
aI0
aI0
aI0
aI0
aI0
aI0
ag434
aI0
aI0
aI0
aI0
aI0
aI0
aI0
aI0
aI0
ag434
aI0
aI0
aI0
aI0
aI0
aI0
aI0
aI0
aI0
ag434
ag508
aI0
aI0
aI0
aI0
aI0
aI0
aI0
aI0
ag65
ag369
ag369
ag369
aI0
aI0
aI0
aI0
aI0
aI0
ag508
ag293
aI0
aI0
aI0
aI0
aI0
aI0
aI0
aI0
ag80
ag293
aI0
aI0
aI0
aI0
aI0
aI0
aI0
aI0
aI0
aI0
aI0
aI0
aI0
aI0
aI0
aI0
aI0
aI0
aI0
aI0
aI0
aI0
aI0
aI0
aI0
aI0
aI0
aI0
ag246
aI0
aI0
aI0
aI0
aI0
aI0
aI0
aI0
aI0
ag20
ag394
ag177
aI0
aI0
aI0
aI0
aI0
aI0
aI0
ag0
(g103
g2
Ntp523
Rp524
(dp525
g107
I19
sg108
(lp526
(I15
I8
I0
tp527
a(I14
I8
I0
tp528
a(I13
I8
I0
tp529
a(I12
I8
I0
tp530
a(I12
I9
I0
tp531
a(I11
I9
I0
tp532
a(I10
I9
I0
tp533
a(I10
I8
I0
tp534
a(I10
I7
I0
tp535
a(I10
I6
I0
tp536
a(I10
I5
I0
tp537
a(I10
I4
I0
tp538
a(I10
I3
I0
tp539
a(I10
I2
I0
tp540
a(I10
I1
I0
tp541
asg126
I2
sg127
I13
sbag434
ag457
aI0
aI0
aI0
aI0
aI0
aI0
aI0
ag524
ag481
ag129
aI0
aI0
aI0
aI0
aI0
aI0
aI0
ag524
aI0
ag202
aI0
aI0
aI0
aI0
aI0
aI0
aI0
ag524
aI0
aI0
aI0
aI0
aI0
aI0
aI0
aI0
aI0
ag524
aI0
aI0
aI0
aI0
aI0
aI0
aI0
aI0
aI0
ag524
ag508
aI0
aI0
aI0
aI0
aI0
aI0
aI0
aI0
ag524
aI0
aI0
aI0
aI0
aI0
aI0
aI0
aI0
aI0
ag524
ag293
ag0
(g103
g2
Ntp542
Rp543
(dp544
g107
I22
sg108
(lp545
(I9
I10
I0
tp546
a(I10
I10
I0
tp547
a(I10
I10
I1
tp548
a(I10
I10
I2
tp549
a(I10
I9
I2
tp550
a(I11
I9
I2
tp551
a(I11
I8
I2
tp552
a(I11
I7
I2
tp553
a(I11
I6
I2
tp554
a(I11
I5
I2
tp555
a(I11
I5
I1
tp556
a(I11
I5
I0
tp557
asg126
I11
sg127
I14
sbaI0
aI0
aI0
aI0
aI0
aI0
aI0
ag543
ag543
ag543
aI0
aI0
aI0
aI0
aI0
aI0
aI0
aI0
aI0
aI0
aI0
aI0
aI0
aI0
aI0
aI0
aI0
aI0
aI0
aI0
aI0
aI0
aI0
aI0
aI0
aI0
aI0
ag246
aI0
aI0
aI0
aI0
aI0
aI0
aI0
aI0
aI0
aI0
ag394
ag177
aI0
aI0
aI0
aI0
aI0
aI0
aI0
ag434
ag434
ag457
aI0
aI0
aI0
aI0
aI0
aI0
aI0
ag481
ag481
ag129
aI0
aI0
aI0
aI0
aI0
aI0
aI0
aI0
aI0
ag202
aI0
aI0
aI0
aI0
aI0
aI0
aI0
ag47
ag543
ag543
aI0
aI0
aI0
aI0
aI0
aI0
aI0
aI0
aI0
ag543
aI0
aI0
aI0
aI0
aI0
aI0
aI0
ag0
(g103
g2
Ntp558
Rp559
(dp560
g107
I13
sg108
(lp561
(I13
I7
I0
tp562
a(I12
I7
I0
tp563
a(I11
I7
I0
tp564
a(I11
I8
I0
tp565
asg126
I18
sg127
I12
sbag508
ag543
aI0
aI0
aI0
aI0
aI0
aI0
aI0
ag68
aI0
ag543
aI0
aI0
aI0
aI0
aI0
aI0
aI0
ag524
ag293
ag543
aI0
aI0
aI0
aI0
aI0
aI0
aI0
aI0
aI0
aI0
aI0
aI0
aI0
aI0
aI0
aI0
aI0
aI0
aI0
aI0
aI0
aI0
aI0
aI0
aI0
aI0
aI0
aI0
aI0
aI0
aI0
aI0
aI0
aI0
aI0
aI0
aI0
ag246
aI0
aI0
aI0
aI0
aI0
aI0
aI0
aI0
aI0
ag0
(g103
g2
Ntp566
Rp567
(dp568
g107
I3
sg108
(lp569
(I15
I1
I0
tp570
a(I14
I1
I0
tp571
a(I13
I1
I0
tp572
a(I12
I1
I0
tp573
a(I12
I2
I0
tp574
asg126
I5
sg127
I4
sbag394
ag177
aI0
aI0
aI0
aI0
aI0
aI0
aI0
ag29
ag0
(g103
g2
Ntp575
Rp576
(dp577
g107
I19
sg108
(lp578
(I15
I8
I0
tp579
a(I15
I7
I0
tp580
a(I15
I6
I0
tp581
a(I14
I6
I0
tp582
a(I14
I5
I0
tp583
a(I14
I4
I0
tp584
a(I14
I3
I0
tp585
a(I14
I3
I1
tp586
a(I13
I3
I1
tp587
a(I13
I2
I1
tp588
a(I12
I2
I1
tp589
a(I12
I2
I0
tp590
asg126
I5
sg127
I22
sbag457
aI0
aI0
aI0
aI0
aI0
aI0
aI0
ag35
ag129
ag129
aI0
aI0
aI0
aI0
aI0
aI0
aI0
aI0
aI0
ag202
aI0
aI0
aI0
aI0
aI0
aI0
aI0
ag0
(g103
g2
Ntp591
Rp592
(dp593
g107
I11
sg108
(lp594
(I11
I5
I0
tp595
a(I12
I5
I0
tp596
a(I12
I6
I0
tp597
a(I12
I6
I1
tp598
a(I12
I6
I2
tp599
a(I12
I7
I2
tp600
a(I12
I8
I2
tp601
a(I12
I9
I2
tp602
a(I12
I10
I2
tp603
a(I12
I11
I2
tp604
a(I12
I11
I1
tp605
a(I12
I11
I0
tp606
asg126
I24
sg127
I16
sbaI0
aI0
aI0
aI0
aI0
aI0
aI0
aI0
aI0
ag592
ag592
ag592
aI0
aI0
aI0
aI0
aI0
aI0
aI0
ag559
ag508
ag592
aI0
aI0
aI0
aI0
aI0
aI0
aI0
ag524
aI0
ag592
aI0
aI0
aI0
aI0
aI0
aI0
aI0
ag524
ag293
ag592
aI0
aI0
aI0
aI0
aI0
aI0
aI0
aI0
aI0
ag592
aI0
aI0
aI0
aI0
aI0
aI0
aI0
ag86
ag592
ag592
aI0
aI0
aI0
aI0
aI0
aI0
aI0
aI0
aI0
aI0
aI0
aI0
aI0
aI0
aI0
aI0
aI0
ag246
aI0
aI0
aI0
aI0
aI0
aI0
aI0
aI0
aI0
ag567
ag394
ag177
aI0
aI0
aI0
aI0
aI0
aI0
aI0
aI0
ag576
ag457
aI0
aI0
aI0
aI0
aI0
aI0
aI0
ag0
(g103
g2
Ntp607
Rp608
(dp609
g107
I7
sg108
(lp610
(I12
I3
I0
tp611
a(I13
I3
I0
tp612
a(I13
I4
I0
tp613
a(I13
I5
I0
tp614
a(I13
I6
I0
tp615
a(I13
I7
I0
tp616
asg126
I13
sg127
I5
sbag576
ag457
aI0
aI0
aI0
aI0
aI0
aI0
aI0
ag608
aI0
ag202
aI0
aI0
aI0
aI0
aI0
aI0
aI0
ag608
aI0
ag202
aI0
aI0
aI0
aI0
aI0
aI0
aI0
ag608
aI0
ag202
aI0
aI0
aI0
aI0
aI0
aI0
aI0
ag53
ag508
ag202
aI0
aI0
aI0
aI0
aI0
aI0
aI0
ag524
aI0
aI0
aI0
aI0
aI0
aI0
aI0
aI0
aI0
aI0
ag293
aI0
aI0
aI0
aI0
aI0
aI0
aI0
aI0
aI0
aI0
aI0
aI0
aI0
aI0
aI0
aI0
aI0
aI0
aI0
aI0
aI0
aI0
aI0
aI0
aI0
aI0
aI0
aI0
aI0
aI0
aI0
aI0
aI0
aI0
aI0
aI0
aI0
aI0
ag246
aI0
aI0
aI0
aI0
aI0
aI0
aI0
aI0
aI0
ag567
ag394
ag177
aI0
aI0
aI0
aI0
aI0
aI0
aI0
ag32
ag0
(g103
g2
Ntp617
Rp618
(dp619
g107
I6
sg108
(lp620
(I14
I2
I0
tp621
a(I14
I2
I1
tp622
a(I15
I2
I1
tp623
a(I16
I2
I1
tp624
a(I16
I3
I1
tp625
a(I16
I4
I1
tp626
a(I16
I5
I1
tp627
a(I16
I6
I1
tp628
a(I16
I7
I1
tp629
a(I16
I7
I0
tp630
asg126
I14
sg127
I25
sbaI0
aI0
aI0
aI0
aI0
aI0
aI0
aI0
ag576
ag576
ag457
aI0
aI0
aI0
aI0
aI0
aI0
aI0
ag576
aI0
aI0
aI0
aI0
aI0
aI0
aI0
aI0
aI0
ag576
aI0
aI0
aI0
aI0
aI0
aI0
aI0
aI0
aI0
ag576
aI0
aI0
aI0
aI0
aI0
aI0
aI0
aI0
aI0
ag202
ag202
ag202
aI0
aI0
aI0
aI0
aI0
aI0
aI0
ag524
aI0
aI0
aI0
aI0
aI0
aI0
aI0
aI0
aI0
aI0
ag293
aI0
aI0
aI0
aI0
aI0
aI0
aI0
aI0
aI0
aI0
aI0
aI0
aI0
aI0
aI0
aI0
aI0
aI0
aI0
aI0
aI0
aI0
aI0
aI0
aI0
aI0
aI0
aI0
aI0
aI0
aI0
aI0
aI0
aI0
aI0
aI0
aI0
aI0
ag246
aI0
aI0
aI0
aI0
aI0
aI0
aI0
aI0
aI0
ag23
ag394
ag177
aI0
aI0
aI0
aI0
aI0
aI0
aI0
ag457
ag618
aI0
aI0
aI0
aI0
aI0
aI0
aI0
aI0
ag457
ag457
ag457
aI0
aI0
aI0
aI0
aI0
aI0
aI0
aI0
aI0
aI0
aI0
aI0
aI0
aI0
aI0
aI0
aI0
aI0
aI0
aI0
aI0
aI0
aI0
aI0
aI0
aI0
aI0
ag576
aI0
aI0
aI0
aI0
aI0
aI0
aI0
aI0
aI0
ag576
aI0
aI0
aI0
aI0
aI0
aI0
aI0
aI0
aI0
ag71
ag293
aI0
aI0
aI0
aI0
aI0
aI0
aI0
aI0
aI0
ag293
aI0
aI0
aI0
aI0
aI0
aI0
aI0
aI0
aI0
aI0
aI0
aI0
aI0
aI0
aI0
aI0
aI0
aI0
aI0
aI0
aI0
aI0
aI0
aI0
aI0
aI0
aI0
aI0
aI0
aI0
aI0
aI0
aI0
aI0
aI0
aI0
aI0
aI0
aI0
aI0
aI0
aI0
aI0
aI0
aI0
aI0
aI0
aI0
ag177
ag177
ag177
aI0
aI0
aI0
aI0
aI0
aI0
aI0
aI0
ag618
aI0
aI0
aI0
aI0
aI0
aI0
aI0
aI0
aI0
ag618
aI0
aI0
aI0
aI0
aI0
aI0
aI0
aI0
aI0
ag618
aI0
aI0
aI0
aI0
aI0
aI0
aI0
aI0
ag50
ag618
aI0
aI0
aI0
aI0
aI0
aI0
aI0
aI0
aI0
ag618
aI0
aI0
aI0
aI0
aI0
aI0
aI0
aI0
ag56
ag618
aI0
aI0
aI0
aI0
aI0
aI0
aI0
aI0
aI0
aI0
aI0
aI0
aI0
aI0
aI0
aI0
aI0
aI0
aI0
aI0
aI0
aI0
aI0
aI0
aI0
aI0
aI0
aI0
aI0
aI0
aI0
aI0
aI0
aI0
aI0
aI0
aI0
aI0
aI0
aI0
aI0
aI0
aI0
aI0
aI0
aI0
aI0
aI0
aI0
aI0
aI0
aI0
aI0
aI0
aI0
aI0
aI0
aI0
aI0
aI0
aI0
aI0
aI0
aI0
aI0
aI0
aI0
aI0
aI0
aI0
aI0
aI0
aI0
aI0
aI0
aI0
aI0
aI0
aI0
aI0
aI0
aI0
aI0
aI0
aI0
aI0
aI0
aI0
aI0
aI0
aI0
aI0
aI0
aI0
aI0
aI0
aI0
aI0
aI0
aI0
aI0
aI0
aI0
aI0
aI0
aI0
aI0
aI0
aI0
aI0
aI0
aI0
aI0
aI0
aI0
aI0
aI0
aI0
aI0
aI0
aI0
aI0
aI0
aI0
aI0
aI0
aI0
aI0
aI0
aI0
aI0
aI0
aI0
aI0
aI0
aI0
aI0
aI0
aI0
aI0
aI0
aI0
aI0
aI0
aI0
aI0
aI0
aI0
aI0
aI0
aI0
aI0
aI0
aI0
aI0
aI0
aI0
aI0
aI0
aI0
aI0
aI0
aI0
aI0
aI0
aI0
aI0
aI0
aI0
aI0
aI0
aI0
aI0
aI0
aI0
aI0
aI0
aI0
aI0
aI0
aI0
aI0
aI0
aI0
aI0
aI0
aI0
aI0
atp631
bsS'x_dim'
p632
I18
sS'nets'
p633
(dp634
I0
g105
sI1
g0
(g103
g2
Ntp635
Rp636
(dp637
g107
I5
sg108
(lp638
(I12
I2
I0
tp639
a(I12
I3
I0
tp640
asg126
I7
sg127
I1
sbsI2
g340
sI3
g387
sI4
g567
sI5
g608
sI6
g394
sI7
g317
sI8
g508
sI9
g369
sI10
g277
sI11
g350
sI12
g559
sI13
g524
sI14
g543
sI15
g425
sI16
g592
sI17
g246
sI18
g153
sI19
g457
sI20
g293
sI21
g229
sI22
g576
sI23
g177
sI24
g434
sI25
g618
sI26
g129
sI27
g202
sI28
g498
sI29
g481
ssS'y_dim'
p641
I13
sS'z_dim'
p642
I10
sb.