ccopy_reg
_reconstructor
p0
(cmodules.Objects
Board
p1
c__builtin__
object
p2
Ntp3
Rp4
(dp5
S'gates'
p6
(dp7
I0
(I1
I1
I0
tp8
sI1
(I6
I1
I0
tp9
sI2
(I10
I1
I0
tp10
sI3
(I15
I1
I0
tp11
sI4
(I3
I2
I0
tp12
sI5
(I12
I2
I0
tp13
sI6
(I14
I2
I0
tp14
sI7
(I12
I3
I0
tp15
sI8
(I8
I4
I0
tp16
sI9
(I1
I5
I0
tp17
sI10
(I4
I5
I0
tp18
sI11
(I11
I5
I0
tp19
sI12
(I16
I5
I0
tp20
sI13
(I13
I7
I0
tp21
sI14
(I16
I7
I0
tp22
sI15
(I2
I8
I0
tp23
sI16
(I6
I8
I0
tp24
sI17
(I9
I8
I0
tp25
sI18
(I11
I8
I0
tp26
sI19
(I15
I8
I0
tp27
sI20
(I1
I9
I0
tp28
sI21
(I2
I10
I0
tp29
sI22
(I9
I10
I0
tp30
sI23
(I1
I11
I0
tp31
sI24
(I12
I11
I0
tp32
ssS'board'
p33
cnumpy.core.multiarray
_reconstruct
p34
(cnumpy
ndarray
p35
(I0
tp36
S'b'
p37
tp38
Rp39
(I1
(I18
I13
I10
tp40
cnumpy
dtype
p41
(S'O8'
p42
I0
I1
tp43
Rp44
(I3
S'|'
p45
NNNI-1
I-1
I63
tp46
bI00
(lp47
I0
aI0
aI0
aI0
aI0
aI0
aI0
aI0
aI0
aI0
aI0
aI0
aI0
aI0
aI0
aI0
aI0
aI0
aI0
aI0
aI0
aI0
aI0
aI0
aI0
aI0
aI0
aI0
aI0
aI0
aI0
ag0
(cmodules.Objects
Net
p48
g2
Ntp49
Rp50
(dp51
S'start_gate'
p52
g31
sS'path'
p53
(lp54
(I1
I11
I0
tp55
a(I0
I11
I0
tp56
a(I0
I10
I0
tp57
a(I0
I10
I1
tp58
a(I0
I9
I1
tp59
a(I0
I8
I1
tp60
a(I0
I7
I1
tp61
a(I0
I6
I1
tp62
a(I0
I5
I1
tp63
a(I0
I4
I1
tp64
a(I0
I3
I1
tp65
a(I1
I3
I1
tp66
a(I2
I3
I1
tp67
a(I3
I3
I1
tp68
a(I3
I2
I1
tp69
ag12
asS'end_gate'
p70
g12
sS'net_id'
p71
I0
sbaI0
aI0
aI0
aI0
aI0
aI0
aI0
aI0
aI0
ag50
aI0
aI0
aI0
aI0
aI0
aI0
aI0
aI0
aI0
ag50
aI0
aI0
aI0
aI0
aI0
aI0
aI0
aI0
aI0
ag50
aI0
aI0
aI0
aI0
aI0
aI0
aI0
aI0
ag0
(g48
g2
Ntp72
Rp73
(dp74
g52
g10
sg53
(lp75
(I10
I1
I0
tp76
a(I9
I1
I0
tp77
a(I8
I1
I0
tp78
a(I7
I1
I0
tp79
a(I7
I2
I0
tp80
a(I6
I2
I0
tp81
a(I6
I3
I0
tp82
a(I6
I4
I0
tp83
a(I6
I5
I0
tp84
a(I6
I6
I0
tp85
a(I5
I6
I0
tp86
a(I4
I6
I0
tp87
a(I3
I6
I0
tp88
a(I2
I6
I0
tp89
a(I1
I6
I0
tp90
a(I1
I7
I0
tp91
a(I0
I7
I0
tp92
a(I0
I8
I0
tp93
a(I0
I9
I0
tp94
ag28
asg70
g28
sg71
I18
sbag50
aI0
aI0
aI0
aI0
aI0
aI0
aI0
aI0
ag73
ag50
aI0
aI0
aI0
aI0
aI0
aI0
aI0
aI0
ag73
ag50
aI0
aI0
aI0
aI0
aI0
aI0
aI0
aI0
ag50
ag50
aI0
aI0
aI0
aI0
aI0
aI0
aI0
aI0
ag50
aI0
aI0
aI0
aI0
aI0
aI0
aI0
aI0
aI0
aI0
aI0
aI0
aI0
aI0
aI0
aI0
aI0
aI0
aI0
aI0
aI0
aI0
aI0
aI0
aI0
aI0
aI0
aI0
aI0
ag0
(cmodules.Objects
Gate
p95
g2
Ntp96
Rp97
(dp98
S'gate_id'
p99
I0
sS'x'
p100
I1
sS'z'
p101
I0
sS'y'
p102
I1
sbag0
(g48
g2
Ntp103
Rp104
(dp105
g52
g11
sg53
(lp106
(I15
I1
I0
tp107
a(I16
I1
I0
tp108
a(I16
I1
I1
tp109
a(I16
I1
I2
tp110
a(I15
I1
I2
tp111
a(I14
I1
I2
tp112
a(I13
I1
I2
tp113
a(I12
I1
I2
tp114
a(I11
I1
I2
tp115
a(I10
I1
I2
tp116
a(I9
I1
I2
tp117
a(I8
I1
I2
tp118
a(I7
I1
I2
tp119
a(I6
I1
I2
tp120
a(I5
I1
I2
tp121
a(I4
I1
I2
tp122
a(I3
I1
I2
tp123
a(I2
I1
I2
tp124
a(I1
I1
I2
tp125
a(I1
I1
I1
tp126
ag8
asg70
g8
sg71
I23
sbag104
aI0
aI0
aI0
aI0
aI0
aI0
aI0
aI0
aI0
aI0
aI0
aI0
aI0
aI0
aI0
aI0
aI0
aI0
ag50
aI0
aI0
aI0
aI0
aI0
aI0
aI0
aI0
ag0
(g48
g2
Ntp127
Rp128
(dp129
g52
g17
sg53
(lp130
(I1
I5
I0
tp131
a(I1
I4
I0
tp132
a(I1
I4
I1
tp133
a(I1
I4
I2
tp134
a(I2
I4
I2
tp135
a(I3
I4
I2
tp136
a(I4
I4
I2
tp137
a(I5
I4
I2
tp138
a(I6
I4
I2
tp139
a(I6
I5
I2
tp140
a(I6
I6
I2
tp141
a(I7
I6
I2
tp142
a(I8
I6
I2
tp143
a(I9
I6
I2
tp144
a(I9
I6
I3
tp145
a(I10
I6
I3
tp146
a(I11
I6
I3
tp147
a(I12
I6
I3
tp148
a(I13
I6
I3
tp149
a(I13
I6
I2
tp150
a(I13
I6
I1
tp151
a(I14
I6
I1
tp152
a(I14
I7
I1
tp153
a(I14
I7
I0
tp154
ag21
asg70
g21
sg71
I27
sbag128
ag128
aI0
aI0
aI0
aI0
aI0
aI0
aI0
ag0
(g95
g2
Ntp155
Rp156
(dp157
g99
I9
sg100
I1
sg101
I0
sg102
I5
sbag0
(g48
g2
Ntp158
Rp159
(dp160
g52
g24
sg53
(lp161
(I6
I8
I0
tp162
a(I6
I8
I1
tp163
a(I6
I8
I2
tp164
a(I5
I8
I2
tp165
a(I5
I7
I2
tp166
a(I5
I6
I2
tp167
a(I4
I6
I2
tp168
a(I3
I6
I2
tp169
a(I3
I5
I2
tp170
a(I2
I5
I2
tp171
a(I1
I5
I2
tp172
a(I1
I5
I1
tp173
ag17
asg70
g17
sg71
I21
sbag159
aI0
aI0
aI0
aI0
aI0
aI0
aI0
ag73
aI0
aI0
aI0
aI0
aI0
aI0
aI0
aI0
aI0
ag73
ag0
(g48
g2
Ntp174
Rp175
(dp176
g52
g11
sg53
(lp177
(I15
I1
I0
tp178
a(I15
I0
I0
tp179
a(I14
I0
I0
tp180
a(I13
I0
I0
tp181
a(I12
I0
I0
tp182
a(I11
I0
I0
tp183
a(I10
I0
I0
tp184
a(I9
I0
I0
tp185
a(I9
I0
I1
tp186
a(I9
I1
I1
tp187
a(I9
I2
I1
tp188
a(I9
I3
I1
tp189
a(I9
I4
I1
tp190
a(I9
I5
I1
tp191
a(I9
I6
I1
tp192
a(I8
I6
I1
tp193
a(I7
I6
I1
tp194
a(I6
I6
I1
tp195
a(I5
I6
I1
tp196
a(I4
I6
I1
tp197
a(I3
I6
I1
tp198
a(I2
I6
I1
tp199
a(I2
I7
I1
tp200
a(I1
I7
I1
tp201
a(I1
I8
I1
tp202
a(I1
I8
I0
tp203
ag23
asg70
g23
sg71
I17
sbaI0
aI0
aI0
aI0
aI0
aI0
aI0
aI0
ag175
ag175
aI0
aI0
aI0
aI0
aI0
aI0
aI0
aI0
ag0
(g95
g2
Ntp204
Rp205
(dp206
g99
I20
sg100
I1
sg101
I0
sg102
I9
sbag0
(g48
g2
Ntp207
Rp208
(dp209
g52
g28
sg53
(lp210
(I1
I9
I0
tp211
a(I1
I9
I1
tp212
a(I1
I9
I2
tp213
a(I2
I9
I2
tp214
a(I2
I8
I2
tp215
a(I2
I7
I2
tp216
a(I2
I6
I2
tp217
a(I2
I6
I3
tp218
a(I3
I6
I3
tp219
a(I4
I6
I3
tp220
a(I4
I5
I3
tp221
a(I4
I5
I2
tp222
a(I4
I5
I1
tp223
ag18
asg70
g18
sg71
I10
sbag208
aI0
aI0
aI0
aI0
aI0
aI0
aI0
ag0
(g48
g2
Ntp224
Rp225
(dp226
g52
g28
sg53
(lp227
(I1
I9
I0
tp228
a(I1
I10
I0
tp229
a(I1
I10
I1
tp230
a(I1
I10
I2
tp231
a(I2
I10
I2
tp232
a(I3
I10
I2
tp233
a(I4
I10
I2
tp234
a(I5
I10
I2
tp235
a(I6
I10
I2
tp236
a(I7
I10
I2
tp237
a(I8
I10
I2
tp238
a(I9
I10
I2
tp239
a(I10
I10
I2
tp240
a(I10
I9
I2
tp241
a(I10
I9
I1
tp242
a(I11
I9
I1
tp243
a(I12
I9
I1
tp244
a(I13
I9
I1
tp245
a(I14
I9
I1
tp246
a(I15
I9
I1
tp247
a(I15
I8
I1
tp248
ag27
asg70
g27
sg71
I20
sbag225
ag225
aI0
aI0
aI0
aI0
aI0
aI0
aI0
ag0
(g95
g2
Ntp249
Rp250
(dp251
g99
I23
sg100
I1
sg101
I0
sg102
I11
sbag0
(g48
g2
Ntp252
Rp253
(dp254
g52
g11
sg53
(lp255
(I15
I1
I0
tp256
a(I15
I1
I1
tp257
a(I14
I1
I1
tp258
a(I13
I1
I1
tp259
a(I13
I2
I1
tp260
a(I13
I3
I1
tp261
a(I12
I3
I1
tp262
a(I11
I3
I1
tp263
a(I11
I4
I1
tp264
a(I11
I4
I0
tp265
a(I10
I4
I0
tp266
a(I10
I5
I0
tp267
a(I10
I6
I0
tp268
a(I10
I7
I0
tp269
a(I10
I8
I0
tp270
a(I10
I9
I0
tp271
a(I9
I9
I0
tp272
a(I8
I9
I0
tp273
a(I7
I9
I0
tp274
a(I7
I9
I1
tp275
a(I6
I9
I1
tp276
a(I5
I9
I1
tp277
a(I4
I9
I1
tp278
a(I3
I9
I1
tp279
a(I2
I9
I1
tp280
a(I2
I10
I1
tp281
a(I2
I11
I1
tp282
a(I1
I11
I1
tp283
ag31
asg70
g31
sg71
I6
sbaI0
aI0
aI0
aI0
aI0
aI0
aI0
aI0
aI0
aI0
aI0
aI0
aI0
aI0
aI0
aI0
aI0
aI0
aI0
aI0
aI0
aI0
aI0
aI0
aI0
aI0
aI0
aI0
ag0
(g48
g2
Ntp284
Rp285
(dp286
g52
g9
sg53
(lp287
(I6
I1
I0
tp288
a(I5
I1
I0
tp289
a(I4
I1
I0
tp290
a(I3
I1
I0
tp291
a(I2
I1
I0
tp292
ag8
asg70
g8
sg71
I2
sbaI0
ag104
aI0
aI0
aI0
aI0
aI0
aI0
aI0
aI0
aI0
aI0
aI0
aI0
aI0
aI0
aI0
aI0
aI0
aI0
ag50
aI0
aI0
aI0
aI0
aI0
aI0
aI0
aI0
aI0
ag0
(g48
g2
Ntp293
Rp294
(dp295
g52
g15
sg53
(lp296
(I12
I3
I0
tp297
a(I11
I3
I0
tp298
a(I10
I3
I0
tp299
a(I9
I3
I0
tp300
a(I8
I3
I0
tp301
a(I7
I3
I0
tp302
a(I7
I4
I0
tp303
a(I7
I4
I1
tp304
a(I6
I4
I1
tp305
a(I5
I4
I1
tp306
a(I4
I4
I1
tp307
a(I3
I4
I1
tp308
a(I2
I4
I1
tp309
a(I2
I5
I1
tp310
a(I2
I5
I0
tp311
ag17
asg70
g17
sg71
I26
sbag128
aI0
aI0
aI0
aI0
aI0
aI0
aI0
ag294
ag294
ag159
aI0
aI0
aI0
aI0
aI0
aI0
aI0
ag73
ag175
ag208
ag208
aI0
aI0
aI0
aI0
aI0
aI0
ag0
(g48
g2
Ntp312
Rp313
(dp314
g52
g23
sg53
(lp315
(I2
I8
I0
tp316
a(I2
I7
I0
tp317
a(I3
I7
I0
tp318
a(I3
I7
I1
tp319
a(I3
I7
I2
tp320
a(I4
I7
I2
tp321
a(I4
I7
I3
tp322
a(I5
I7
I3
tp323
a(I6
I7
I3
tp324
a(I7
I7
I3
tp325
a(I8
I7
I3
tp326
a(I8
I6
I3
tp327
a(I8
I5
I3
tp328
a(I8
I5
I2
tp329
a(I8
I5
I1
tp330
a(I8
I4
I1
tp331
ag16
asg70
g16
sg71
I11
sbag175
ag208
aI0
aI0
aI0
aI0
aI0
aI0
aI0
ag0
(g95
g2
Ntp332
Rp333
(dp334
g99
I15
sg100
I2
sg101
I0
sg102
I8
sbag0
(g48
g2
Ntp335
Rp336
(dp337
g52
g23
sg53
(lp338
(I2
I8
I0
tp339
a(I2
I8
I1
tp340
a(I3
I8
I1
tp341
a(I4
I8
I1
tp342
a(I4
I8
I2
tp343
a(I4
I9
I2
tp344
a(I5
I9
I2
tp345
a(I6
I9
I2
tp346
a(I7
I9
I2
tp347
a(I8
I9
I2
tp348
a(I9
I9
I2
tp349
a(I9
I8
I2
tp350
a(I9
I8
I1
tp351
ag25
asg70
g25
sg71
I9
sbag208
aI0
aI0
aI0
aI0
aI0
aI0
aI0
ag0
(g48
g2
Ntp352
Rp353
(dp354
g52
g23
sg53
(lp355
(I2
I8
I0
tp356
a(I2
I9
I0
tp357
ag29
asg70
g29
sg71
I3
sbag253
ag208
aI0
aI0
aI0
aI0
aI0
aI0
aI0
ag0
(g95
g2
Ntp358
Rp359
(dp360
g99
I21
sg100
I2
sg101
I0
sg102
I10
sbag253
ag225
aI0
aI0
aI0
aI0
aI0
aI0
aI0
ag0
(g48
g2
Ntp361
Rp362
(dp363
g52
g31
sg53
(lp364
(I1
I11
I0
tp365
a(I2
I11
I0
tp366
a(I3
I11
I0
tp367
a(I4
I11
I0
tp368
a(I5
I11
I0
tp369
a(I5
I10
I0
tp370
a(I5
I9
I0
tp371
a(I5
I8
I0
tp372
a(I5
I7
I0
tp373
a(I6
I7
I0
tp374
a(I7
I7
I0
tp375
a(I8
I7
I0
tp376
a(I8
I6
I0
tp377
a(I8
I5
I0
tp378
ag16
asg70
g16
sg71
I7
sbag253
aI0
aI0
aI0
aI0
aI0
aI0
aI0
aI0
aI0
aI0
aI0
aI0
aI0
aI0
aI0
aI0
aI0
aI0
aI0
aI0
aI0
aI0
aI0
aI0
aI0
aI0
aI0
aI0
ag285
aI0
ag104
aI0
aI0
aI0
aI0
aI0
aI0
aI0
ag0
(g95
g2
Ntp379
Rp380
(dp381
g99
I4
sg100
I3
sg101
I0
sg102
I2
sbag50
aI0
aI0
aI0
aI0
aI0
aI0
aI0
aI0
ag0
(g48
g2
Ntp382
Rp383
(dp384
g52
g18
sg53
(lp385
(I4
I5
I0
tp386
a(I3
I5
I0
tp387
a(I3
I4
I0
tp388
a(I3
I3
I0
tp389
ag12
asg70
g12
sg71
I15
sbag50
aI0
aI0
aI0
aI0
aI0
aI0
aI0
aI0
ag383
ag294
ag128
aI0
aI0
aI0
aI0
aI0
aI0
aI0
ag383
aI0
ag159
aI0
aI0
aI0
aI0
aI0
aI0
aI0
ag73
ag175
ag159
ag208
aI0
aI0
aI0
aI0
aI0
aI0
ag313
ag313
ag313
aI0
aI0
aI0
aI0
aI0
aI0
aI0
ag0
(g48
g2
Ntp390
Rp391
(dp392
g52
g23
sg53
(lp393
(I2
I8
I0
tp394
a(I3
I8
I0
tp395
a(I4
I8
I0
tp396
a(I4
I7
I0
tp397
a(I4
I7
I1
tp398
a(I5
I7
I1
tp399
a(I6
I7
I1
tp400
a(I7
I7
I1
tp401
a(I8
I7
I1
tp402
a(I9
I7
I1
tp403
a(I9
I7
I2
tp404
a(I10
I7
I2
tp405
a(I10
I6
I2
tp406
a(I10
I5
I2
tp407
a(I10
I4
I2
tp408
a(I11
I4
I2
tp409
a(I11
I3
I2
tp410
a(I11
I2
I2
tp411
a(I11
I2
I1
tp412
a(I11
I2
I0
tp413
ag13
asg70
g13
sg71
I24
sbag336
aI0
aI0
aI0
aI0
aI0
aI0
aI0
aI0
aI0
ag253
aI0
aI0
aI0
aI0
aI0
aI0
aI0
aI0
aI0
aI0
ag225
aI0
aI0
aI0
aI0
aI0
aI0
aI0
ag362
aI0
aI0
aI0
aI0
aI0
aI0
aI0
aI0
aI0
aI0
aI0
aI0
aI0
aI0
aI0
aI0
aI0
aI0
aI0
aI0
aI0
aI0
aI0
aI0
aI0
aI0
aI0
aI0
aI0
ag285
aI0
ag104
ag0
(g48
g2
Ntp414
Rp415
(dp416
g52
g11
sg53
(lp417
(I15
I1
I0
tp418
a(I15
I2
I0
tp419
a(I15
I2
I1
tp420
a(I15
I2
I2
tp421
a(I15
I2
I3
tp422
a(I15
I1
I3
tp423
a(I14
I1
I3
tp424
a(I13
I1
I3
tp425
a(I12
I1
I3
tp426
a(I11
I1
I3
tp427
a(I10
I1
I3
tp428
a(I9
I1
I3
tp429
a(I8
I1
I3
tp430
a(I7
I1
I3
tp431
a(I6
I1
I3
tp432
a(I5
I1
I3
tp433
a(I4
I1
I3
tp434
a(I4
I2
I3
tp435
a(I4
I2
I2
tp436
a(I4
I2
I1
tp437
a(I4
I2
I0
tp438
ag12
asg70
g12
sg71
I19
sbaI0
aI0
aI0
aI0
aI0
aI0
ag415
ag415
ag415
ag415
aI0
aI0
aI0
aI0
aI0
aI0
aI0
aI0
aI0
aI0
aI0
aI0
aI0
aI0
aI0
aI0
aI0
ag294
ag128
aI0
aI0
aI0
aI0
aI0
aI0
aI0
ag0
(g95
g2
Ntp439
Rp440
(dp441
g99
I10
sg100
I4
sg101
I0
sg102
I5
sbag208
ag208
ag208
aI0
aI0
aI0
aI0
aI0
aI0
ag73
ag175
ag159
ag208
aI0
aI0
aI0
aI0
aI0
aI0
ag391
ag391
ag313
ag313
aI0
aI0
aI0
aI0
aI0
aI0
ag391
ag336
ag336
aI0
aI0
aI0
aI0
aI0
aI0
aI0
aI0
ag253
ag336
aI0
aI0
aI0
aI0
aI0
aI0
aI0
aI0
aI0
ag225
aI0
aI0
aI0
aI0
aI0
aI0
aI0
ag362
aI0
aI0
aI0
aI0
aI0
aI0
aI0
aI0
aI0
aI0
aI0
aI0
aI0
aI0
aI0
aI0
aI0
aI0
aI0
aI0
aI0
aI0
aI0
aI0
aI0
aI0
aI0
aI0
aI0
ag285
aI0
ag104
ag415
aI0
aI0
aI0
aI0
aI0
aI0
aI0
aI0
aI0
aI0
aI0
aI0
aI0
aI0
aI0
aI0
aI0
aI0
aI0
aI0
aI0
aI0
aI0
aI0
aI0
aI0
aI0
ag294
ag128
aI0
aI0
aI0
aI0
aI0
aI0
aI0
ag0
(g48
g2
Ntp442
Rp443
(dp444
g52
g18
sg53
(lp445
(I4
I5
I0
tp446
a(I5
I5
I0
tp447
a(I5
I5
I1
tp448
a(I6
I5
I1
tp449
a(I7
I5
I1
tp450
a(I7
I5
I2
tp451
a(I7
I4
I2
tp452
a(I8
I4
I2
tp453
a(I9
I4
I2
tp454
a(I9
I4
I3
tp455
a(I10
I4
I3
tp456
a(I11
I4
I3
tp457
a(I12
I4
I3
tp458
a(I12
I4
I2
tp459
a(I12
I4
I1
tp460
a(I12
I4
I0
tp461
ag15
asg70
g15
sg71
I29
sbag443
aI0
aI0
aI0
aI0
aI0
aI0
aI0
aI0
ag73
ag175
ag159
aI0
aI0
aI0
aI0
aI0
aI0
aI0
ag362
ag391
ag159
ag313
aI0
aI0
aI0
aI0
aI0
aI0
ag362
aI0
ag159
aI0
aI0
aI0
aI0
aI0
aI0
aI0
ag362
ag253
ag336
aI0
aI0
aI0
aI0
aI0
aI0
aI0
ag362
aI0
ag225
aI0
aI0
aI0
aI0
aI0
aI0
aI0
ag362
aI0
aI0
aI0
aI0
aI0
aI0
aI0
aI0
aI0
aI0
aI0
aI0
aI0
aI0
aI0
aI0
aI0
aI0
aI0
aI0
aI0
aI0
aI0
aI0
aI0
aI0
aI0
aI0
aI0
ag0
(g95
g2
Ntp462
Rp463
(dp464
g99
I1
sg100
I6
sg101
I0
sg102
I1
sbaI0
ag104
ag415
aI0
aI0
aI0
aI0
aI0
aI0
ag73
aI0
aI0
aI0
aI0
aI0
aI0
aI0
aI0
aI0
ag73
aI0
aI0
aI0
aI0
aI0
aI0
aI0
aI0
aI0
ag73
ag294
ag128
aI0
aI0
aI0
aI0
aI0
aI0
aI0
ag73
ag443
ag128
aI0
aI0
aI0
aI0
aI0
aI0
aI0
ag73
ag175
ag128
aI0
aI0
aI0
aI0
aI0
aI0
aI0
ag362
ag391
aI0
ag313
aI0
aI0
aI0
aI0
aI0
aI0
ag0
(g95
g2
Ntp465
Rp466
(dp467
g99
I16
sg100
I6
sg101
I0
sg102
I8
sbag159
ag159
aI0
aI0
aI0
aI0
aI0
aI0
aI0
ag0
(g48
g2
Ntp468
Rp469
(dp470
g52
g30
sg53
(lp471
(I9
I10
I0
tp472
a(I8
I10
I0
tp473
a(I7
I10
I0
tp474
a(I6
I10
I0
tp475
a(I6
I9
I0
tp476
ag24
asg70
g24
sg71
I28
sbag253
ag336
aI0
aI0
aI0
aI0
aI0
aI0
aI0
ag469
aI0
ag225
aI0
aI0
aI0
aI0
aI0
aI0
aI0
aI0
aI0
aI0
aI0
aI0
aI0
aI0
aI0
aI0
aI0
aI0
aI0
aI0
aI0
aI0
aI0
aI0
aI0
aI0
aI0
aI0
aI0
aI0
aI0
aI0
aI0
aI0
aI0
aI0
aI0
ag73
aI0
ag104
ag415
aI0
aI0
aI0
aI0
aI0
aI0
ag73
aI0
aI0
aI0
aI0
aI0
aI0
aI0
aI0
aI0
ag294
aI0
aI0
aI0
aI0
aI0
aI0
aI0
aI0
aI0
ag294
ag294
ag443
aI0
aI0
aI0
aI0
aI0
aI0
aI0
aI0
ag443
ag443
aI0
aI0
aI0
aI0
aI0
aI0
aI0
aI0
ag175
ag128
aI0
aI0
aI0
aI0
aI0
aI0
aI0
ag362
ag391
aI0
ag313
aI0
aI0
aI0
aI0
aI0
aI0
aI0
aI0
aI0
aI0
aI0
aI0
aI0
aI0
aI0
aI0
ag253
ag253
ag336
aI0
aI0
aI0
aI0
aI0
aI0
aI0
ag469
aI0
ag225
aI0
aI0
aI0
aI0
aI0
aI0
aI0
aI0
aI0
aI0
aI0
aI0
aI0
aI0
aI0
aI0
aI0
aI0
aI0
aI0
aI0
aI0
aI0
aI0
aI0
aI0
aI0
aI0
aI0
aI0
aI0
aI0
aI0
aI0
aI0
aI0
aI0
ag73
aI0
ag104
ag415
aI0
aI0
aI0
aI0
aI0
aI0
aI0
aI0
aI0
aI0
aI0
aI0
aI0
aI0
aI0
aI0
ag294
aI0
aI0
aI0
aI0
aI0
aI0
aI0
aI0
aI0
ag0
(g95
g2
Ntp477
Rp478
(dp479
g99
I8
sg100
I8
sg101
I0
sg102
I4
sbag313
ag443
aI0
aI0
aI0
aI0
aI0
aI0
aI0
ag362
ag313
ag313
ag313
aI0
aI0
aI0
aI0
aI0
aI0
ag362
ag175
ag128
ag313
aI0
aI0
aI0
aI0
aI0
aI0
ag362
ag391
aI0
ag313
aI0
aI0
aI0
aI0
aI0
aI0
aI0
aI0
aI0
aI0
aI0
aI0
aI0
aI0
aI0
aI0
ag253
aI0
ag336
aI0
aI0
aI0
aI0
aI0
aI0
aI0
ag469
aI0
ag225
aI0
aI0
aI0
aI0
aI0
aI0
aI0
aI0
aI0
aI0
aI0
aI0
aI0
aI0
aI0
aI0
aI0
aI0
aI0
aI0
aI0
aI0
aI0
aI0
aI0
aI0
aI0
ag175
ag175
aI0
aI0
aI0
aI0
aI0
aI0
aI0
aI0
ag73
ag175
ag104
ag415
aI0
aI0
aI0
aI0
aI0
aI0
aI0
ag175
aI0
aI0
aI0
aI0
aI0
aI0
aI0
aI0
ag294
ag175
aI0
aI0
aI0
aI0
aI0
aI0
aI0
aI0
aI0
ag175
ag443
ag443
aI0
aI0
aI0
aI0
aI0
aI0
aI0
ag175
aI0
aI0
aI0
aI0
aI0
aI0
aI0
aI0
aI0
ag175
ag128
ag128
aI0
aI0
aI0
aI0
aI0
aI0
aI0
ag391
ag391
aI0
aI0
aI0
aI0
aI0
aI0
aI0
ag0
(g95
g2
Ntp480
Rp481
(dp482
g99
I17
sg100
I9
sg101
I0
sg102
I8
sbag336
ag336
aI0
aI0
aI0
aI0
aI0
aI0
aI0
ag253
aI0
ag336
aI0
aI0
aI0
aI0
aI0
aI0
aI0
ag0
(g95
g2
Ntp483
Rp484
(dp485
g99
I22
sg100
I9
sg101
I0
sg102
I10
sbaI0
ag225
aI0
aI0
aI0
aI0
aI0
aI0
aI0
ag0
(g48
g2
Ntp486
Rp487
(dp488
g52
g30
sg53
(lp489
(I9
I10
I0
tp490
a(I9
I11
I0
tp491
a(I10
I11
I0
tp492
a(I11
I11
I0
tp493
a(I11
I10
I0
tp494
a(I12
I10
I0
tp495
a(I13
I10
I0
tp496
a(I13
I10
I1
tp497
a(I13
I10
I2
tp498
a(I13
I9
I2
tp499
a(I13
I8
I2
tp500
a(I13
I7
I2
tp501
a(I13
I7
I1
tp502
ag21
asg70
g21
sg71
I8
sbaI0
aI0
aI0
aI0
aI0
aI0
aI0
aI0
aI0
aI0
aI0
aI0
aI0
aI0
aI0
aI0
aI0
aI0
aI0
ag175
aI0
aI0
aI0
aI0
aI0
aI0
aI0
aI0
aI0
ag0
(g95
g2
Ntp503
Rp504
(dp505
g99
I2
sg100
I10
sg101
I0
sg102
I1
sbag0
(g48
g2
Ntp506
Rp507
(dp508
g52
g27
sg53
(lp509
(I15
I8
I0
tp510
a(I14
I8
I0
tp511
a(I13
I8
I0
tp512
a(I12
I8
I0
tp513
a(I12
I8
I1
tp514
a(I11
I8
I1
tp515
a(I10
I8
I1
tp516
a(I10
I7
I1
tp517
a(I10
I6
I1
tp518
a(I10
I5
I1
tp519
a(I10
I4
I1
tp520
a(I10
I3
I1
tp521
a(I10
I2
I1
tp522
a(I10
I1
I1
tp523
ag10
asg70
g10
sg71
I13
sbag104
ag415
aI0
aI0
aI0
aI0
aI0
aI0
aI0
ag507
aI0
aI0
aI0
aI0
aI0
aI0
aI0
aI0
ag294
ag507
aI0
aI0
aI0
aI0
aI0
aI0
aI0
aI0
ag253
ag507
ag391
ag443
aI0
aI0
aI0
aI0
aI0
aI0
ag253
ag507
ag391
aI0
aI0
aI0
aI0
aI0
aI0
aI0
ag253
ag507
ag391
ag128
aI0
aI0
aI0
aI0
aI0
aI0
ag253
ag507
ag391
aI0
aI0
aI0
aI0
aI0
aI0
aI0
ag253
ag507
aI0
aI0
aI0
aI0
aI0
aI0
aI0
aI0
ag253
ag225
ag225
aI0
aI0
aI0
aI0
aI0
aI0
aI0
ag0
(g48
g2
Ntp524
Rp525
(dp526
g52
g30
sg53
(lp527
(I9
I10
I0
tp528
a(I10
I10
I0
tp529
a(I10
I10
I1
tp530
a(I11
I10
I1
tp531
a(I11
I10
I2
tp532
a(I11
I9
I2
tp533
a(I11
I8
I2
tp534
a(I11
I7
I2
tp535
a(I11
I6
I2
tp536
a(I11
I5
I2
tp537
a(I11
I5
I1
tp538
ag19
asg70
g19
sg71
I14
sbag525
ag225
aI0
aI0
aI0
aI0
aI0
aI0
aI0
ag487
aI0
aI0
aI0
aI0
aI0
aI0
aI0
aI0
aI0
aI0
aI0
aI0
aI0
aI0
aI0
aI0
aI0
aI0
aI0
ag175
aI0
aI0
aI0
aI0
aI0
aI0
aI0
aI0
aI0
aI0
aI0
ag104
ag415
aI0
aI0
aI0
aI0
aI0
aI0
ag391
ag391
ag391
aI0
aI0
aI0
aI0
aI0
aI0
aI0
ag294
ag253
ag391
aI0
aI0
aI0
aI0
aI0
aI0
aI0
ag253
ag253
ag391
ag443
aI0
aI0
aI0
aI0
aI0
aI0
ag0
(g95
g2
Ntp539
Rp540
(dp541
g99
I11
sg100
I11
sg101
I0
sg102
I5
sbag525
ag525
aI0
aI0
aI0
aI0
aI0
aI0
aI0
aI0
aI0
ag525
ag128
aI0
aI0
aI0
aI0
aI0
aI0
ag0
(g48
g2
Ntp542
Rp543
(dp544
g52
g21
sg53
(lp545
(I13
I7
I0
tp546
a(I12
I7
I0
tp547
a(I11
I7
I0
tp548
ag26
asg70
g26
sg71
I12
sbaI0
ag525
aI0
aI0
aI0
aI0
aI0
aI0
aI0
ag0
(g95
g2
Ntp549
Rp550
(dp551
g99
I18
sg100
I11
sg101
I0
sg102
I8
sbag507
ag525
aI0
aI0
aI0
aI0
aI0
aI0
aI0
aI0
ag225
ag525
aI0
aI0
aI0
aI0
aI0
aI0
aI0
ag487
ag525
ag525
aI0
aI0
aI0
aI0
aI0
aI0
aI0
ag487
aI0
aI0
aI0
aI0
aI0
aI0
aI0
aI0
aI0
aI0
aI0
aI0
aI0
aI0
aI0
aI0
aI0
aI0
aI0
ag175
aI0
aI0
aI0
aI0
aI0
aI0
aI0
aI0
aI0
ag0
(g48
g2
Ntp552
Rp553
(dp554
g52
g11
sg53
(lp555
(I15
I1
I0
tp556
a(I14
I1
I0
tp557
a(I13
I1
I0
tp558
a(I12
I1
I0
tp559
ag13
asg70
g13
sg71
I4
sbaI0
ag104
ag415
aI0
aI0
aI0
aI0
aI0
aI0
ag0
(g95
g2
Ntp560
Rp561
(dp562
g99
I5
sg100
I12
sg101
I0
sg102
I2
sbag0
(g48
g2
Ntp563
Rp564
(dp565
g52
g27
sg53
(lp566
(I15
I8
I0
tp567
a(I15
I7
I0
tp568
a(I15
I6
I0
tp569
a(I14
I6
I0
tp570
a(I14
I5
I0
tp571
a(I14
I4
I0
tp572
a(I14
I3
I0
tp573
a(I14
I3
I1
tp574
a(I14
I3
I2
tp575
a(I13
I3
I2
tp576
a(I12
I3
I2
tp577
a(I12
I2
I2
tp578
a(I12
I2
I1
tp579
ag13
asg70
g13
sg71
I22
sbag564
aI0
aI0
aI0
aI0
aI0
aI0
aI0
ag0
(g95
g2
Ntp580
Rp581
(dp582
g99
I7
sg100
I12
sg101
I0
sg102
I3
sbag253
ag564
aI0
aI0
aI0
aI0
aI0
aI0
aI0
ag443
ag443
ag443
ag443
aI0
aI0
aI0
aI0
aI0
aI0
ag0
(g48
g2
Ntp583
Rp584
(dp585
g52
g19
sg53
(lp586
(I11
I5
I0
tp587
a(I12
I5
I0
tp588
a(I12
I6
I0
tp589
a(I12
I6
I1
tp590
a(I12
I7
I1
tp591
a(I12
I7
I2
tp592
a(I12
I8
I2
tp593
a(I12
I9
I2
tp594
a(I12
I10
I2
tp595
a(I12
I11
I2
tp596
a(I12
I11
I1
tp597
ag32
asg70
g32
sg71
I16
sbaI0
aI0
aI0
aI0
aI0
aI0
aI0
aI0
aI0
ag584
ag584
aI0
ag128
aI0
aI0
aI0
aI0
aI0
aI0
ag543
ag584
ag584
aI0
aI0
aI0
aI0
aI0
aI0
aI0
ag507
ag507
ag584
aI0
aI0
aI0
aI0
aI0
aI0
aI0
aI0
ag225
ag584
aI0
aI0
aI0
aI0
aI0
aI0
aI0
ag487
aI0
ag584
aI0
aI0
aI0
aI0
aI0
aI0
aI0
ag0
(g95
g2
Ntp598
Rp599
(dp600
g99
I24
sg100
I12
sg101
I0
sg102
I11
sbag584
ag584
aI0
aI0
aI0
aI0
aI0
aI0
aI0
aI0
aI0
aI0
aI0
aI0
aI0
aI0
aI0
aI0
aI0
ag175
aI0
aI0
aI0
aI0
aI0
aI0
aI0
aI0
aI0
ag553
ag253
ag104
ag415
aI0
aI0
aI0
aI0
aI0
aI0
aI0
ag253
aI0
aI0
aI0
aI0
aI0
aI0
aI0
aI0
ag0
(g48
g2
Ntp601
Rp602
(dp603
g52
g15
sg53
(lp604
(I12
I3
I0
tp605
a(I13
I3
I0
tp606
a(I13
I4
I0
tp607
a(I13
I5
I0
tp608
a(I13
I6
I0
tp609
ag21
asg70
g21
sg71
I5
sbag253
ag564
aI0
aI0
aI0
aI0
aI0
aI0
aI0
ag602
aI0
aI0
aI0
aI0
aI0
aI0
aI0
aI0
aI0
ag602
aI0
aI0
aI0
aI0
aI0
aI0
aI0
aI0
aI0
ag602
ag128
ag128
ag128
aI0
aI0
aI0
aI0
aI0
aI0
ag0
(g95
g2
Ntp610
Rp611
(dp612
g99
I13
sg100
I13
sg101
I0
sg102
I7
sbag487
ag487
aI0
aI0
aI0
aI0
aI0
aI0
aI0
ag507
aI0
ag487
aI0
aI0
aI0
aI0
aI0
aI0
aI0
aI0
ag225
ag487
aI0
aI0
aI0
aI0
aI0
aI0
aI0
ag487
ag487
ag487
aI0
aI0
aI0
aI0
aI0
aI0
aI0
aI0
aI0
aI0
aI0
aI0
aI0
aI0
aI0
aI0
aI0
aI0
aI0
aI0
aI0
aI0
aI0
aI0
aI0
aI0
aI0
ag175
aI0
aI0
aI0
aI0
aI0
aI0
aI0
aI0
aI0
ag553
ag253
ag104
ag415
aI0
aI0
aI0
aI0
aI0
aI0
ag0
(g95
g2
Ntp613
Rp614
(dp615
g99
I6
sg100
I14
sg101
I0
sg102
I2
sbag0
(g48
g2
Ntp616
Rp617
(dp618
g52
g14
sg53
(lp619
(I14
I2
I0
tp620
a(I14
I2
I1
tp621
a(I14
I2
I2
tp622
a(I14
I2
I3
tp623
a(I14
I3
I3
tp624
a(I15
I3
I3
tp625
a(I16
I3
I3
tp626
a(I16
I4
I3
tp627
a(I16
I5
I3
tp628
a(I16
I6
I3
tp629
a(I16
I7
I3
tp630
a(I16
I7
I2
tp631
a(I16
I7
I1
tp632
ag22
asg70
g22
sg71
I25
sbag617
ag617
aI0
aI0
aI0
aI0
aI0
aI0
ag564
ag564
ag564
ag617
aI0
aI0
aI0
aI0
aI0
aI0
ag564
aI0
aI0
aI0
aI0
aI0
aI0
aI0
aI0
aI0
ag564
aI0
aI0
aI0
aI0
aI0
aI0
aI0
aI0
aI0
ag564
ag128
aI0
aI0
aI0
aI0
aI0
aI0
aI0
aI0
ag128
ag128
aI0
aI0
aI0
aI0
aI0
aI0
aI0
aI0
ag507
aI0
aI0
aI0
aI0
aI0
aI0
aI0
aI0
aI0
aI0
ag225
aI0
aI0
aI0
aI0
aI0
aI0
aI0
aI0
aI0
aI0
aI0
aI0
aI0
aI0
aI0
aI0
aI0
aI0
aI0
aI0
aI0
aI0
aI0
aI0
aI0
aI0
aI0
aI0
aI0
aI0
aI0
aI0
aI0
aI0
aI0
aI0
aI0
aI0
ag175
aI0
aI0
aI0
aI0
aI0
aI0
aI0
aI0
aI0
ag0
(g95
g2
Ntp633
Rp634
(dp635
g99
I3
sg100
I15
sg101
I0
sg102
I1
sbag253
ag104
ag415
aI0
aI0
aI0
aI0
aI0
aI0
ag415
ag415
ag415
ag415
aI0
aI0
aI0
aI0
aI0
aI0
aI0
aI0
aI0
ag617
aI0
aI0
aI0
aI0
aI0
aI0
aI0
aI0
aI0
aI0
aI0
aI0
aI0
aI0
aI0
aI0
aI0
aI0
aI0
aI0
aI0
aI0
aI0
aI0
aI0
aI0
ag564
aI0
aI0
aI0
aI0
aI0
aI0
aI0
aI0
aI0
ag564
aI0
aI0
aI0
aI0
aI0
aI0
aI0
aI0
aI0
ag0
(g95
g2
Ntp636
Rp637
(dp638
g99
I19
sg100
I15
sg101
I0
sg102
I8
sbag225
aI0
aI0
aI0
aI0
aI0
aI0
aI0
aI0
aI0
ag225
aI0
aI0
aI0
aI0
aI0
aI0
aI0
aI0
aI0
aI0
aI0
aI0
aI0
aI0
aI0
aI0
aI0
aI0
aI0
aI0
aI0
aI0
aI0
aI0
aI0
aI0
aI0
aI0
aI0
aI0
aI0
aI0
aI0
aI0
aI0
aI0
aI0
aI0
aI0
aI0
aI0
aI0
aI0
aI0
aI0
aI0
aI0
aI0
ag104
ag104
ag104
aI0
aI0
aI0
aI0
aI0
aI0
aI0
aI0
aI0
aI0
aI0
aI0
aI0
aI0
aI0
aI0
aI0
aI0
aI0
aI0
ag617
aI0
aI0
aI0
aI0
aI0
aI0
aI0
aI0
aI0
ag617
aI0
aI0
aI0
aI0
aI0
aI0
ag0
(g95
g2
Ntp639
Rp640
(dp641
g99
I12
sg100
I16
sg101
I0
sg102
I5
sbaI0
aI0
ag617
aI0
aI0
aI0
aI0
aI0
aI0
aI0
aI0
aI0
ag617
aI0
aI0
aI0
aI0
aI0
aI0
ag0
(g95
g2
Ntp642
Rp643
(dp644
g99
I14
sg100
I16
sg101
I0
sg102
I7
sbag617
ag617
ag617
aI0
aI0
aI0
aI0
aI0
aI0
aI0
aI0
aI0
aI0
aI0
aI0
aI0
aI0
aI0
aI0
aI0
aI0
aI0
aI0
aI0
aI0
aI0
aI0
aI0
aI0
aI0
aI0
aI0
aI0
aI0
aI0
aI0
aI0
aI0
aI0
aI0
aI0
aI0
aI0
aI0
aI0
aI0
aI0
aI0
aI0
aI0
aI0
aI0
aI0
aI0
aI0
aI0
aI0
aI0
aI0
aI0
aI0
aI0
aI0
aI0
aI0
aI0
aI0
aI0
aI0
aI0
aI0
aI0
aI0
aI0
aI0
aI0
aI0
aI0
aI0
aI0
aI0
aI0
aI0
aI0
aI0
aI0
aI0
aI0
aI0
aI0
aI0
aI0
aI0
aI0
aI0
aI0
aI0
aI0
aI0
aI0
aI0
aI0
aI0
aI0
aI0
aI0
aI0
aI0
aI0
aI0
aI0
aI0
aI0
aI0
aI0
aI0
aI0
aI0
aI0
aI0
aI0
aI0
aI0
aI0
aI0
aI0
aI0
aI0
aI0
aI0
aI0
aI0
aI0
aI0
aI0
aI0
aI0
aI0
aI0
aI0
aI0
aI0
aI0
aI0
aI0
aI0
aI0
aI0
aI0
aI0
aI0
aI0
aI0
aI0
aI0
aI0
aI0
aI0
aI0
aI0
aI0
aI0
aI0
aI0
aI0
aI0
aI0
aI0
aI0
aI0
aI0
aI0
aI0
aI0
aI0
aI0
aI0
aI0
aI0
aI0
aI0
aI0
aI0
aI0
aI0
aI0
aI0
aI0
aI0
atp645
bsS'x_dim'
p646
I18
sS'nets'
p647
(dp648
I0
g50
sI1
g0
(g48
g2
Ntp649
Rp650
(dp651
g52
g13
sg53
(lp652
(I12
I2
I0
tp653
ag15
asg70
g15
sg71
I1
sbsI2
g285
sI3
g353
sI4
g553
sI5
g602
sI6
g253
sI7
g362
sI8
g487
sI9
g336
sI10
g208
sI11
g313
sI12
g543
sI13
g507
sI14
g525
sI15
g383
sI16
g584
sI17
g175
sI18
g73
sI19
g415
sI20
g225
sI21
g159
sI22
g564
sI23
g104
sI24
g391
sI25
g617
sI26
g294
sI27
g128
sI28
g469
sI29
g443
ssS'y_dim'
p654
I13
sS'z_dim'
p655
I10
sb.